; generated by ARM C/C++ Compiler, 4.1 [Build 894]
; commandline ArmCC [--list --split_sections --debug -c --asm --interleave -o..\Output\c_dc.o --asm_dir=..\Listing\ --list_dir=..\Listing\ --depend=..\Output\c_dc.d --cpu=Cortex-M4.fp --apcs=interwork --diag_suppress=870 -I..\APP -I..\drive -I..\Include -I..\Libraries\CMSIS\inc -I..\Libraries\CMSIS\src -I..\Libraries\FWlib\inc -I..\Libraries\FWlib\src -I..\Listing -I..\Output -I..\Project -I..\STemWinLibrary522\Config -I..\STemWinLibrary522\emWinTask -I..\STemWinLibrary522\GUILib -I..\STemWinLibrary522\inc -I..\User -I..\USB\STM32_USB_HOST_Library\Class\HID\inc -I..\USB\STM32_USB_HOST_Library\Class\MSC\src -I..\USB\STM32_USB_HOST_Library\Core\src -I..\USB\USB_APP -I..\USB\STM32_USB_HOST_Library\Class\HID\src -I..\USB\STM32_USB_HOST_Library\Class\MSC\inc -I..\USB\STM32_USB_HOST_Library\Core\inc -I..\USB\STM32_USB_OTG_Driver\inc -I..\FATFS\exfuns -I..\FATFS\src\option -I..\FATFS\src -I..\MALLOC -ID:\Keil\ARM\RV31\Inc -ID:\Keil\ARM\CMSIS\Include -ID:\Keil\ARM\Inc\ST\STM32F4xx -DUSE_STDPERIPH_DRIVER -DSTM32F40XX -DUSE_USB_OTG_FS -DUSE_EMBEDDED_PHY -DUSE_USB_OTG_HS -DSTM32F40XX --omf_browse=..\Output\c_dc.crf ..\APP\c_dc.c]
                          THUMB

                          AREA ||i.CDC_OP_DOWN||, CODE, READONLY, ALIGN=2

                  CDC_OP_DOWN PROC
;;;986    
;;;987    void CDC_OP_DOWN(void)
000000  e92d5ff0          PUSH     {r4-r12,lr}
;;;988    {
;;;989        switch(set_sw)
000004  4d71              LDR      r5,|L1.460|
000006  7829              LDRB     r1,[r5,#0]  ; set_sw
;;;990        {
;;;991            case set_26:
;;;992            {
;;;993                WM_HWIN hItem;
;;;994    //            WM_InvalidateWindow(hWincdc);
;;;995                hItem = WM_GetDialogItem(hWincdc, ID_TEXT_50);
000008  f8df81c4          LDR      r8,|L1.464|
00000c  f640046f          MOV      r4,#0x86f
;;;996                TEXT_SetBkColor(hItem,GUI_INVALID_COLOR);//选项背景色设为透明
;;;997                TEXT_SetTextColor(hItem, GUI_WHITE);
;;;998                   
;;;999                hItem = WM_GetDialogItem(hWincdc, ID_TEXT_51);
000010  1c66              ADDS     r6,r4,#1
000012  3919              SUBS     r1,r1,#0x19           ;989
;;;1000               TEXT_SetBkColor(hItem,0x00BFFFFF);//选项背景色设为米色
;;;1001               TEXT_SetTextColor(hItem, GUI_BLACK);
;;;1002               
;;;1003               
;;;1004               set_sw = set_27;
;;;1005               break;
;;;1006           }
;;;1007           case set_27:
;;;1008           {
;;;1009               WM_HWIN hItem;
;;;1010   //            WM_InvalidateWindow(hWincdc);
;;;1011               hItem = WM_GetDialogItem(hWincdc, ID_TEXT_51);
;;;1012               TEXT_SetBkColor(hItem,GUI_INVALID_COLOR);//选项背景色设为透明
;;;1013               TEXT_SetTextColor(hItem, GUI_WHITE);
;;;1014                  
;;;1015               hItem = WM_GetDialogItem(hWincdc, ID_TEXT_58);
000014  1df7              ADDS     r7,r6,#7
000016  f8d80018          LDR      r0,[r8,#0x18]         ;989
;;;1016               TEXT_SetBkColor(hItem,0x00BFFFFF);//选项背景色设为米色
;;;1017               TEXT_SetTextColor(hItem, GUI_BLACK);
;;;1018   
;;;1019               set_sw = set_28;
;;;1020               break;
;;;1021           }
;;;1022           case set_28:
;;;1023           {
;;;1024               WM_HWIN hItem;
;;;1025   //            WM_InvalidateWindow(hWincdc);
;;;1026               hItem = WM_GetDialogItem(hWincdc, ID_TEXT_58);
;;;1027               TEXT_SetBkColor(hItem,GUI_INVALID_COLOR);//选项背景色设为透明
;;;1028               TEXT_SetTextColor(hItem, GUI_WHITE);
;;;1029                  
;;;1030               hItem = WM_GetDialogItem(hWincdc, ID_TEXT_59);
00001a  f6400978          MOV      r9,#0x878
;;;1031               TEXT_SetBkColor(hItem,0x00BFFFFF);//选项背景色设为米色
;;;1032               TEXT_SetTextColor(hItem, GUI_BLACK);
;;;1033   
;;;1034               set_sw = set_29;
;;;1035               break;
;;;1036           }
;;;1037           case set_29:
;;;1038           {
;;;1039               WM_HWIN hItem;
;;;1040   //            WM_InvalidateWindow(hWincdc);
;;;1041               hItem = WM_GetDialogItem(hWincdc, ID_TEXT_59);
;;;1042               TEXT_SetBkColor(hItem,GUI_INVALID_COLOR);//选项背景色设为透明
;;;1043               TEXT_SetTextColor(hItem, GUI_WHITE);
;;;1044                  
;;;1045               hItem = WM_GetDialogItem(hWincdc, ID_TEXT_52);
00001e  f6400a71          MOV      r10,#0x871
;;;1046               TEXT_SetBkColor(hItem,0x00BFFFFF);//选项背景色设为米色
;;;1047               TEXT_SetTextColor(hItem, GUI_BLACK);
;;;1048   
;;;1049               set_sw = set_34;
;;;1050               break;
;;;1051           }
;;;1052           case set_34:
;;;1053           {
;;;1054               WM_HWIN hItem;
;;;1055   //            WM_InvalidateWindow(hWincdc);
;;;1056               hItem = WM_GetDialogItem(hWincdc, ID_TEXT_52);
;;;1057               TEXT_SetBkColor(hItem,GUI_INVALID_COLOR);//选项背景色设为透明
;;;1058               TEXT_SetTextColor(hItem, GUI_WHITE);
;;;1059                  
;;;1060               hItem = WM_GetDialogItem(hWincdc, ID_TEXT_60);
000022  f6400b79          MOV      r11,#0x879
000026  290c              CMP      r1,#0xc               ;989
000028  d277              BCS      |L1.282|
00002a  e8dff001          TBB      [pc,r1]               ;989
00002e  0622              DCB      0x06,0x22
000030  3e5acdcd          DCB      0x3e,0x5a,0xcd,0xcd
000034  cdcd7793          DCB      0xcd,0xcd,0x77,0x93
000038  cdb0              DCB      0xcd,0xb0
00003a  4621              MOV      r1,r4                 ;995
00003c  f7fffffe          BL       WM_GetDialogItem
000040  4604              MOV      r4,r0                 ;995
000042  f06f4170          MVN      r1,#0xf0000000        ;996
000046  f7fffffe          BL       TEXT_SetBkColor
00004a  f06f417f          MVN      r1,#0xff000000        ;997
00004e  4620              MOV      r0,r4                 ;997
000050  f7fffffe          BL       TEXT_SetTextColor
000054  4631              MOV      r1,r6                 ;999
000056  f8d80018          LDR      r0,[r8,#0x18]         ;999  ; hWincdc
00005a  f7fffffe          BL       WM_GetDialogItem
00005e  4604              MOV      r4,r0                 ;999
000060  495c              LDR      r1,|L1.468|
000062  f7fffffe          BL       TEXT_SetBkColor
000066  2100              MOVS     r1,#0                 ;1001
000068  4620              MOV      r0,r4                 ;1001
00006a  f7fffffe          BL       TEXT_SetTextColor
00006e  201a              MOVS     r0,#0x1a              ;1004
000070  e0a9              B        |L1.454|
000072  4631              MOV      r1,r6                 ;1011
000074  f7fffffe          BL       WM_GetDialogItem
000078  4604              MOV      r4,r0                 ;1011
00007a  f06f4170          MVN      r1,#0xf0000000        ;1012
00007e  f7fffffe          BL       TEXT_SetBkColor
000082  f06f417f          MVN      r1,#0xff000000        ;1013
000086  4620              MOV      r0,r4                 ;1013
000088  f7fffffe          BL       TEXT_SetTextColor
00008c  4639              MOV      r1,r7                 ;1015
00008e  f8d80018          LDR      r0,[r8,#0x18]         ;1015  ; hWincdc
000092  f7fffffe          BL       WM_GetDialogItem
000096  4604              MOV      r4,r0                 ;1015
000098  494e              LDR      r1,|L1.468|
00009a  f7fffffe          BL       TEXT_SetBkColor
00009e  2100              MOVS     r1,#0                 ;1017
0000a0  4620              MOV      r0,r4                 ;1017
0000a2  f7fffffe          BL       TEXT_SetTextColor
0000a6  201b              MOVS     r0,#0x1b              ;1019
0000a8  e08d              B        |L1.454|
0000aa  4639              MOV      r1,r7                 ;1026
0000ac  f7fffffe          BL       WM_GetDialogItem
0000b0  4604              MOV      r4,r0                 ;1026
0000b2  f06f4170          MVN      r1,#0xf0000000        ;1027
0000b6  f7fffffe          BL       TEXT_SetBkColor
0000ba  f06f417f          MVN      r1,#0xff000000        ;1028
0000be  4620              MOV      r0,r4                 ;1028
0000c0  f7fffffe          BL       TEXT_SetTextColor
0000c4  4649              MOV      r1,r9                 ;1030
0000c6  f8d80018          LDR      r0,[r8,#0x18]         ;1030  ; hWincdc
0000ca  f7fffffe          BL       WM_GetDialogItem
0000ce  4604              MOV      r4,r0                 ;1030
0000d0  4940              LDR      r1,|L1.468|
0000d2  f7fffffe          BL       TEXT_SetBkColor
0000d6  2100              MOVS     r1,#0                 ;1032
0000d8  4620              MOV      r0,r4                 ;1032
0000da  f7fffffe          BL       TEXT_SetTextColor
0000de  201c              MOVS     r0,#0x1c              ;1034
0000e0  e071              B        |L1.454|
0000e2  4649              MOV      r1,r9                 ;1041
0000e4  f7fffffe          BL       WM_GetDialogItem
0000e8  4604              MOV      r4,r0                 ;1041
0000ea  f06f4170          MVN      r1,#0xf0000000        ;1042
0000ee  f7fffffe          BL       TEXT_SetBkColor
0000f2  f06f417f          MVN      r1,#0xff000000        ;1043
0000f6  4620              MOV      r0,r4                 ;1043
0000f8  f7fffffe          BL       TEXT_SetTextColor
0000fc  4651              MOV      r1,r10                ;1045
0000fe  f8d80018          LDR      r0,[r8,#0x18]         ;1045  ; hWincdc
000102  f7fffffe          BL       WM_GetDialogItem
000106  4604              MOV      r4,r0                 ;1045
000108  4932              LDR      r1,|L1.468|
00010a  f7fffffe          BL       TEXT_SetBkColor
00010e  2100              MOVS     r1,#0                 ;1047
000110  4620              MOV      r0,r4                 ;1047
000112  f7fffffe          BL       TEXT_SetTextColor
000116  2021              MOVS     r0,#0x21              ;1049
000118  e055              B        |L1.454|
                  |L1.282|
00011a  e055              B        |L1.456|
00011c  4651              MOV      r1,r10                ;1056
00011e  f7fffffe          BL       WM_GetDialogItem
000122  4604              MOV      r4,r0                 ;1056
000124  f06f4170          MVN      r1,#0xf0000000        ;1057
000128  f7fffffe          BL       TEXT_SetBkColor
00012c  f06f417f          MVN      r1,#0xff000000        ;1058
000130  4620              MOV      r0,r4                 ;1058
000132  f7fffffe          BL       TEXT_SetTextColor
000136  4659              MOV      r1,r11
000138  f8d80018          LDR      r0,[r8,#0x18]  ; hWincdc
00013c  f7fffffe          BL       WM_GetDialogItem
000140  4604              MOV      r4,r0
;;;1061               TEXT_SetBkColor(hItem,0x00BFFFFF);//选项背景色设为米色
000142  4924              LDR      r1,|L1.468|
000144  f7fffffe          BL       TEXT_SetBkColor
;;;1062               TEXT_SetTextColor(hItem, GUI_BLACK);
000148  2100              MOVS     r1,#0
00014a  4620              MOV      r0,r4
00014c  f7fffffe          BL       TEXT_SetTextColor
;;;1063   
;;;1064               set_sw = set_35;
000150  2022              MOVS     r0,#0x22
;;;1065               break;
000152  e038              B        |L1.454|
;;;1066           }
;;;1067           case set_35:
;;;1068           {
;;;1069               WM_HWIN hItem;
;;;1070   //            WM_InvalidateWindow(hWincdc);
;;;1071               hItem = WM_GetDialogItem(hWincdc, ID_TEXT_60);
000154  4659              MOV      r1,r11
000156  f7fffffe          BL       WM_GetDialogItem
00015a  4604              MOV      r4,r0
;;;1072               TEXT_SetBkColor(hItem,GUI_INVALID_COLOR);//选项背景色设为透明
00015c  f06f4170          MVN      r1,#0xf0000000
000160  f7fffffe          BL       TEXT_SetBkColor
;;;1073               TEXT_SetTextColor(hItem, GUI_WHITE);
000164  f06f417f          MVN      r1,#0xff000000
000168  4620              MOV      r0,r4
00016a  f7fffffe          BL       TEXT_SetTextColor
;;;1074                  
;;;1075               hItem = WM_GetDialogItem(hWincdc, ID_TEXT_53);
00016e  f6400172          MOV      r1,#0x872
000172  f8d80018          LDR      r0,[r8,#0x18]  ; hWincdc
000176  f7fffffe          BL       WM_GetDialogItem
00017a  4604              MOV      r4,r0
;;;1076               TEXT_SetBkColor(hItem,0x00BFFFFF);//选项背景色设为米色
00017c  4915              LDR      r1,|L1.468|
00017e  f7fffffe          BL       TEXT_SetBkColor
;;;1077               TEXT_SetTextColor(hItem, GUI_BLACK);
000182  2100              MOVS     r1,#0
000184  4620              MOV      r0,r4
000186  f7fffffe          BL       TEXT_SetTextColor
;;;1078   
;;;1079               set_sw = set_37;
00018a  2024              MOVS     r0,#0x24
;;;1080               break;
00018c  e01b              B        |L1.454|
;;;1081           }
;;;1082   //         case set_36:
;;;1083   //         {
;;;1084   //             WM_HWIN hItem;
;;;1085   //             WM_InvalidateWindow(hWincdc);
;;;1086   //             hItem = WM_GetDialogItem(hWincdc, ID_TEXT_61);
;;;1087   //             TEXT_SetBkColor(hItem,GUI_INVALID_COLOR);//选项背景色设为透明
;;;1088   //                
;;;1089   //             hItem = WM_GetDialogItem(hWincdc, ID_TEXT_53);
;;;1090   //             TEXT_SetBkColor(hItem,0x00BFFFFF);//选项背景色设为米色
;;;1091   
;;;1092   //             set_sw = set_37;
;;;1093   //             break;
;;;1094   //         }
;;;1095           case set_37:
;;;1096           {
;;;1097               WM_HWIN hItem;
;;;1098   //            WM_InvalidateWindow(hWincdc);
;;;1099               hItem = WM_GetDialogItem(hWincdc, ID_TEXT_53);
00018e  f6400172          MOV      r1,#0x872
000192  f7fffffe          BL       WM_GetDialogItem
000196  4606              MOV      r6,r0
;;;1100               TEXT_SetBkColor(hItem,GUI_INVALID_COLOR);//选项背景色设为透明
000198  f06f4170          MVN      r1,#0xf0000000
00019c  f7fffffe          BL       TEXT_SetBkColor
;;;1101               TEXT_SetTextColor(hItem, GUI_WHITE);
0001a0  f06f417f          MVN      r1,#0xff000000
0001a4  4630              MOV      r0,r6
0001a6  f7fffffe          BL       TEXT_SetTextColor
;;;1102                  
;;;1103               hItem = WM_GetDialogItem(hWincdc, ID_TEXT_50);
0001aa  4621              MOV      r1,r4
0001ac  f8d80018          LDR      r0,[r8,#0x18]  ; hWincdc
0001b0  f7fffffe          BL       WM_GetDialogItem
0001b4  4604              MOV      r4,r0
;;;1104               TEXT_SetBkColor(hItem,0x00BFFFFF);//选项背景色设为米色
0001b6  4907              LDR      r1,|L1.468|
0001b8  f7fffffe          BL       TEXT_SetBkColor
;;;1105               TEXT_SetTextColor(hItem, GUI_BLACK);
0001bc  2100              MOVS     r1,#0
0001be  4620              MOV      r0,r4
0001c0  f7fffffe          BL       TEXT_SetTextColor
;;;1106   
;;;1107               set_sw = set_26;
0001c4  2019              MOVS     r0,#0x19
                  |L1.454|
0001c6  7028              STRB     r0,[r5,#0]
                  |L1.456|
;;;1108               break;
;;;1109           }
;;;1110           default: break;
;;;1111       }
;;;1112   }
0001c8  e8bd9ff0          POP      {r4-r12,pc}
;;;1113   
                          ENDP

                  |L1.460|
                          DCD      set_sw
                  |L1.464|
                          DCD      ||.data||
                  |L1.468|
                          DCD      0x00bfffff

                          AREA ||i.CDC_OP_LEFT||, CODE, READONLY, ALIGN=2

                          REQUIRE _printf_percent
                          REQUIRE _printf_widthprec
                          REQUIRE _printf_f
                          REQUIRE _printf_fp_dec
                  CDC_OP_LEFT PROC
;;;1241   
;;;1242   void CDC_OP_LEFT(void)
000000  b5f0              PUSH     {r4-r7,lr}
;;;1243   {
;;;1244       float buffer;
;;;1245       char buf[5];
;;;1246       WM_HWIN hItem;
;;;1247       switch(set_sw)
000002  48b2              LDR      r0,|L2.716|
000004  ed2d8b02          VPUSH    {d8}                  ;1243
000008  b083              SUB      sp,sp,#0xc            ;1243
00000a  7802              LDRB     r2,[r0,#0]  ; set_sw
;;;1248       {
;;;1249           case set_26:
;;;1250           {
;;;1251               
;;;1252               if(pow_step == step2)
;;;1253               {
;;;1254                   buffer = (float)opv1/100;
00000c  49b0              LDR      r1,|L2.720|
00000e  ed9f0ab1          VLDR     s0,|L2.724|
000012  4eb1              LDR      r6,|L2.728|
;;;1255                   hItem = WM_GetDialogItem(hWincdc, ID_TEXT_50);
;;;1256                   TEXT_SetText(hItem,"输出电压1");
;;;1257                   hItem = WM_GetDialogItem(hWincdc, ID_TEXT_54);
;;;1258                   sprintf(buf,"%.2f",buffer);
;;;1259                   TEXT_SetText(hItem,buf);
;;;1260                   pow_step = step1;
000014  2500              MOVS     r5,#0
;;;1261               }else if(pow_step == step3){
;;;1262                   buffer = (float)opv2/100;
;;;1263                   hItem = WM_GetDialogItem(hWincdc, ID_TEXT_50);
;;;1264                   TEXT_SetText(hItem,"输出电压2");
;;;1265                   hItem = WM_GetDialogItem(hWincdc, ID_TEXT_54);
;;;1266                   sprintf(buf,"%.2f",buffer);
;;;1267                   TEXT_SetText(hItem,buf);
;;;1268                   pow_step = step2;
000016  2701              MOVS     r7,#1
000018  69b0              LDR      r0,[r6,#0x18]         ;1247
00001a  2a19              CMP      r2,#0x19              ;1247
00001c  d038              BEQ      |L2.144|
;;;1269               }
;;;1270           }break;
;;;1271           case set_27:
;;;1272           {
;;;1273               if(cur_step == step3)
;;;1274               {
;;;1275                   buffer = (float)opc2/1000;
00001e  eddf0aaf          VLDR     s1,|L2.732|
000022  2a1a              CMP      r2,#0x1a              ;1247
000024  d07e              BEQ      |L2.292|
;;;1276                   hItem = WM_GetDialogItem(hWincdc, ID_TEXT_51);
;;;1277                   TEXT_SetText(hItem,"限制电流2");
;;;1278                   hItem = WM_GetDialogItem(hWincdc, ID_TEXT_55);
;;;1279                   sprintf(buf,"%.3f",buffer);
;;;1280                   TEXT_SetText(hItem,buf);
;;;1281                   
;;;1282                   cur_step = step2;
;;;1283               }else if(cur_step == step2){
;;;1284                   buffer = (float)opc1/1000;
;;;1285                   hItem = WM_GetDialogItem(hWincdc, ID_TEXT_51);
;;;1286                   TEXT_SetText(hItem,"限制电流1");
;;;1287                   hItem = WM_GetDialogItem(hWincdc, ID_TEXT_55);
;;;1288                   sprintf(buf,"%.3f",buffer);
;;;1289                   TEXT_SetText(hItem,buf);
;;;1290                   cur_step = step1;
;;;1291               }
;;;1292           }break;
;;;1293           case set_28:
;;;1294           {
;;;1295               
;;;1296               if(coffv_step == step3)
;;;1297               {
;;;1298                   buffer = (float)cov2/100;
000026  49ae              LDR      r1,|L2.736|
000028  2a1b              CMP      r2,#0x1b              ;1247
00002a  d07c              BEQ      |L2.294|
00002c  2a1c              CMP      r2,#0x1c              ;1247
00002e  d12b              BNE      |L2.136|
;;;1299                   hItem = WM_GetDialogItem(hWincdc, ID_TEXT_58);
;;;1300                   TEXT_SetText(hItem,"截止电压2");
;;;1301                   hItem = WM_GetDialogItem(hWincdc, ID_TEXT_62);
;;;1302                   sprintf(buf,"%.2f",buffer);
;;;1303                   TEXT_SetText(hItem,buf);
;;;1304                   coffv_step = step2;
;;;1305               }else if(coffv_step == step2){
;;;1306                   buffer = (float)cov1/100;
;;;1307                   hItem = WM_GetDialogItem(hWincdc, ID_TEXT_58);
;;;1308                   TEXT_SetText(hItem,"截止电压1");
;;;1309                   hItem = WM_GetDialogItem(hWincdc, ID_TEXT_62);
;;;1310                   sprintf(buf,"%.2f",buffer);
;;;1311                   TEXT_SetText(hItem,buf);
;;;1312                   coffv_step = step1;
;;;1313               }
;;;1314           }break;
;;;1315           case set_29:
;;;1316           {
;;;1317               
;;;1318               if(coffc_step == step3)
000030  7bb3              LDRB     r3,[r6,#0xe]  ; coffc_step
;;;1319               {
;;;1320                   buffer = (float)coc2/1000;
;;;1321                   hItem = WM_GetDialogItem(hWincdc, ID_TEXT_59);
000032  f6400278          MOV      r2,#0x878
;;;1322                   TEXT_SetText(hItem,"截止电流2");
;;;1323                   hItem = WM_GetDialogItem(hWincdc, ID_TEXT_63);
000036  1d14              ADDS     r4,r2,#4
000038  2b02              CMP      r3,#2                 ;1318
00003a  d075              BEQ      |L2.296|
;;;1324                   sprintf(buf,"%.3f",buffer);
;;;1325                   TEXT_SetText(hItem,buf);
;;;1326                   coffc_step = step2;
;;;1327               }else if(coffc_step == step2){
00003c  7bb3              LDRB     r3,[r6,#0xe]  ; coffc_step
00003e  2b01              CMP      r3,#1
000040  d122              BNE      |L2.136|
;;;1328                   buffer = (float)coc1/1000;
000042  88c9              LDRH     r1,[r1,#6]  ; coff
000044  ee001a10          VMOV     s0,r1
;;;1329                   hItem = WM_GetDialogItem(hWincdc, ID_TEXT_59);
000048  4611              MOV      r1,r2
00004a  eeb80a40          VCVT.F32.U32 s0,s0                 ;1328
00004e  ee808a20          VDIV.F32 s16,s0,s1             ;1328
000052  f7fffffe          BL       WM_GetDialogItem
;;;1330                   TEXT_SetText(hItem,"截止电流1");
000056  a1a3              ADR      r1,|L2.740|
000058  f7fffffe          BL       TEXT_SetText
;;;1331                   hItem = WM_GetDialogItem(hWincdc, ID_TEXT_63);
00005c  4621              MOV      r1,r4
00005e  69b0              LDR      r0,[r6,#0x18]  ; hWincdc
000060  f7fffffe          BL       WM_GetDialogItem
000064  4604              MOV      r4,r0
;;;1332                   sprintf(buf,"%.3f",buffer);
000066  ee180a10          VMOV     r0,s16
00006a  f7fffffe          BL       __aeabi_f2d
00006e  ec410b10          VMOV     d0,r0,r1
000072  a1a0              ADR      r1,|L2.756|
000074  ec532b10          VMOV     r2,r3,d0
000078  4668              MOV      r0,sp
00007a  f7fffffe          BL       __2sprintf
;;;1333                   TEXT_SetText(hItem,buf);
00007e  4669              MOV      r1,sp
000080  4620              MOV      r0,r4
000082  f7fffffe          BL       TEXT_SetText
;;;1334                   coffc_step = step1;
000086  73b5              STRB     r5,[r6,#0xe]
                  |L2.136|
;;;1335               }
;;;1336           }break;
;;;1337       }
;;;1338   }
000088  b003              ADD      sp,sp,#0xc
00008a  ecbd8b02          VPOP     {d8}
00008e  bdf0              POP      {r4-r7,pc}
                  |L2.144|
000090  7af3              LDRB     r3,[r6,#0xb]          ;1252  ; pow_step
000092  f640026f          MOV      r2,#0x86f             ;1255
000096  1d14              ADDS     r4,r2,#4              ;1257
000098  2b01              CMP      r3,#1                 ;1252
00009a  d027              BEQ      |L2.236|
00009c  7af3              LDRB     r3,[r6,#0xb]          ;1261  ; pow_step
00009e  2b02              CMP      r3,#2                 ;1261
0000a0  d1f2              BNE      |L2.136|
0000a2  f8d11080          LDR      r1,[r1,#0x80]         ;1262  ; Run_Control
0000a6  ee001a90          VMOV     s1,r1                 ;1262
0000aa  4611              MOV      r1,r2                 ;1263
0000ac  eef80a60          VCVT.F32.U32 s1,s1                 ;1262
0000b0  ee808a80          VDIV.F32 s16,s1,s0             ;1262
0000b4  f7fffffe          BL       WM_GetDialogItem
0000b8  a190              ADR      r1,|L2.764|
0000ba  f7fffffe          BL       TEXT_SetText
0000be  4621              MOV      r1,r4                 ;1265
0000c0  69b0              LDR      r0,[r6,#0x18]         ;1265  ; hWincdc
0000c2  f7fffffe          BL       WM_GetDialogItem
0000c6  4604              MOV      r4,r0                 ;1265
0000c8  ee180a10          VMOV     r0,s16                ;1266
0000cc  f7fffffe          BL       __aeabi_f2d
0000d0  ec410b10          VMOV     d0,r0,r1              ;1266
0000d4  a18d              ADR      r1,|L2.780|
0000d6  ec532b10          VMOV     r2,r3,d0              ;1266
0000da  4668              MOV      r0,sp                 ;1266
0000dc  f7fffffe          BL       __2sprintf
0000e0  4669              MOV      r1,sp                 ;1267
0000e2  4620              MOV      r0,r4                 ;1267
0000e4  f7fffffe          BL       TEXT_SetText
0000e8  72f7              STRB     r7,[r6,#0xb]          ;1268
0000ea  e7cd              B        |L2.136|
                  |L2.236|
0000ec  6fc9              LDR      r1,[r1,#0x7c]         ;1254  ; Run_Control
0000ee  ee001a90          VMOV     s1,r1                 ;1254
0000f2  4611              MOV      r1,r2                 ;1255
0000f4  eef80a60          VCVT.F32.U32 s1,s1                 ;1254
0000f8  ee808a80          VDIV.F32 s16,s1,s0             ;1254
0000fc  f7fffffe          BL       WM_GetDialogItem
000100  a184              ADR      r1,|L2.788|
000102  f7fffffe          BL       TEXT_SetText
000106  4621              MOV      r1,r4                 ;1257
000108  69b0              LDR      r0,[r6,#0x18]         ;1257  ; hWincdc
00010a  f7fffffe          BL       WM_GetDialogItem
00010e  4604              MOV      r4,r0                 ;1257
000110  ee180a10          VMOV     r0,s16                ;1258
000114  f7fffffe          BL       __aeabi_f2d
000118  ec410b10          VMOV     d0,r0,r1              ;1258
00011c  a17b              ADR      r1,|L2.780|
00011e  ec532b10          VMOV     r2,r3,d0              ;1258
000122  e002              B        |L2.298|
                  |L2.292|
000124  e00a              B        |L2.316|
                  |L2.294|
000126  e05c              B        |L2.482|
                  |L2.296|
000128  e0ac              B        |L2.644|
                  |L2.298|
00012a  4668              MOV      r0,sp                 ;1258
00012c  f7fffffe          BL       __2sprintf
000130  4669              MOV      r1,sp                 ;1259
000132  4620              MOV      r0,r4                 ;1259
000134  f7fffffe          BL       TEXT_SetText
000138  72f5              STRB     r5,[r6,#0xb]          ;1260
                  |L2.314|
00013a  e7a5              B        |L2.136|
                  |L2.316|
00013c  7b33              LDRB     r3,[r6,#0xc]          ;1273  ; cur_step
00013e  f44f6207          MOV      r2,#0x870             ;1276
000142  1d14              ADDS     r4,r2,#4              ;1278
000144  2b02              CMP      r3,#2                 ;1273
000146  d027              BEQ      |L2.408|
000148  7b33              LDRB     r3,[r6,#0xc]          ;1283  ; cur_step
00014a  2b01              CMP      r3,#1                 ;1283
00014c  d19c              BNE      |L2.136|
00014e  f8d11088          LDR      r1,[r1,#0x88]         ;1284  ; Run_Control
000152  ee001a10          VMOV     s0,r1                 ;1284
000156  4611              MOV      r1,r2                 ;1285
000158  eeb80a40          VCVT.F32.U32 s0,s0                 ;1284
00015c  ee808a20          VDIV.F32 s16,s0,s1             ;1284
000160  f7fffffe          BL       WM_GetDialogItem
000164  a16f              ADR      r1,|L2.804|
000166  f7fffffe          BL       TEXT_SetText
00016a  4621              MOV      r1,r4                 ;1287
00016c  69b0              LDR      r0,[r6,#0x18]         ;1287  ; hWincdc
00016e  f7fffffe          BL       WM_GetDialogItem
000172  4604              MOV      r4,r0                 ;1287
000174  ee180a10          VMOV     r0,s16                ;1288
000178  f7fffffe          BL       __aeabi_f2d
00017c  ec410b10          VMOV     d0,r0,r1              ;1288
000180  a15c              ADR      r1,|L2.756|
000182  ec532b10          VMOV     r2,r3,d0              ;1288
000186  4668              MOV      r0,sp                 ;1288
000188  f7fffffe          BL       __2sprintf
00018c  4669              MOV      r1,sp                 ;1289
00018e  4620              MOV      r0,r4                 ;1289
000190  f7fffffe          BL       TEXT_SetText
000194  7335              STRB     r5,[r6,#0xc]          ;1290
000196  e777              B        |L2.136|
                  |L2.408|
000198  f8d1108c          LDR      r1,[r1,#0x8c]         ;1275  ; Run_Control
00019c  ee001a10          VMOV     s0,r1                 ;1275
0001a0  4611              MOV      r1,r2                 ;1276
0001a2  eeb80a40          VCVT.F32.U32 s0,s0                 ;1275
0001a6  ee808a20          VDIV.F32 s16,s0,s1             ;1275
0001aa  f7fffffe          BL       WM_GetDialogItem
0001ae  a161              ADR      r1,|L2.820|
0001b0  f7fffffe          BL       TEXT_SetText
0001b4  4621              MOV      r1,r4                 ;1278
0001b6  69b0              LDR      r0,[r6,#0x18]         ;1278  ; hWincdc
0001b8  f7fffffe          BL       WM_GetDialogItem
0001bc  4604              MOV      r4,r0                 ;1278
0001be  ee180a10          VMOV     r0,s16                ;1279
0001c2  f7fffffe          BL       __aeabi_f2d
0001c6  ec410b10          VMOV     d0,r0,r1              ;1279
0001ca  a14a              ADR      r1,|L2.756|
0001cc  ec532b10          VMOV     r2,r3,d0              ;1279
0001d0  4668              MOV      r0,sp                 ;1279
0001d2  f7fffffe          BL       __2sprintf
0001d6  4669              MOV      r1,sp                 ;1280
0001d8  4620              MOV      r0,r4                 ;1280
0001da  f7fffffe          BL       TEXT_SetText
0001de  7337              STRB     r7,[r6,#0xc]          ;1282
0001e0  e752              B        |L2.136|
                  |L2.482|
0001e2  7b73              LDRB     r3,[r6,#0xd]          ;1296  ; coffv_step
0001e4  f6400277          MOV      r2,#0x877             ;1299
0001e8  1d14              ADDS     r4,r2,#4              ;1301
0001ea  2b02              CMP      r3,#2                 ;1296
0001ec  d026              BEQ      |L2.572|
0001ee  7b73              LDRB     r3,[r6,#0xd]          ;1305  ; coffv_step
0001f0  2b01              CMP      r3,#1                 ;1305
0001f2  d1a2              BNE      |L2.314|
0001f4  8809              LDRH     r1,[r1,#0]            ;1306  ; coff
0001f6  ee001a90          VMOV     s1,r1                 ;1306
0001fa  4611              MOV      r1,r2                 ;1307
0001fc  eef80a60          VCVT.F32.U32 s1,s1                 ;1306
000200  ee808a80          VDIV.F32 s16,s1,s0             ;1306
000204  f7fffffe          BL       WM_GetDialogItem
000208  a14e              ADR      r1,|L2.836|
00020a  f7fffffe          BL       TEXT_SetText
00020e  4621              MOV      r1,r4                 ;1309
000210  69b0              LDR      r0,[r6,#0x18]         ;1309  ; hWincdc
000212  f7fffffe          BL       WM_GetDialogItem
000216  4604              MOV      r4,r0                 ;1309
000218  ee180a10          VMOV     r0,s16                ;1310
00021c  f7fffffe          BL       __aeabi_f2d
000220  ec410b10          VMOV     d0,r0,r1              ;1310
000224  a139              ADR      r1,|L2.780|
000226  ec532b10          VMOV     r2,r3,d0              ;1310
00022a  4668              MOV      r0,sp                 ;1310
00022c  f7fffffe          BL       __2sprintf
000230  4669              MOV      r1,sp                 ;1311
000232  4620              MOV      r0,r4                 ;1311
000234  f7fffffe          BL       TEXT_SetText
000238  7375              STRB     r5,[r6,#0xd]          ;1312
00023a  e725              B        |L2.136|
                  |L2.572|
00023c  8849              LDRH     r1,[r1,#2]            ;1298  ; coff
00023e  ee001a90          VMOV     s1,r1                 ;1298
000242  4611              MOV      r1,r2                 ;1299
000244  eef80a60          VCVT.F32.U32 s1,s1                 ;1298
000248  ee808a80          VDIV.F32 s16,s1,s0             ;1298
00024c  f7fffffe          BL       WM_GetDialogItem
000250  a140              ADR      r1,|L2.852|
000252  f7fffffe          BL       TEXT_SetText
000256  4621              MOV      r1,r4                 ;1301
000258  69b0              LDR      r0,[r6,#0x18]         ;1301  ; hWincdc
00025a  f7fffffe          BL       WM_GetDialogItem
00025e  4604              MOV      r4,r0                 ;1301
000260  ee180a10          VMOV     r0,s16                ;1302
000264  f7fffffe          BL       __aeabi_f2d
000268  ec410b10          VMOV     d0,r0,r1              ;1302
00026c  a127              ADR      r1,|L2.780|
00026e  ec532b10          VMOV     r2,r3,d0              ;1302
000272  4668              MOV      r0,sp                 ;1302
000274  f7fffffe          BL       __2sprintf
000278  4669              MOV      r1,sp                 ;1303
00027a  4620              MOV      r0,r4                 ;1303
00027c  f7fffffe          BL       TEXT_SetText
000280  7377              STRB     r7,[r6,#0xd]          ;1304
000282  e701              B        |L2.136|
                  |L2.644|
000284  8909              LDRH     r1,[r1,#8]            ;1320  ; coff
000286  ee001a10          VMOV     s0,r1                 ;1320
00028a  4611              MOV      r1,r2                 ;1321
00028c  eeb80a40          VCVT.F32.U32 s0,s0                 ;1320
000290  ee808a20          VDIV.F32 s16,s0,s1             ;1320
000294  f7fffffe          BL       WM_GetDialogItem
000298  a132              ADR      r1,|L2.868|
00029a  f7fffffe          BL       TEXT_SetText
00029e  4621              MOV      r1,r4                 ;1323
0002a0  69b0              LDR      r0,[r6,#0x18]         ;1323  ; hWincdc
0002a2  f7fffffe          BL       WM_GetDialogItem
0002a6  4604              MOV      r4,r0                 ;1323
0002a8  ee180a10          VMOV     r0,s16                ;1324
0002ac  f7fffffe          BL       __aeabi_f2d
0002b0  ec410b10          VMOV     d0,r0,r1              ;1324
0002b4  a10f              ADR      r1,|L2.756|
0002b6  ec532b10          VMOV     r2,r3,d0              ;1324
0002ba  4668              MOV      r0,sp                 ;1324
0002bc  f7fffffe          BL       __2sprintf
0002c0  4669              MOV      r1,sp                 ;1325
0002c2  4620              MOV      r0,r4                 ;1325
0002c4  f7fffffe          BL       TEXT_SetText
0002c8  73b7              STRB     r7,[r6,#0xe]          ;1326
0002ca  e6dd              B        |L2.136|
;;;1339   
                          ENDP

                  |L2.716|
                          DCD      set_sw
                  |L2.720|
                          DCD      Run_Control
                  |L2.724|
0002d4  42c80000          DCFS     0x42c80000 ; 100
                  |L2.728|
                          DCD      ||.data||
                  |L2.732|
0002dc  447a0000          DCFS     0x447a0000 ; 1000
                  |L2.736|
                          DCD      ||.bss||
                  |L2.740|
0002e4  e688aae6          DCB      230,136,170,230,173,162,231,148,181,230,181,129,"1",0
0002e8  ada2e794
0002ec  b5e6b581
0002f0  3100    
0002f2  00                DCB      0
0002f3  00                DCB      0
                  |L2.756|
0002f4  252e3366          DCB      "%.3f",0
0002f8  00      
0002f9  00                DCB      0
0002fa  00                DCB      0
0002fb  00                DCB      0
                  |L2.764|
0002fc  e8be93e5          DCB      232,190,147,229,135,186,231,148,181,229,142,139,"2",0
000300  87bae794
000304  b5e58e8b
000308  3200    
00030a  00                DCB      0
00030b  00                DCB      0
                  |L2.780|
00030c  252e3266          DCB      "%.2f",0
000310  00      
000311  00                DCB      0
000312  00                DCB      0
000313  00                DCB      0
                  |L2.788|
000314  e8be93e5          DCB      232,190,147,229,135,186,231,148,181,229,142,139,"1",0
000318  87bae794
00031c  b5e58e8b
000320  3100    
000322  00                DCB      0
000323  00                DCB      0
                  |L2.804|
000324  e99990e5          DCB      233,153,144,229,136,182,231,148,181,230,181,129,"1",0
000328  88b6e794
00032c  b5e6b581
000330  3100    
000332  00                DCB      0
000333  00                DCB      0
                  |L2.820|
000334  e99990e5          DCB      233,153,144,229,136,182,231,148,181,230,181,129,"2",0
000338  88b6e794
00033c  b5e6b581
000340  3200    
000342  00                DCB      0
000343  00                DCB      0
                  |L2.836|
000344  e688aae6          DCB      230,136,170,230,173,162,231,148,181,229,142,139,"1",0
000348  ada2e794
00034c  b5e58e8b
000350  3100    
000352  00                DCB      0
000353  00                DCB      0
                  |L2.852|
000354  e688aae6          DCB      230,136,170,230,173,162,231,148,181,229,142,139,"2",0
000358  ada2e794
00035c  b5e58e8b
000360  3200    
000362  00                DCB      0
000363  00                DCB      0
                  |L2.868|
000364  e688aae6          DCB      230,136,170,230,173,162,231,148,181,230,181,129,"2",0
000368  ada2e794
00036c  b5e6b581
000370  3200    
000372  00                DCB      0
000373  00                DCB      0

                          AREA ||i.CDC_OP_RIGHT||, CODE, READONLY, ALIGN=2

                          REQUIRE _printf_percent
                          REQUIRE _printf_widthprec
                          REQUIRE _printf_f
                          REQUIRE _printf_fp_dec
                  CDC_OP_RIGHT PROC
;;;1340   
;;;1341   void CDC_OP_RIGHT(void)
000000  b5f0              PUSH     {r4-r7,lr}
;;;1342   {
;;;1343       float buffer;
;;;1344       char buf[5];
;;;1345       WM_HWIN hItem;
;;;1346       switch(set_sw)
000002  48b1              LDR      r0,|L3.712|
000004  ed2d8b02          VPUSH    {d8}                  ;1342
000008  b083              SUB      sp,sp,#0xc            ;1342
00000a  7802              LDRB     r2,[r0,#0]  ; set_sw
;;;1347       {
;;;1348           case set_26:
;;;1349           {
;;;1350               
;;;1351               if(pow_step == step1)
;;;1352               {
;;;1353                   buffer = (float)opv2/100;
00000c  49af              LDR      r1,|L3.716|
00000e  ed9f0ab0          VLDR     s0,|L3.720|
000012  4eb0              LDR      r6,|L3.724|
;;;1354                   hItem = WM_GetDialogItem(hWincdc, ID_TEXT_50);
;;;1355                   TEXT_SetText(hItem,"输出电压2");
;;;1356                   hItem = WM_GetDialogItem(hWincdc, ID_TEXT_54);
;;;1357                   sprintf(buf,"%.2f",buffer);
;;;1358                   TEXT_SetText(hItem,buf);
;;;1359                   pow_step = step2;
000014  2501              MOVS     r5,#1
;;;1360               }else if(pow_step == step2){
;;;1361                   buffer = (float)opv3/100;
;;;1362                   hItem = WM_GetDialogItem(hWincdc, ID_TEXT_50);
;;;1363                   TEXT_SetText(hItem,"输出电压3");
;;;1364                   hItem = WM_GetDialogItem(hWincdc, ID_TEXT_54);
;;;1365                   sprintf(buf,"%.2f",buffer);
;;;1366                   TEXT_SetText(hItem,buf);
;;;1367                   pow_step = step3;
000016  2702              MOVS     r7,#2
000018  69b0              LDR      r0,[r6,#0x18]         ;1346
00001a  2a19              CMP      r2,#0x19              ;1346
00001c  d038              BEQ      |L3.144|
;;;1368               }
;;;1369           }break;
;;;1370           case set_27:
;;;1371           {
;;;1372               
;;;1373               if(cur_step == step1)
;;;1374               {
;;;1375                   buffer = (float)opc2/1000;
00001e  eddf0aae          VLDR     s1,|L3.728|
000022  2a1a              CMP      r2,#0x1a              ;1346
000024  d07e              BEQ      |L3.292|
;;;1376                   hItem = WM_GetDialogItem(hWincdc, ID_TEXT_51);
;;;1377                   TEXT_SetText(hItem,"限制电流2");
;;;1378                   hItem = WM_GetDialogItem(hWincdc, ID_TEXT_55);
;;;1379                   sprintf(buf,"%.3f",buffer);
;;;1380                   TEXT_SetText(hItem,buf);
;;;1381                   cur_step = step2;
;;;1382               }else if(cur_step == step2){
;;;1383                   buffer = (float)opc3/1000;
;;;1384                   hItem = WM_GetDialogItem(hWincdc, ID_TEXT_51);
;;;1385                   TEXT_SetText(hItem,"限制电流3");
;;;1386                   hItem = WM_GetDialogItem(hWincdc, ID_TEXT_55);
;;;1387                   sprintf(buf,"%.3f",buffer);
;;;1388                   TEXT_SetText(hItem,buf);
;;;1389                   cur_step = step3;
;;;1390               }
;;;1391           }break;
;;;1392           case set_28:
;;;1393           {
;;;1394               
;;;1395               if(coffv_step == step1)
;;;1396               {
;;;1397                   buffer = (float)cov2/100;
000026  49ad              LDR      r1,|L3.732|
000028  2a1b              CMP      r2,#0x1b              ;1346
00002a  d07c              BEQ      |L3.294|
00002c  2a1c              CMP      r2,#0x1c              ;1346
00002e  d12b              BNE      |L3.136|
;;;1398                   hItem = WM_GetDialogItem(hWincdc, ID_TEXT_58);
;;;1399                   TEXT_SetText(hItem,"截止电压2");
;;;1400                   hItem = WM_GetDialogItem(hWincdc, ID_TEXT_62);
;;;1401                   sprintf(buf,"%.2f",buffer);
;;;1402                   TEXT_SetText(hItem,buf);
;;;1403                   coffv_step = step2;
;;;1404               }else if(coffv_step == step2){
;;;1405                   buffer = (float)cov3/100;
;;;1406                   hItem = WM_GetDialogItem(hWincdc, ID_TEXT_58);
;;;1407                   TEXT_SetText(hItem,"截止电压3");
;;;1408                   hItem = WM_GetDialogItem(hWincdc, ID_TEXT_62);
;;;1409                   sprintf(buf,"%.2f",buffer);
;;;1410                   TEXT_SetText(hItem,buf);
;;;1411                   coffv_step = step3;
;;;1412               }
;;;1413           }break;
;;;1414           case set_29:
;;;1415           {
;;;1416               
;;;1417               if(coffc_step == step1)
000030  7bb3              LDRB     r3,[r6,#0xe]  ; coffc_step
;;;1418               {
;;;1419                   buffer = (float)coc2/1000;
;;;1420                   hItem = WM_GetDialogItem(hWincdc, ID_TEXT_59);
000032  f6400278          MOV      r2,#0x878
;;;1421                   TEXT_SetText(hItem,"截止电流2");
;;;1422                   hItem = WM_GetDialogItem(hWincdc, ID_TEXT_63);
000036  1d14              ADDS     r4,r2,#4
000038  2b00              CMP      r3,#0                 ;1417
00003a  d075              BEQ      |L3.296|
;;;1423                   sprintf(buf,"%.3f",buffer);
;;;1424                   TEXT_SetText(hItem,buf);
;;;1425                   coffc_step = step2;
;;;1426               }else if(coffc_step == step2){
00003c  7bb3              LDRB     r3,[r6,#0xe]  ; coffc_step
00003e  2b01              CMP      r3,#1
000040  d122              BNE      |L3.136|
;;;1427                   buffer = (float)coc3/1000;
000042  8949              LDRH     r1,[r1,#0xa]  ; coff
000044  ee001a10          VMOV     s0,r1
;;;1428                   hItem = WM_GetDialogItem(hWincdc, ID_TEXT_59);
000048  4611              MOV      r1,r2
00004a  eeb80a40          VCVT.F32.U32 s0,s0                 ;1427
00004e  ee808a20          VDIV.F32 s16,s0,s1             ;1427
000052  f7fffffe          BL       WM_GetDialogItem
;;;1429                   TEXT_SetText(hItem,"截止电流3");
000056  a1a2              ADR      r1,|L3.736|
000058  f7fffffe          BL       TEXT_SetText
;;;1430                   hItem = WM_GetDialogItem(hWincdc, ID_TEXT_63);
00005c  4621              MOV      r1,r4
00005e  69b0              LDR      r0,[r6,#0x18]  ; hWincdc
000060  f7fffffe          BL       WM_GetDialogItem
000064  4604              MOV      r4,r0
;;;1431                   sprintf(buf,"%.3f",buffer);
000066  ee180a10          VMOV     r0,s16
00006a  f7fffffe          BL       __aeabi_f2d
00006e  ec410b10          VMOV     d0,r0,r1
000072  a19f              ADR      r1,|L3.752|
000074  ec532b10          VMOV     r2,r3,d0
000078  4668              MOV      r0,sp
00007a  f7fffffe          BL       __2sprintf
;;;1432                   TEXT_SetText(hItem,buf);
00007e  4669              MOV      r1,sp
000080  4620              MOV      r0,r4
000082  f7fffffe          BL       TEXT_SetText
;;;1433                   coffc_step = step3;
000086  73b7              STRB     r7,[r6,#0xe]
                  |L3.136|
;;;1434               }
;;;1435           }break;
;;;1436       }
;;;1437   }
000088  b003              ADD      sp,sp,#0xc
00008a  ecbd8b02          VPOP     {d8}
00008e  bdf0              POP      {r4-r7,pc}
                  |L3.144|
000090  7af3              LDRB     r3,[r6,#0xb]          ;1351  ; pow_step
000092  f640026f          MOV      r2,#0x86f             ;1354
000096  1d14              ADDS     r4,r2,#4              ;1356
000098  b33b              CBZ      r3,|L3.234|
00009a  7af3              LDRB     r3,[r6,#0xb]          ;1360  ; pow_step
00009c  2b01              CMP      r3,#1                 ;1360
00009e  d1f3              BNE      |L3.136|
0000a0  f8d11084          LDR      r1,[r1,#0x84]         ;1361  ; Run_Control
0000a4  ee001a90          VMOV     s1,r1                 ;1361
0000a8  4611              MOV      r1,r2                 ;1362
0000aa  eef80a60          VCVT.F32.U32 s1,s1                 ;1361
0000ae  ee808a80          VDIV.F32 s16,s1,s0             ;1361
0000b2  f7fffffe          BL       WM_GetDialogItem
0000b6  a190              ADR      r1,|L3.760|
0000b8  f7fffffe          BL       TEXT_SetText
0000bc  4621              MOV      r1,r4                 ;1364
0000be  69b0              LDR      r0,[r6,#0x18]         ;1364  ; hWincdc
0000c0  f7fffffe          BL       WM_GetDialogItem
0000c4  4604              MOV      r4,r0                 ;1364
0000c6  ee180a10          VMOV     r0,s16                ;1365
0000ca  f7fffffe          BL       __aeabi_f2d
0000ce  ec410b10          VMOV     d0,r0,r1              ;1365
0000d2  a18d              ADR      r1,|L3.776|
0000d4  ec532b10          VMOV     r2,r3,d0              ;1365
0000d8  4668              MOV      r0,sp                 ;1365
0000da  f7fffffe          BL       __2sprintf
0000de  4669              MOV      r1,sp                 ;1366
0000e0  4620              MOV      r0,r4                 ;1366
0000e2  f7fffffe          BL       TEXT_SetText
0000e6  72f7              STRB     r7,[r6,#0xb]          ;1367
0000e8  e7ce              B        |L3.136|
                  |L3.234|
0000ea  f8d11080          LDR      r1,[r1,#0x80]         ;1353  ; Run_Control
0000ee  ee001a90          VMOV     s1,r1                 ;1353
0000f2  4611              MOV      r1,r2                 ;1354
0000f4  eef80a60          VCVT.F32.U32 s1,s1                 ;1353
0000f8  ee808a80          VDIV.F32 s16,s1,s0             ;1353
0000fc  f7fffffe          BL       WM_GetDialogItem
000100  a183              ADR      r1,|L3.784|
000102  f7fffffe          BL       TEXT_SetText
000106  4621              MOV      r1,r4                 ;1356
000108  69b0              LDR      r0,[r6,#0x18]         ;1356  ; hWincdc
00010a  f7fffffe          BL       WM_GetDialogItem
00010e  4604              MOV      r4,r0                 ;1356
000110  ee180a10          VMOV     r0,s16                ;1357
000114  f7fffffe          BL       __aeabi_f2d
000118  ec410b10          VMOV     d0,r0,r1              ;1357
00011c  a17a              ADR      r1,|L3.776|
00011e  ec532b10          VMOV     r2,r3,d0              ;1357
000122  e002              B        |L3.298|
                  |L3.292|
000124  e00a              B        |L3.316|
                  |L3.294|
000126  e05b              B        |L3.480|
                  |L3.296|
000128  e0aa              B        |L3.640|
                  |L3.298|
00012a  4668              MOV      r0,sp                 ;1357
00012c  f7fffffe          BL       __2sprintf
000130  4669              MOV      r1,sp                 ;1358
000132  4620              MOV      r0,r4                 ;1358
000134  f7fffffe          BL       TEXT_SetText
000138  72f5              STRB     r5,[r6,#0xb]          ;1359
                  |L3.314|
00013a  e7a5              B        |L3.136|
                  |L3.316|
00013c  7b33              LDRB     r3,[r6,#0xc]          ;1373  ; cur_step
00013e  f44f6207          MOV      r2,#0x870             ;1376
000142  1d14              ADDS     r4,r2,#4              ;1378
000144  b33b              CBZ      r3,|L3.406|
000146  7b33              LDRB     r3,[r6,#0xc]          ;1382  ; cur_step
000148  2b01              CMP      r3,#1                 ;1382
00014a  d19d              BNE      |L3.136|
00014c  f8d11090          LDR      r1,[r1,#0x90]         ;1383  ; Run_Control
000150  ee001a10          VMOV     s0,r1                 ;1383
000154  4611              MOV      r1,r2                 ;1384
000156  eeb80a40          VCVT.F32.U32 s0,s0                 ;1383
00015a  ee808a20          VDIV.F32 s16,s0,s1             ;1383
00015e  f7fffffe          BL       WM_GetDialogItem
000162  a16f              ADR      r1,|L3.800|
000164  f7fffffe          BL       TEXT_SetText
000168  4621              MOV      r1,r4                 ;1386
00016a  69b0              LDR      r0,[r6,#0x18]         ;1386  ; hWincdc
00016c  f7fffffe          BL       WM_GetDialogItem
000170  4604              MOV      r4,r0                 ;1386
000172  ee180a10          VMOV     r0,s16                ;1387
000176  f7fffffe          BL       __aeabi_f2d
00017a  ec410b10          VMOV     d0,r0,r1              ;1387
00017e  a15c              ADR      r1,|L3.752|
000180  ec532b10          VMOV     r2,r3,d0              ;1387
000184  4668              MOV      r0,sp                 ;1387
000186  f7fffffe          BL       __2sprintf
00018a  4669              MOV      r1,sp                 ;1388
00018c  4620              MOV      r0,r4                 ;1388
00018e  f7fffffe          BL       TEXT_SetText
000192  7337              STRB     r7,[r6,#0xc]          ;1389
000194  e778              B        |L3.136|
                  |L3.406|
000196  f8d1108c          LDR      r1,[r1,#0x8c]         ;1375  ; Run_Control
00019a  ee001a10          VMOV     s0,r1                 ;1375
00019e  4611              MOV      r1,r2                 ;1376
0001a0  eeb80a40          VCVT.F32.U32 s0,s0                 ;1375
0001a4  ee808a20          VDIV.F32 s16,s0,s1             ;1375
0001a8  f7fffffe          BL       WM_GetDialogItem
0001ac  a160              ADR      r1,|L3.816|
0001ae  f7fffffe          BL       TEXT_SetText
0001b2  4621              MOV      r1,r4                 ;1378
0001b4  69b0              LDR      r0,[r6,#0x18]         ;1378  ; hWincdc
0001b6  f7fffffe          BL       WM_GetDialogItem
0001ba  4604              MOV      r4,r0                 ;1378
0001bc  ee180a10          VMOV     r0,s16                ;1379
0001c0  f7fffffe          BL       __aeabi_f2d
0001c4  ec410b10          VMOV     d0,r0,r1              ;1379
0001c8  a149              ADR      r1,|L3.752|
0001ca  ec532b10          VMOV     r2,r3,d0              ;1379
0001ce  4668              MOV      r0,sp                 ;1379
0001d0  f7fffffe          BL       __2sprintf
0001d4  4669              MOV      r1,sp                 ;1380
0001d6  4620              MOV      r0,r4                 ;1380
0001d8  f7fffffe          BL       TEXT_SetText
0001dc  7335              STRB     r5,[r6,#0xc]          ;1381
0001de  e753              B        |L3.136|
                  |L3.480|
0001e0  7b73              LDRB     r3,[r6,#0xd]          ;1395  ; coffv_step
0001e2  f6400277          MOV      r2,#0x877             ;1398
0001e6  1d14              ADDS     r4,r2,#4              ;1400
0001e8  b333              CBZ      r3,|L3.568|
0001ea  7b73              LDRB     r3,[r6,#0xd]          ;1404  ; coffv_step
0001ec  2b01              CMP      r3,#1                 ;1404
0001ee  d1a4              BNE      |L3.314|
0001f0  8889              LDRH     r1,[r1,#4]            ;1405  ; coff
0001f2  ee001a90          VMOV     s1,r1                 ;1405
0001f6  4611              MOV      r1,r2                 ;1406
0001f8  eef80a60          VCVT.F32.U32 s1,s1                 ;1405
0001fc  ee808a80          VDIV.F32 s16,s1,s0             ;1405
000200  f7fffffe          BL       WM_GetDialogItem
000204  a14e              ADR      r1,|L3.832|
000206  f7fffffe          BL       TEXT_SetText
00020a  4621              MOV      r1,r4                 ;1408
00020c  69b0              LDR      r0,[r6,#0x18]         ;1408  ; hWincdc
00020e  f7fffffe          BL       WM_GetDialogItem
000212  4604              MOV      r4,r0                 ;1408
000214  ee180a10          VMOV     r0,s16                ;1409
000218  f7fffffe          BL       __aeabi_f2d
00021c  ec410b10          VMOV     d0,r0,r1              ;1409
000220  a139              ADR      r1,|L3.776|
000222  ec532b10          VMOV     r2,r3,d0              ;1409
000226  4668              MOV      r0,sp                 ;1409
000228  f7fffffe          BL       __2sprintf
00022c  4669              MOV      r1,sp                 ;1410
00022e  4620              MOV      r0,r4                 ;1410
000230  f7fffffe          BL       TEXT_SetText
000234  7377              STRB     r7,[r6,#0xd]          ;1411
000236  e727              B        |L3.136|
                  |L3.568|
000238  8849              LDRH     r1,[r1,#2]            ;1397  ; coff
00023a  ee001a90          VMOV     s1,r1                 ;1397
00023e  4611              MOV      r1,r2                 ;1398
000240  eef80a60          VCVT.F32.U32 s1,s1                 ;1397
000244  ee808a80          VDIV.F32 s16,s1,s0             ;1397
000248  f7fffffe          BL       WM_GetDialogItem
00024c  a140              ADR      r1,|L3.848|
00024e  f7fffffe          BL       TEXT_SetText
000252  4621              MOV      r1,r4                 ;1400
000254  69b0              LDR      r0,[r6,#0x18]         ;1400  ; hWincdc
000256  f7fffffe          BL       WM_GetDialogItem
00025a  4604              MOV      r4,r0                 ;1400
00025c  ee180a10          VMOV     r0,s16                ;1401
000260  f7fffffe          BL       __aeabi_f2d
000264  ec410b10          VMOV     d0,r0,r1              ;1401
000268  a127              ADR      r1,|L3.776|
00026a  ec532b10          VMOV     r2,r3,d0              ;1401
00026e  4668              MOV      r0,sp                 ;1401
000270  f7fffffe          BL       __2sprintf
000274  4669              MOV      r1,sp                 ;1402
000276  4620              MOV      r0,r4                 ;1402
000278  f7fffffe          BL       TEXT_SetText
00027c  7375              STRB     r5,[r6,#0xd]          ;1403
00027e  e703              B        |L3.136|
                  |L3.640|
000280  8909              LDRH     r1,[r1,#8]            ;1419  ; coff
000282  ee001a10          VMOV     s0,r1                 ;1419
000286  4611              MOV      r1,r2                 ;1420
000288  eeb80a40          VCVT.F32.U32 s0,s0                 ;1419
00028c  ee808a20          VDIV.F32 s16,s0,s1             ;1419
000290  f7fffffe          BL       WM_GetDialogItem
000294  a132              ADR      r1,|L3.864|
000296  f7fffffe          BL       TEXT_SetText
00029a  4621              MOV      r1,r4                 ;1422
00029c  69b0              LDR      r0,[r6,#0x18]         ;1422  ; hWincdc
00029e  f7fffffe          BL       WM_GetDialogItem
0002a2  4604              MOV      r4,r0                 ;1422
0002a4  ee180a10          VMOV     r0,s16                ;1423
0002a8  f7fffffe          BL       __aeabi_f2d
0002ac  ec410b10          VMOV     d0,r0,r1              ;1423
0002b0  a10f              ADR      r1,|L3.752|
0002b2  ec532b10          VMOV     r2,r3,d0              ;1423
0002b6  4668              MOV      r0,sp                 ;1423
0002b8  f7fffffe          BL       __2sprintf
0002bc  4669              MOV      r1,sp                 ;1424
0002be  4620              MOV      r0,r4                 ;1424
0002c0  f7fffffe          BL       TEXT_SetText
0002c4  73b5              STRB     r5,[r6,#0xe]          ;1425
0002c6  e6df              B        |L3.136|
;;;1438   
                          ENDP

                  |L3.712|
                          DCD      set_sw
                  |L3.716|
                          DCD      Run_Control
                  |L3.720|
0002d0  42c80000          DCFS     0x42c80000 ; 100
                  |L3.724|
                          DCD      ||.data||
                  |L3.728|
0002d8  447a0000          DCFS     0x447a0000 ; 1000
                  |L3.732|
                          DCD      ||.bss||
                  |L3.736|
0002e0  e688aae6          DCB      230,136,170,230,173,162,231,148,181,230,181,129,"3",0
0002e4  ada2e794
0002e8  b5e6b581
0002ec  3300    
0002ee  00                DCB      0
0002ef  00                DCB      0
                  |L3.752|
0002f0  252e3366          DCB      "%.3f",0
0002f4  00      
0002f5  00                DCB      0
0002f6  00                DCB      0
0002f7  00                DCB      0
                  |L3.760|
0002f8  e8be93e5          DCB      232,190,147,229,135,186,231,148,181,229,142,139,"3",0
0002fc  87bae794
000300  b5e58e8b
000304  3300    
000306  00                DCB      0
000307  00                DCB      0
                  |L3.776|
000308  252e3266          DCB      "%.2f",0
00030c  00      
00030d  00                DCB      0
00030e  00                DCB      0
00030f  00                DCB      0
                  |L3.784|
000310  e8be93e5          DCB      232,190,147,229,135,186,231,148,181,229,142,139,"2",0
000314  87bae794
000318  b5e58e8b
00031c  3200    
00031e  00                DCB      0
00031f  00                DCB      0
                  |L3.800|
000320  e99990e5          DCB      233,153,144,229,136,182,231,148,181,230,181,129,"3",0
000324  88b6e794
000328  b5e6b581
00032c  3300    
00032e  00                DCB      0
00032f  00                DCB      0
                  |L3.816|
000330  e99990e5          DCB      233,153,144,229,136,182,231,148,181,230,181,129,"2",0
000334  88b6e794
000338  b5e6b581
00033c  3200    
00033e  00                DCB      0
00033f  00                DCB      0
                  |L3.832|
000340  e688aae6          DCB      230,136,170,230,173,162,231,148,181,229,142,139,"3",0
000344  ada2e794
000348  b5e58e8b
00034c  3300    
00034e  00                DCB      0
00034f  00                DCB      0
                  |L3.848|
000350  e688aae6          DCB      230,136,170,230,173,162,231,148,181,229,142,139,"2",0
000354  ada2e794
000358  b5e58e8b
00035c  3200    
00035e  00                DCB      0
00035f  00                DCB      0
                  |L3.864|
000360  e688aae6          DCB      230,136,170,230,173,162,231,148,181,230,181,129,"2",0
000364  ada2e794
000368  b5e6b581
00036c  3200    
00036e  00                DCB      0
00036f  00                DCB      0

                          AREA ||i.CDC_OP_UP||, CODE, READONLY, ALIGN=2

                  CDC_OP_UP PROC
;;;1114   
;;;1115   void CDC_OP_UP(void)
000000  e92d5ff0          PUSH     {r4-r12,lr}
;;;1116   {
;;;1117       switch(set_sw)
000004  4d71              LDR      r5,|L4.460|
000006  7829              LDRB     r1,[r5,#0]  ; set_sw
;;;1118       {
;;;1119           case set_26:
;;;1120           {
;;;1121               WM_HWIN hItem;
;;;1122   //            WM_InvalidateWindow(hWincdc);
;;;1123               hItem = WM_GetDialogItem(hWincdc, ID_TEXT_50);
000008  f8df81c4          LDR      r8,|L4.464|
00000c  f640066f          MOV      r6,#0x86f
;;;1124               TEXT_SetBkColor(hItem,GUI_INVALID_COLOR);//选项背景色设为透明
;;;1125               TEXT_SetTextColor(hItem, GUI_WHITE);
;;;1126                  
;;;1127               hItem = WM_GetDialogItem(hWincdc, ID_TEXT_53);
;;;1128               TEXT_SetBkColor(hItem,0x00BFFFFF);//选项背景色设为米色
;;;1129               TEXT_SetTextColor(hItem, GUI_BLACK);
;;;1130   
;;;1131               set_sw = set_37;
;;;1132               break;
;;;1133           }
;;;1134           case set_27:
;;;1135           {
;;;1136               WM_HWIN hItem;
;;;1137   //            WM_InvalidateWindow(hWincdc);
;;;1138               hItem = WM_GetDialogItem(hWincdc, ID_TEXT_51);
000010  1c77              ADDS     r7,r6,#1
000012  3919              SUBS     r1,r1,#0x19           ;1117
;;;1139               TEXT_SetBkColor(hItem,GUI_INVALID_COLOR);//选项背景色设为透明
;;;1140               TEXT_SetTextColor(hItem, GUI_WHITE);
;;;1141                  
;;;1142               hItem = WM_GetDialogItem(hWincdc, ID_TEXT_50);
;;;1143               TEXT_SetBkColor(hItem,0x00BFFFFF);//选项背景色设为米色
;;;1144               TEXT_SetTextColor(hItem, GUI_BLACK);
;;;1145   
;;;1146               set_sw = set_26;
;;;1147               break;
;;;1148           }
;;;1149           case set_28:
;;;1150           {
;;;1151               WM_HWIN hItem;
;;;1152   //            WM_InvalidateWindow(hWincdc);
;;;1153               hItem = WM_GetDialogItem(hWincdc, ID_TEXT_58);
000014  1dfc              ADDS     r4,r7,#7
000016  f8d80018          LDR      r0,[r8,#0x18]         ;1117
;;;1154               TEXT_SetBkColor(hItem,GUI_INVALID_COLOR);//选项背景色设为透明
;;;1155               TEXT_SetTextColor(hItem, GUI_WHITE);
;;;1156                  
;;;1157               hItem = WM_GetDialogItem(hWincdc, ID_TEXT_51);
;;;1158               TEXT_SetBkColor(hItem,0x00BFFFFF);//选项背景色设为米色
;;;1159               TEXT_SetTextColor(hItem, GUI_BLACK);
;;;1160   
;;;1161               set_sw = set_27;
;;;1162               break;
;;;1163           }
;;;1164           case set_29:
;;;1165           {
;;;1166               WM_HWIN hItem;
;;;1167   //            WM_InvalidateWindow(hWincdc);
;;;1168               hItem = WM_GetDialogItem(hWincdc, ID_TEXT_59);
00001a  f6400978          MOV      r9,#0x878
;;;1169               TEXT_SetBkColor(hItem,GUI_INVALID_COLOR);//选项背景色设为透明
;;;1170               TEXT_SetTextColor(hItem, GUI_WHITE);
;;;1171                  
;;;1172               hItem = WM_GetDialogItem(hWincdc, ID_TEXT_58);
;;;1173               TEXT_SetBkColor(hItem,0x00BFFFFF);//选项背景色设为米色
;;;1174               TEXT_SetTextColor(hItem, GUI_BLACK);
;;;1175   
;;;1176               set_sw = set_28;
;;;1177               break;
;;;1178           }
;;;1179           case set_34:
;;;1180           {
;;;1181               WM_HWIN hItem;
;;;1182   //            WM_InvalidateWindow(hWincdc);
;;;1183               hItem = WM_GetDialogItem(hWincdc, ID_TEXT_52);
00001e  f6400a71          MOV      r10,#0x871
;;;1184               TEXT_SetBkColor(hItem,GUI_INVALID_COLOR);//选项背景色设为透明
;;;1185               TEXT_SetTextColor(hItem, GUI_WHITE);
;;;1186                  
;;;1187               hItem = WM_GetDialogItem(hWincdc, ID_TEXT_59);
;;;1188               TEXT_SetBkColor(hItem,0x00BFFFFF);//选项背景色设为米色
;;;1189               TEXT_SetTextColor(hItem, GUI_BLACK);
;;;1190   
;;;1191               set_sw = set_29;
;;;1192               break;
;;;1193           }
;;;1194           case set_35:
;;;1195           {
;;;1196               WM_HWIN hItem;
;;;1197   //            WM_InvalidateWindow(hWincdc);
;;;1198               hItem = WM_GetDialogItem(hWincdc, ID_TEXT_60);
000022  f6400b79          MOV      r11,#0x879
000026  290c              CMP      r1,#0xc               ;1117
000028  d278              BCS      |L4.284|
00002a  e8dff001          TBB      [pc,r1]               ;1117
00002e  0623              DCB      0x06,0x23
000030  3f5bcdcd          DCB      0x3f,0x5b,0xcd,0xcd
000034  cdcd7894          DCB      0xcd,0xcd,0x78,0x94
000038  cdb0              DCB      0xcd,0xb0
00003a  4631              MOV      r1,r6                 ;1123
00003c  f7fffffe          BL       WM_GetDialogItem
000040  4604              MOV      r4,r0                 ;1123
000042  f06f4170          MVN      r1,#0xf0000000        ;1124
000046  f7fffffe          BL       TEXT_SetBkColor
00004a  f06f417f          MVN      r1,#0xff000000        ;1125
00004e  4620              MOV      r0,r4                 ;1125
000050  f7fffffe          BL       TEXT_SetTextColor
000054  f6400172          MOV      r1,#0x872             ;1127
000058  f8d80018          LDR      r0,[r8,#0x18]         ;1127  ; hWincdc
00005c  f7fffffe          BL       WM_GetDialogItem
000060  4604              MOV      r4,r0                 ;1127
000062  495c              LDR      r1,|L4.468|
000064  f7fffffe          BL       TEXT_SetBkColor
000068  2100              MOVS     r1,#0                 ;1129
00006a  4620              MOV      r0,r4                 ;1129
00006c  f7fffffe          BL       TEXT_SetTextColor
000070  2024              MOVS     r0,#0x24              ;1131
000072  e0a8              B        |L4.454|
000074  4639              MOV      r1,r7                 ;1138
000076  f7fffffe          BL       WM_GetDialogItem
00007a  4604              MOV      r4,r0                 ;1138
00007c  f06f4170          MVN      r1,#0xf0000000        ;1139
000080  f7fffffe          BL       TEXT_SetBkColor
000084  f06f417f          MVN      r1,#0xff000000        ;1140
000088  4620              MOV      r0,r4                 ;1140
00008a  f7fffffe          BL       TEXT_SetTextColor
00008e  4631              MOV      r1,r6                 ;1142
000090  f8d80018          LDR      r0,[r8,#0x18]         ;1142  ; hWincdc
000094  f7fffffe          BL       WM_GetDialogItem
000098  4604              MOV      r4,r0                 ;1142
00009a  494e              LDR      r1,|L4.468|
00009c  f7fffffe          BL       TEXT_SetBkColor
0000a0  2100              MOVS     r1,#0                 ;1144
0000a2  4620              MOV      r0,r4                 ;1144
0000a4  f7fffffe          BL       TEXT_SetTextColor
0000a8  2019              MOVS     r0,#0x19              ;1146
0000aa  e08c              B        |L4.454|
0000ac  4621              MOV      r1,r4                 ;1153
0000ae  f7fffffe          BL       WM_GetDialogItem
0000b2  4604              MOV      r4,r0                 ;1153
0000b4  f06f4170          MVN      r1,#0xf0000000        ;1154
0000b8  f7fffffe          BL       TEXT_SetBkColor
0000bc  f06f417f          MVN      r1,#0xff000000        ;1155
0000c0  4620              MOV      r0,r4                 ;1155
0000c2  f7fffffe          BL       TEXT_SetTextColor
0000c6  4639              MOV      r1,r7                 ;1157
0000c8  f8d80018          LDR      r0,[r8,#0x18]         ;1157  ; hWincdc
0000cc  f7fffffe          BL       WM_GetDialogItem
0000d0  4604              MOV      r4,r0                 ;1157
0000d2  4940              LDR      r1,|L4.468|
0000d4  f7fffffe          BL       TEXT_SetBkColor
0000d8  2100              MOVS     r1,#0                 ;1159
0000da  4620              MOV      r0,r4                 ;1159
0000dc  f7fffffe          BL       TEXT_SetTextColor
0000e0  201a              MOVS     r0,#0x1a              ;1161
0000e2  e070              B        |L4.454|
0000e4  4649              MOV      r1,r9                 ;1168
0000e6  f7fffffe          BL       WM_GetDialogItem
0000ea  4606              MOV      r6,r0                 ;1168
0000ec  f06f4170          MVN      r1,#0xf0000000        ;1169
0000f0  f7fffffe          BL       TEXT_SetBkColor
0000f4  f06f417f          MVN      r1,#0xff000000        ;1170
0000f8  4630              MOV      r0,r6                 ;1170
0000fa  f7fffffe          BL       TEXT_SetTextColor
0000fe  4621              MOV      r1,r4                 ;1172
000100  f8d80018          LDR      r0,[r8,#0x18]         ;1172  ; hWincdc
000104  f7fffffe          BL       WM_GetDialogItem
000108  4604              MOV      r4,r0                 ;1172
00010a  4932              LDR      r1,|L4.468|
00010c  f7fffffe          BL       TEXT_SetBkColor
000110  2100              MOVS     r1,#0                 ;1174
000112  4620              MOV      r0,r4                 ;1174
000114  f7fffffe          BL       TEXT_SetTextColor
000118  201b              MOVS     r0,#0x1b              ;1176
00011a  e054              B        |L4.454|
                  |L4.284|
00011c  e054              B        |L4.456|
00011e  4651              MOV      r1,r10                ;1183
000120  f7fffffe          BL       WM_GetDialogItem
000124  4604              MOV      r4,r0                 ;1183
000126  f06f4170          MVN      r1,#0xf0000000        ;1184
00012a  f7fffffe          BL       TEXT_SetBkColor
00012e  f06f417f          MVN      r1,#0xff000000        ;1185
000132  4620              MOV      r0,r4                 ;1185
000134  f7fffffe          BL       TEXT_SetTextColor
000138  4649              MOV      r1,r9                 ;1187
00013a  f8d80018          LDR      r0,[r8,#0x18]         ;1187  ; hWincdc
00013e  f7fffffe          BL       WM_GetDialogItem
000142  4604              MOV      r4,r0                 ;1187
000144  4923              LDR      r1,|L4.468|
000146  f7fffffe          BL       TEXT_SetBkColor
00014a  2100              MOVS     r1,#0                 ;1189
00014c  4620              MOV      r0,r4                 ;1189
00014e  f7fffffe          BL       TEXT_SetTextColor
000152  201c              MOVS     r0,#0x1c              ;1191
000154  e037              B        |L4.454|
000156  4659              MOV      r1,r11
000158  f7fffffe          BL       WM_GetDialogItem
00015c  4604              MOV      r4,r0
;;;1199               TEXT_SetBkColor(hItem,GUI_INVALID_COLOR);//选项背景色设为透明
00015e  f06f4170          MVN      r1,#0xf0000000
000162  f7fffffe          BL       TEXT_SetBkColor
;;;1200               TEXT_SetTextColor(hItem, GUI_WHITE);
000166  f06f417f          MVN      r1,#0xff000000
00016a  4620              MOV      r0,r4
00016c  f7fffffe          BL       TEXT_SetTextColor
;;;1201                  
;;;1202               hItem = WM_GetDialogItem(hWincdc, ID_TEXT_52);
000170  4651              MOV      r1,r10
000172  f8d80018          LDR      r0,[r8,#0x18]  ; hWincdc
000176  f7fffffe          BL       WM_GetDialogItem
00017a  4604              MOV      r4,r0
;;;1203               TEXT_SetBkColor(hItem,0x00BFFFFF);//选项背景色设为米色
00017c  4915              LDR      r1,|L4.468|
00017e  f7fffffe          BL       TEXT_SetBkColor
;;;1204               TEXT_SetTextColor(hItem, GUI_BLACK);
000182  2100              MOVS     r1,#0
000184  4620              MOV      r0,r4
000186  f7fffffe          BL       TEXT_SetTextColor
;;;1205   
;;;1206               set_sw = set_34;
00018a  2021              MOVS     r0,#0x21
;;;1207               break;
00018c  e01b              B        |L4.454|
;;;1208           }
;;;1209   //         case set_36:
;;;1210   //         {
;;;1211   //             WM_HWIN hItem;
;;;1212   //             WM_InvalidateWindow(hWincdc);
;;;1213   //             hItem = WM_GetDialogItem(hWincdc, ID_TEXT_61);
;;;1214   //             TEXT_SetBkColor(hItem,GUI_INVALID_COLOR);//选项背景色设为透明
;;;1215   //                
;;;1216   //             hItem = WM_GetDialogItem(hWincdc, ID_TEXT_60);
;;;1217   //             TEXT_SetBkColor(hItem,0x00BFFFFF);//选项背景色设为米色
;;;1218   
;;;1219   //             set_sw = set_35;
;;;1220   //             break;
;;;1221   //         }
;;;1222           case set_37:
;;;1223           {
;;;1224               WM_HWIN hItem;
;;;1225   //            WM_InvalidateWindow(hWincdc);
;;;1226               hItem = WM_GetDialogItem(hWincdc, ID_TEXT_53);
00018e  f6400172          MOV      r1,#0x872
000192  f7fffffe          BL       WM_GetDialogItem
000196  4604              MOV      r4,r0
;;;1227               TEXT_SetBkColor(hItem,GUI_INVALID_COLOR);//选项背景色设为透明
000198  f06f4170          MVN      r1,#0xf0000000
00019c  f7fffffe          BL       TEXT_SetBkColor
;;;1228               TEXT_SetTextColor(hItem, GUI_WHITE);
0001a0  f06f417f          MVN      r1,#0xff000000
0001a4  4620              MOV      r0,r4
0001a6  f7fffffe          BL       TEXT_SetTextColor
;;;1229                  
;;;1230               hItem = WM_GetDialogItem(hWincdc, ID_TEXT_60);
0001aa  4659              MOV      r1,r11
0001ac  f8d80018          LDR      r0,[r8,#0x18]  ; hWincdc
0001b0  f7fffffe          BL       WM_GetDialogItem
0001b4  4604              MOV      r4,r0
;;;1231               TEXT_SetBkColor(hItem,0x00BFFFFF);//选项背景色设为米色
0001b6  4907              LDR      r1,|L4.468|
0001b8  f7fffffe          BL       TEXT_SetBkColor
;;;1232               TEXT_SetTextColor(hItem, GUI_BLACK);
0001bc  2100              MOVS     r1,#0
0001be  4620              MOV      r0,r4
0001c0  f7fffffe          BL       TEXT_SetTextColor
;;;1233   
;;;1234               set_sw = set_35;
0001c4  2022              MOVS     r0,#0x22
                  |L4.454|
0001c6  7028              STRB     r0,[r5,#0]
                  |L4.456|
;;;1235               break;
;;;1236           }
;;;1237           default: break;
;;;1238       }
;;;1239   }
0001c8  e8bd9ff0          POP      {r4-r12,pc}
;;;1240   
                          ENDP

                  |L4.460|
                          DCD      set_sw
                  |L4.464|
                          DCD      ||.data||
                  |L4.468|
                          DCD      0x00bfffff

                          AREA ||i.CDC_SET||, CODE, READONLY, ALIGN=2

                          REQUIRE _printf_percent
                          REQUIRE _printf_widthprec
                          REQUIRE _printf_f
                          REQUIRE _printf_fp_dec
                  CDC_SET PROC
;;;1440   
;;;1441   void CDC_SET(void)
000000  e92d4ff0          PUSH     {r4-r11,lr}
;;;1442   {
;;;1443       vu8 i;
;;;1444       char buf[5];
;;;1445       
;;;1446       float dis_load_c;
;;;1447       float dis_output_v;
;;;1448       float dis_output_c;
;;;1449       float dis_c_cutoff_v = (float)set_c_cutoff_v/100;
000004  48f8              LDR      r0,|L5.1000|
000006  ed2d8b04          VPUSH    {d8-d9}               ;1442
00000a  b083              SUB      sp,sp,#0xc            ;1442
00000c  6e40              LDR      r0,[r0,#0x64]  ; Run_Control
00000e  ee000a10          VMOV     s0,r0
000012  eeb80a40          VCVT.F32.U32 s0,s0
000016  eddf0af5          VLDR     s1,|L5.1004|
;;;1450       float dis_c_cutoff_c = (float)set_c_cutoff_c/1000;
00001a  48f3              LDR      r0,|L5.1000|
00001c  ee808a20          VDIV.F32 s16,s0,s1             ;1449
000020  6e80              LDR      r0,[r0,#0x68]  ; Run_Control
000022  ee000a10          VMOV     s0,r0
000026  eeb80a40          VCVT.F32.U32 s0,s0
00002a  eddf0af1          VLDR     s1,|L5.1008|
;;;1451       float dis_dc_cutoff_v = (float)set_dc_cutoff_v/1000;
00002e  48ee              LDR      r0,|L5.1000|
000030  6ec0              LDR      r0,[r0,#0x6c]  ; Run_Control
000032  eec08a20          VDIV.F32 s17,s0,s1             ;1450
000036  ee000a10          VMOV     s0,r0
00003a  eeb80a40          VCVT.F32.U32 s0,s0
00003e  eddf0aec          VLDR     s1,|L5.1008|
;;;1452       float dis_dc_cutoff_c = (float)set_dc_cutoff_c/100;
000042  48e9              LDR      r0,|L5.1000|
000044  6f00              LDR      r0,[r0,#0x70]  ; Run_Control
000046  ee809a20          VDIV.F32 s18,s0,s1             ;1451
00004a  ee000a10          VMOV     s0,r0
00004e  eeb80a40          VCVT.F32.U32 s0,s0
000052  eddf0ae6          VLDR     s1,|L5.1004|
;;;1453       switch(set_sw)
000056  48e7              LDR      r0,|L5.1012|
000058  7801              LDRB     r1,[r0,#0]  ; set_sw
00005a  eec09a20          VDIV.F32 s19,s0,s1             ;1452
;;;1454       {
;;;1455           case set_26:
;;;1456           {
;;;1457               
;;;1458               WM_HWIN hItem;
;;;1459   //            WM_InvalidateWindow(hWincdc);
;;;1460               hItem = WM_GetDialogItem(hWincdc, ID_TEXT_50);
00005e  48e9              LDR      r0,|L5.1028|
000060  3919              SUBS     r1,r1,#0x19           ;1453
;;;1461               TEXT_SetBkColor(hItem,GUI_INVALID_COLOR);//选项背景色设为透明
;;;1462               TEXT_SetTextColor(hItem, GUI_WHITE);
;;;1463                  
;;;1464               hItem = WM_GetDialogItem(hWincdc, ID_TEXT_54);
;;;1465               TEXT_SetBkColor(hItem,0x00BFFFFF);//选项背景色设为米色
;;;1466               TEXT_SetTextColor(hItem, GUI_BLACK);
;;;1467               for(i=0;i<5;i++)
;;;1468               {
;;;1469                   set_limit[i] = '\0';
;;;1470               }
;;;1471               
;;;1472               set_sw = set_30;
;;;1473               bit = 1;
000062  2401              MOVS     r4,#1
000064  4de4              LDR      r5,|L5.1016|
;;;1474               break;
;;;1475           }
;;;1476           case set_30:
;;;1477           {
;;;1478               WM_HWIN hItem;
;;;1479   //            WM_InvalidateWindow(hWincdc);
;;;1480               hItem = WM_GetDialogItem(hWincdc, ID_TEXT_54);
;;;1481               TEXT_SetBkColor(hItem,GUI_INVALID_COLOR);//选项背景色设为透明
;;;1482               TEXT_SetTextColor(hItem, GUI_WHITE);
;;;1483               if(pow_step == step1)
;;;1484               {
;;;1485                   SET_Voltage = opv1;
;;;1486               }else if(pow_step == step2){
;;;1487                   SET_Voltage = opv2;
;;;1488               }else if(pow_step == step3){
;;;1489                   SET_Voltage = opv3;
;;;1490               }
;;;1491               
;;;1492               dis_output_v = (float)SET_Voltage/100;
;;;1493               sprintf(buf,"%.2f",dis_output_v);
;;;1494               TEXT_SetText(hItem,buf);
;;;1495   //             if(pow_step == step1)
;;;1496   //             {
;;;1497   //                 opv1 = SET_Voltage;
;;;1498   //             }else if(pow_step == step2){
;;;1499   //                 opv2 = SET_Voltage;
;;;1500   //             }else if(pow_step == step3){
;;;1501   //                 opv3 = SET_Voltage;
;;;1502   //             }
;;;1503               
;;;1504               hItem = WM_GetDialogItem(hWincdc, ID_TEXT_50);
;;;1505               TEXT_SetBkColor(hItem,0x00BFFFFF);//选项背景色设为米色
;;;1506               TEXT_SetTextColor(hItem, GUI_BLACK);
;;;1507   
;;;1508               set_sw = set_26;
;;;1509               bit = 1;
;;;1510               dot_flag = 0;
000066  4ee5              LDR      r6,|L5.1020|
;;;1511               Write_Limits();
;;;1512               break;
;;;1513           }
;;;1514           case set_27:
;;;1515           {
;;;1516               WM_HWIN hItem;
;;;1517   //            WM_InvalidateWindow(hWincdc);
;;;1518               hItem = WM_GetDialogItem(hWincdc, ID_TEXT_51);
;;;1519               TEXT_SetBkColor(hItem,GUI_INVALID_COLOR);//选项背景色设为透明
;;;1520               TEXT_SetTextColor(hItem, GUI_WHITE);
;;;1521               for(i=0;i<5;i++)
;;;1522               {
;;;1523                   set_limit[i] = '\0';
;;;1524               }
;;;1525               
;;;1526               hItem = WM_GetDialogItem(hWincdc, ID_TEXT_55);
;;;1527               TEXT_SetBkColor(hItem,0x00BFFFFF);//选项背景色设为米色
;;;1528               TEXT_SetTextColor(hItem, GUI_BLACK);
;;;1529   
;;;1530               set_sw = set_31;
;;;1531               break;
;;;1532           }
;;;1533           case set_31:
;;;1534           {
;;;1535               WM_HWIN hItem;
;;;1536   //            WM_InvalidateWindow(hWincdc);
;;;1537               hItem = WM_GetDialogItem(hWincdc, ID_TEXT_55);
;;;1538               TEXT_SetBkColor(hItem,GUI_INVALID_COLOR);//选项背景色设为透明
;;;1539               TEXT_SetTextColor(hItem, GUI_WHITE);
;;;1540               if(cur_step == step1)
;;;1541               {
;;;1542                   SET_Current = opc1;
;;;1543               }else if(cur_step == step2){
;;;1544                   SET_Current = opc2;
;;;1545               }else if(cur_step == step3){
;;;1546                   SET_Current = opc3;
;;;1547               }
;;;1548   //            SET_Current = cdc_cc;
;;;1549               if(SET_Current > 5000)
;;;1550               {
;;;1551                   SET_Current = 5000;               
;;;1552               }
;;;1553               dis_output_c = (float)SET_Current/1000;
;;;1554               sprintf(buf,"%.3f",dis_output_c);
;;;1555               TEXT_SetText(hItem,buf);
;;;1556               
;;;1557   //             if(cur_step == step1)
;;;1558   //             {
;;;1559   //                 opc1 = SET_Current;
;;;1560   //             }else if(cur_step == step2){
;;;1561   //                 opc2 = SET_Current;
;;;1562   //             }else if(cur_step == step3){
;;;1563   //                 opc3 = SET_Current;
;;;1564   //             }
;;;1565               
;;;1566               hItem = WM_GetDialogItem(hWincdc, ID_TEXT_51);
;;;1567               TEXT_SetBkColor(hItem,0x00BFFFFF);//选项背景色设为米色
;;;1568               TEXT_SetTextColor(hItem, GUI_BLACK);
;;;1569   
;;;1570               set_sw = set_27;
;;;1571               bit = 1;
;;;1572               dot_flag = 0;
;;;1573               Write_Limits();
;;;1574               break;
;;;1575           }
;;;1576           case set_28:
;;;1577           {
;;;1578               WM_HWIN hItem;
;;;1579   //            WM_InvalidateWindow(hWincdc);
;;;1580               hItem = WM_GetDialogItem(hWincdc, ID_TEXT_58);
;;;1581               TEXT_SetBkColor(hItem,GUI_INVALID_COLOR);//选项背景色设为透明
;;;1582               TEXT_SetTextColor(hItem, GUI_WHITE);
;;;1583               for(i=0;i<5;i++)
;;;1584               {
;;;1585                   set_limit[i] = '\0';
;;;1586               }
;;;1587                  
;;;1588               hItem = WM_GetDialogItem(hWincdc, ID_TEXT_62);
;;;1589               TEXT_SetBkColor(hItem,0x00BFFFFF);//选项背景色设为米色
;;;1590               TEXT_SetTextColor(hItem, GUI_BLACK);
;;;1591   
;;;1592               set_sw = set_38;
;;;1593               break;
;;;1594           }
;;;1595           case set_38:
;;;1596           {
;;;1597               WM_HWIN hItem;
;;;1598   //            WM_InvalidateWindow(hWincdc);
;;;1599               hItem = WM_GetDialogItem(hWincdc, ID_TEXT_62);
;;;1600               TEXT_SetBkColor(hItem,GUI_INVALID_COLOR);//选项背景色设为透明
;;;1601               TEXT_SetTextColor(hItem, GUI_WHITE);
;;;1602               
;;;1603               if(coffv_step == step1)
;;;1604               {
;;;1605                   dis_c_cutoff_v = (float)cov1/100;
000068  4fe5              LDR      r7,|L5.1024|
00006a  6980              LDR      r0,[r0,#0x18]         ;1460
00006c  f6400a6f          MOV      r10,#0x86f            ;1460
000070  f6400873          MOV      r8,#0x873             ;1464
000074  f44f6b07          MOV      r11,#0x870            ;1518
;;;1606               }else if(coffv_step == step2){
;;;1607                   dis_c_cutoff_v = (float)cov2/100;;
;;;1608               }else if(coffv_step == step3){
;;;1609                   dis_c_cutoff_v = (float)cov3/100;;
;;;1610               }
;;;1611               
;;;1612               
;;;1613               sprintf(buf,"%.2f",dis_c_cutoff_v);
;;;1614               TEXT_SetText(hItem,buf);
;;;1615   //             if(coffv_step == step1)
;;;1616   //             {
;;;1617   //                 cov1 = dis_c_cutoff_v;
;;;1618   //             }else if(coffv_step == step2){
;;;1619   //                 cov2 = dis_c_cutoff_v;
;;;1620   //             }else if(coffv_step == step3){
;;;1621   //                 cov3 = dis_c_cutoff_v;
;;;1622   //             }
;;;1623               
;;;1624               hItem = WM_GetDialogItem(hWincdc, ID_TEXT_58);
;;;1625               TEXT_SetBkColor(hItem,0x00BFFFFF);//选项背景色设为米色
;;;1626               TEXT_SetTextColor(hItem, GUI_BLACK);
;;;1627   
;;;1628               set_sw = set_28;
;;;1629               bit = 1;
;;;1630               dot_flag = 0;
;;;1631               Write_Limits();
;;;1632               break;
;;;1633           }
;;;1634           case set_29:
;;;1635           {
;;;1636               WM_HWIN hItem;
;;;1637   //            WM_InvalidateWindow(hWincdc);
;;;1638               hItem = WM_GetDialogItem(hWincdc, ID_TEXT_59);
;;;1639               TEXT_SetBkColor(hItem,GUI_INVALID_COLOR);//选项背景色设为透明
;;;1640               TEXT_SetTextColor(hItem, GUI_WHITE);
;;;1641               for(i=0;i<5;i++)
;;;1642               {
;;;1643                   set_limit[i] = '\0';
;;;1644               }
;;;1645                  
;;;1646               hItem = WM_GetDialogItem(hWincdc, ID_TEXT_63);
;;;1647               TEXT_SetBkColor(hItem,0x00BFFFFF);//选项背景色设为米色
;;;1648               TEXT_SetTextColor(hItem, GUI_BLACK);
;;;1649   
;;;1650               set_sw = set_39;
;;;1651               break;
;;;1652           }
;;;1653           case set_39:
;;;1654           {
;;;1655               WM_HWIN hItem;
;;;1656   //            WM_InvalidateWindow(hWincdc);
;;;1657               hItem = WM_GetDialogItem(hWincdc, ID_TEXT_63);
;;;1658               TEXT_SetBkColor(hItem,GUI_INVALID_COLOR);//选项背景色设为透明
;;;1659               TEXT_SetTextColor(hItem, GUI_WHITE);
;;;1660               
;;;1661               if(coffc_step == step1)
;;;1662               {
;;;1663                   dis_c_cutoff_c = (float)coc1/1000;
;;;1664               }else if(coffc_step == step2){
;;;1665                   dis_c_cutoff_c = (float)coc2/1000;
;;;1666               }else if(coffc_step == step3){
;;;1667                   dis_c_cutoff_c = (float)coc3/1000;
;;;1668               } 
;;;1669               
;;;1670               sprintf(buf,"%.3f",dis_c_cutoff_c);
;;;1671               TEXT_SetText(hItem,buf);
;;;1672   //             if(coffc_step == step1)
;;;1673   //             {
;;;1674   //                 coc1 = dis_c_cutoff_c;
;;;1675   //             }else if(coffc_step == step2){
;;;1676   //                 coc2 = dis_c_cutoff_c;
;;;1677   //             }else if(coffc_step == step3){
;;;1678   //                 coc3 = dis_c_cutoff_c;
;;;1679   //             }   
;;;1680               hItem = WM_GetDialogItem(hWincdc, ID_TEXT_59);
;;;1681               TEXT_SetBkColor(hItem,0x00BFFFFF);//选项背景色设为米色
;;;1682               TEXT_SetTextColor(hItem, GUI_BLACK);
;;;1683   
;;;1684               set_sw = set_29;
;;;1685               bit = 1;
;;;1686               dot_flag = 0;
;;;1687               Write_Limits();
;;;1688               break;
;;;1689           }
;;;1690           case set_35:
;;;1691           {
;;;1692               WM_HWIN hItem;
;;;1693   //            WM_InvalidateWindow(hWincdc);
;;;1694               hItem = WM_GetDialogItem(hWincdc, ID_TEXT_60);
000078  f6400979          MOV      r9,#0x879
00007c  2910              CMP      r1,#0x10              ;1453
00007e  d22f              BCS      |L5.224|
000080  e8dff001          TBB      [pc,r1]               ;1453
000084  087dfcfb          DCB      0x08,0x7d,0xfc,0xfb
000088  33a2faf9          DCB      0x33,0xa2,0xfa,0xf9
00008c  f8f7f6f5          DCB      0xf8,0xf7,0xf6,0xf5
000090  f4f3f2f1          DCB      0xf4,0xf3,0xf2,0xf1
000094  4651              MOV      r1,r10                ;1460
000096  4edb              LDR      r6,|L5.1028|
000098  f7fffffe          BL       WM_GetDialogItem
00009c  4607              MOV      r7,r0                 ;1460
00009e  f06f4170          MVN      r1,#0xf0000000        ;1461
0000a2  f7fffffe          BL       TEXT_SetBkColor
0000a6  f06f417f          MVN      r1,#0xff000000        ;1462
0000aa  4638              MOV      r0,r7                 ;1462
0000ac  f7fffffe          BL       TEXT_SetTextColor
0000b0  4641              MOV      r1,r8                 ;1464
0000b2  69b0              LDR      r0,[r6,#0x18]         ;1464  ; hWincdc
0000b4  f7fffffe          BL       WM_GetDialogItem
0000b8  4606              MOV      r6,r0                 ;1464
0000ba  49d3              LDR      r1,|L5.1032|
0000bc  f7fffffe          BL       TEXT_SetBkColor
0000c0  2100              MOVS     r1,#0                 ;1466
0000c2  4630              MOV      r0,r6                 ;1466
0000c4  f7fffffe          BL       TEXT_SetTextColor
0000c8  2000              MOVS     r0,#0                 ;1467
0000ca  4ad0              LDR      r2,|L5.1036|
0000cc  4601              MOV      r1,r0                 ;1466
                  |L5.206|
0000ce  5411              STRB     r1,[r2,r0]            ;1469
0000d0  1c40              ADDS     r0,r0,#1              ;1467
0000d2  b2c0              UXTB     r0,r0                 ;1467
0000d4  2805              CMP      r0,#5                 ;1467
0000d6  d3fa              BCC      |L5.206|
0000d8  49c6              LDR      r1,|L5.1012|
0000da  201d              MOVS     r0,#0x1d              ;1472
0000dc  7008              STRB     r0,[r1,#0]            ;1472
0000de  702c              STRB     r4,[r5,#0]            ;1473
                  |L5.224|
;;;1695               TEXT_SetBkColor(hItem,GUI_INVALID_COLOR);//选项背景色设为透明
;;;1696               TEXT_SetTextColor(hItem, GUI_WHITE);
;;;1697               for(i=0;i<5;i++)
;;;1698               {
;;;1699                   set_limit[i] = '\0';
;;;1700               }
;;;1701                  
;;;1702               hItem = WM_GetDialogItem(hWincdc, ID_TEXT_64);
;;;1703               TEXT_SetBkColor(hItem,0x00BFFFFF);//选项背景色设为米色
;;;1704               TEXT_SetTextColor(hItem, GUI_BLACK);
;;;1705   
;;;1706               set_sw = set_40;
;;;1707               break;
;;;1708           }
;;;1709           case set_40:
;;;1710           {
;;;1711               WM_HWIN hItem;
;;;1712   //            WM_InvalidateWindow(hWincdc);
;;;1713               hItem = WM_GetDialogItem(hWincdc, ID_TEXT_64);
;;;1714               TEXT_SetBkColor(hItem,GUI_INVALID_COLOR);//选项背景色设为透明
;;;1715               TEXT_SetTextColor(hItem, GUI_WHITE);
;;;1716               
;;;1717               sprintf(buf,"%.3f",dis_dc_cutoff_v);
;;;1718               TEXT_SetText(hItem,buf);
;;;1719                  
;;;1720               hItem = WM_GetDialogItem(hWincdc, ID_TEXT_60);
;;;1721               TEXT_SetBkColor(hItem,0x00BFFFFF);//选项背景色设为米色
;;;1722               TEXT_SetTextColor(hItem, GUI_BLACK);
;;;1723   
;;;1724               set_sw = set_35;
;;;1725               bit = 1;
;;;1726               dot_flag = 0;
;;;1727               Write_Limits();
;;;1728               break;
;;;1729           }
;;;1730           case set_36:
;;;1731           {
;;;1732               WM_HWIN hItem;
;;;1733   //            WM_InvalidateWindow(hWincdc);
;;;1734               hItem = WM_GetDialogItem(hWincdc, ID_TEXT_61);
;;;1735               TEXT_SetBkColor(hItem,GUI_INVALID_COLOR);//选项背景色设为透明
;;;1736               TEXT_SetTextColor(hItem, GUI_WHITE);
;;;1737               for(i=0;i<5;i++)
;;;1738               {
;;;1739                   set_limit[i] = '\0';
;;;1740               }
;;;1741                  
;;;1742               hItem = WM_GetDialogItem(hWincdc, ID_TEXT_65);
;;;1743               TEXT_SetBkColor(hItem,0x00BFFFFF);//选项背景色设为米色
;;;1744               TEXT_SetTextColor(hItem, GUI_BLACK);
;;;1745   
;;;1746               set_sw = set_41;
;;;1747               break;
;;;1748           }
;;;1749           case set_41:
;;;1750           {
;;;1751               WM_HWIN hItem;
;;;1752   //            WM_InvalidateWindow(hWincdc);
;;;1753               hItem = WM_GetDialogItem(hWincdc, ID_TEXT_65);
;;;1754               TEXT_SetBkColor(hItem,GUI_INVALID_COLOR);//选项背景色设为透明
;;;1755               TEXT_SetTextColor(hItem, GUI_WHITE);
;;;1756               
;;;1757               sprintf(buf,"%.2f",dis_dc_cutoff_c);
;;;1758               TEXT_SetText(hItem,buf);
;;;1759                  
;;;1760               hItem = WM_GetDialogItem(hWincdc, ID_TEXT_61);
;;;1761               TEXT_SetBkColor(hItem,0x00BFFFFF);//选项背景色设为米色
;;;1762               TEXT_SetTextColor(hItem, GUI_BLACK);
;;;1763   
;;;1764               set_sw = set_36;
;;;1765               bit = 1;
;;;1766               dot_flag = 0;
;;;1767               break;
;;;1768           }
;;;1769           case set_34:
;;;1770           {
;;;1771               WM_HWIN hItem;
;;;1772   //            WM_InvalidateWindow(hWincdc);
;;;1773               hItem = WM_GetDialogItem(hWincdc, ID_TEXT_52);
;;;1774               TEXT_SetBkColor(hItem,GUI_INVALID_COLOR);//选项背景色设为透明
;;;1775               TEXT_SetTextColor(hItem, GUI_WHITE);
;;;1776               for(i=0;i<5;i++)
;;;1777               {
;;;1778                   set_limit[i] = '\0';
;;;1779               }
;;;1780                  
;;;1781               hItem = WM_GetDialogItem(hWincdc, ID_TEXT_56);
;;;1782               TEXT_SetBkColor(hItem,0x00BFFFFF);//选项背景色设为米色
;;;1783               TEXT_SetTextColor(hItem, GUI_BLACK);
;;;1784   
;;;1785               set_sw = set_32;
;;;1786               break;
;;;1787           }
;;;1788           case set_32:
;;;1789           {
;;;1790               WM_HWIN hItem;
;;;1791   //            WM_InvalidateWindow(hWincdc);
;;;1792               hItem = WM_GetDialogItem(hWincdc, ID_TEXT_56);
;;;1793               TEXT_SetBkColor(hItem,GUI_INVALID_COLOR);//选项背景色设为透明
;;;1794               TEXT_SetTextColor(hItem, GUI_WHITE);
;;;1795               SET_Current_Laod = cdc_dc;
;;;1796               if(SET_Current_Laod > 60000){
;;;1797                   SET_Current_Laod = 0;
;;;1798               }
;;;1799               dis_load_c = (float)SET_Current_Laod/1000;
;;;1800               sprintf(buf,"%.3f",dis_load_c);
;;;1801               TEXT_SetText(hItem,buf);
;;;1802                  
;;;1803               hItem = WM_GetDialogItem(hWincdc, ID_TEXT_52);
;;;1804               TEXT_SetBkColor(hItem,0x00BFFFFF);//选项背景色设为米色
;;;1805               TEXT_SetTextColor(hItem, GUI_BLACK);
;;;1806               
;;;1807               set_sw = set_34;
;;;1808               bit = 1;
;;;1809               dot_flag = 0;
;;;1810               Write_Limits();
;;;1811               break;
;;;1812           }
;;;1813           case set_37:
;;;1814           {
;;;1815               WM_HWIN hItem;
;;;1816   //            WM_InvalidateWindow(hWincdc);
;;;1817               hItem = WM_GetDialogItem(hWincdc, ID_TEXT_53);
;;;1818               TEXT_SetBkColor(hItem,GUI_INVALID_COLOR);//选项背景色设为透明
;;;1819               TEXT_SetTextColor(hItem, GUI_WHITE);
;;;1820                  
;;;1821               hItem = WM_GetDialogItem(hWincdc, ID_TEXT_57);
;;;1822               TEXT_SetBkColor(hItem,0x00BFFFFF);//选项背景色设为米色
;;;1823               TEXT_SetTextColor(hItem, GUI_BLACK);
;;;1824   
;;;1825               set_sw = set_33;
;;;1826               break;
;;;1827           }
;;;1828           case set_33:
;;;1829           {
;;;1830               WM_HWIN hItem;
;;;1831   //            WM_InvalidateWindow(hWincdc);
;;;1832               hItem = WM_GetDialogItem(hWincdc, ID_TEXT_57);
;;;1833               TEXT_SetBkColor(hItem,GUI_INVALID_COLOR);//选项背景色设为透明
;;;1834               TEXT_SetTextColor(hItem, GUI_WHITE);
;;;1835                  
;;;1836               hItem = WM_GetDialogItem(hWincdc, ID_TEXT_53);
;;;1837               TEXT_SetBkColor(hItem,0x00BFFFFF);//选项背景色设为米色
;;;1838               TEXT_SetTextColor(hItem, GUI_BLACK);
;;;1839   
;;;1840               set_sw = set_37;
;;;1841               bit = 1;
;;;1842               dot_flag = 0;
;;;1843               Write_Limits();
;;;1844               break;
;;;1845           }        
;;;1846           default: break;
;;;1847       }
;;;1848   }
0000e0  b003              ADD      sp,sp,#0xc
0000e2  ecbd8b04          VPOP     {d8-d9}
0000e6  e8bd8ff0          POP      {r4-r11,pc}
0000ea  4641              MOV      r1,r8                 ;1480
0000ec  4fc5              LDR      r7,|L5.1028|
0000ee  f7fffffe          BL       WM_GetDialogItem
0000f2  4680              MOV      r8,r0                 ;1480
0000f4  f06f4170          MVN      r1,#0xf0000000        ;1481
0000f8  f7fffffe          BL       TEXT_SetBkColor
0000fc  f06f417f          MVN      r1,#0xff000000        ;1482
000100  4640              MOV      r0,r8                 ;1482
000102  f7fffffe          BL       TEXT_SetTextColor
000106  7af8              LDRB     r0,[r7,#0xb]          ;1483  ; pow_step
000108  b130              CBZ      r0,|L5.280|
00010a  7af8              LDRB     r0,[r7,#0xb]          ;1486  ; pow_step
00010c  2801              CMP      r0,#1                 ;1486
00010e  d006              BEQ      |L5.286|
000110  7af8              LDRB     r0,[r7,#0xb]          ;1488  ; pow_step
000112  2802              CMP      r0,#2                 ;1488
000114  d007              BEQ      |L5.294|
000116  e00a              B        |L5.302|
                  |L5.280|
000118  48b3              LDR      r0,|L5.1000|
00011a  6fc1              LDR      r1,[r0,#0x7c]         ;1485  ; Run_Control
00011c  e006              B        |L5.300|
                  |L5.286|
00011e  48b2              LDR      r0,|L5.1000|
000120  f8d01080          LDR      r1,[r0,#0x80]         ;1487  ; Run_Control
000124  e002              B        |L5.300|
                  |L5.294|
000126  48b0              LDR      r0,|L5.1000|
000128  f8d01084          LDR      r1,[r0,#0x84]         ;1489  ; Run_Control
                  |L5.300|
00012c  6041              STR      r1,[r0,#4]            ;1489  ; Run_Control
                  |L5.302|
00012e  48ae              LDR      r0,|L5.1000|
000130  6840              LDR      r0,[r0,#4]            ;1492  ; Run_Control
000132  ee000a10          VMOV     s0,r0                 ;1492
000136  eef80a40          VCVT.F32.U32 s1,s0                 ;1492
00013a  ed9f1aac          VLDR     s2,|L5.1004|
00013e  ee800a81          VDIV.F32 s0,s1,s2              ;1492
000142  ee100a10          VMOV     r0,s0                 ;1493
000146  f7fffffe          BL       __aeabi_f2d
00014a  ec410b10          VMOV     d0,r0,r1              ;1493
00014e  a1b0              ADR      r1,|L5.1040|
000150  ec532b10          VMOV     r2,r3,d0              ;1493
000154  4668              MOV      r0,sp                 ;1493
000156  f7fffffe          BL       __2sprintf
00015a  4669              MOV      r1,sp                 ;1494
00015c  4640              MOV      r0,r8                 ;1494
00015e  f7fffffe          BL       TEXT_SetText
000162  4651              MOV      r1,r10                ;1504
000164  69b8              LDR      r0,[r7,#0x18]         ;1504  ; hWincdc
000166  f7fffffe          BL       WM_GetDialogItem
00016a  4607              MOV      r7,r0                 ;1504
00016c  49a6              LDR      r1,|L5.1032|
00016e  f7fffffe          BL       TEXT_SetBkColor
000172  2100              MOVS     r1,#0                 ;1506
000174  4638              MOV      r0,r7                 ;1506
000176  f7fffffe          BL       TEXT_SetTextColor
00017a  2019              MOVS     r0,#0x19              ;1508
00017c  e295              B        |L5.1706|
00017e  4659              MOV      r1,r11                ;1518
000180  4da0              LDR      r5,|L5.1028|
000182  f7fffffe          BL       WM_GetDialogItem
000186  4604              MOV      r4,r0                 ;1518
000188  f06f4170          MVN      r1,#0xf0000000        ;1519
00018c  f7fffffe          BL       TEXT_SetBkColor
000190  f06f417f          MVN      r1,#0xff000000        ;1520
000194  4620              MOV      r0,r4                 ;1520
000196  f7fffffe          BL       TEXT_SetTextColor
00019a  2000              MOVS     r0,#0                 ;1521
00019c  499b              LDR      r1,|L5.1036|
00019e  4602              MOV      r2,r0                 ;1466
                  |L5.416|
0001a0  540a              STRB     r2,[r1,r0]            ;1523
0001a2  1c40              ADDS     r0,r0,#1              ;1521
0001a4  b2c0              UXTB     r0,r0                 ;1521
0001a6  2805              CMP      r0,#5                 ;1521
0001a8  d3fa              BCC      |L5.416|
0001aa  f6400174          MOV      r1,#0x874             ;1526
0001ae  69a8              LDR      r0,[r5,#0x18]         ;1526  ; hWincdc
0001b0  f7fffffe          BL       WM_GetDialogItem
0001b4  4604              MOV      r4,r0                 ;1526
0001b6  4994              LDR      r1,|L5.1032|
0001b8  f7fffffe          BL       TEXT_SetBkColor
0001bc  2100              MOVS     r1,#0                 ;1528
0001be  4620              MOV      r0,r4                 ;1528
0001c0  f7fffffe          BL       TEXT_SetTextColor
0001c4  201e              MOVS     r0,#0x1e              ;1530
0001c6  e22b              B        |L5.1568|
0001c8  f6400174          MOV      r1,#0x874             ;1537
0001cc  4f8d              LDR      r7,|L5.1028|
0001ce  f7fffffe          BL       WM_GetDialogItem
0001d2  4680              MOV      r8,r0                 ;1537
0001d4  f06f4170          MVN      r1,#0xf0000000        ;1538
0001d8  f7fffffe          BL       TEXT_SetBkColor
0001dc  f06f417f          MVN      r1,#0xff000000        ;1539
0001e0  4640              MOV      r0,r8                 ;1539
0001e2  f7fffffe          BL       TEXT_SetTextColor
0001e6  7b38              LDRB     r0,[r7,#0xc]          ;1540  ; cur_step
0001e8  b130              CBZ      r0,|L5.504|
0001ea  7b38              LDRB     r0,[r7,#0xc]          ;1543  ; cur_step
0001ec  2801              CMP      r0,#1                 ;1543
0001ee  d007              BEQ      |L5.512|
0001f0  7b38              LDRB     r0,[r7,#0xc]          ;1545  ; cur_step
0001f2  2802              CMP      r0,#2                 ;1545
0001f4  d008              BEQ      |L5.520|
0001f6  e00b              B        |L5.528|
                  |L5.504|
0001f8  487b              LDR      r0,|L5.1000|
0001fa  f8d01088          LDR      r1,[r0,#0x88]         ;1542  ; Run_Control
0001fe  e006              B        |L5.526|
                  |L5.512|
000200  4879              LDR      r0,|L5.1000|
000202  f8d0108c          LDR      r1,[r0,#0x8c]         ;1544  ; Run_Control
000206  e002              B        |L5.526|
                  |L5.520|
000208  4877              LDR      r0,|L5.1000|
00020a  f8d01090          LDR      r1,[r0,#0x90]         ;1546  ; Run_Control
                  |L5.526|
00020e  6081              STR      r1,[r0,#8]            ;1546  ; Run_Control
                  |L5.528|
000210  4875              LDR      r0,|L5.1000|
000212  6882              LDR      r2,[r0,#8]            ;1549  ; Run_Control
000214  f2413188          MOV      r1,#0x1388            ;1549
000218  428a              CMP      r2,r1                 ;1549
00021a  d900              BLS      |L5.542|
00021c  6081              STR      r1,[r0,#8]            ;1551  ; Run_Control
                  |L5.542|
00021e  6880              LDR      r0,[r0,#8]            ;1553  ; Run_Control
000220  ee000a10          VMOV     s0,r0                 ;1553
000224  eef80a40          VCVT.F32.U32 s1,s0                 ;1553
000228  ed9f1a71          VLDR     s2,|L5.1008|
00022c  ee800a81          VDIV.F32 s0,s1,s2              ;1553
000230  ee100a10          VMOV     r0,s0                 ;1554
000234  f7fffffe          BL       __aeabi_f2d
000238  ec410b10          VMOV     d0,r0,r1              ;1554
00023c  a176              ADR      r1,|L5.1048|
00023e  ec532b10          VMOV     r2,r3,d0              ;1554
000242  4668              MOV      r0,sp                 ;1554
000244  f7fffffe          BL       __2sprintf
000248  4669              MOV      r1,sp                 ;1555
00024a  4640              MOV      r0,r8                 ;1555
00024c  f7fffffe          BL       TEXT_SetText
000250  4659              MOV      r1,r11                ;1566
000252  69b8              LDR      r0,[r7,#0x18]         ;1566  ; hWincdc
000254  f7fffffe          BL       WM_GetDialogItem
000258  4607              MOV      r7,r0                 ;1566
00025a  496b              LDR      r1,|L5.1032|
00025c  f7fffffe          BL       TEXT_SetBkColor
000260  2100              MOVS     r1,#0                 ;1568
000262  4638              MOV      r0,r7                 ;1568
000264  e00b              B        |L5.638|
000266  e182              B        |L5.1390|
000268  e12d              B        |L5.1222|
00026a  e0a1              B        |L5.944|
00026c  e031              B        |L5.722|
00026e  e224              B        |L5.1722|
000270  e157              B        |L5.1314|
000272  e103              B        |L5.1148|
000274  e1af              B        |L5.1494|
000276  e23e              B        |L5.1782|
000278  e1d5              B        |L5.1574|
00027a  e073              B        |L5.868|
00027c  e003              B        |L5.646|
                  |L5.638|
00027e  f7fffffe          BL       TEXT_SetTextColor
000282  201a              MOVS     r0,#0x1a              ;1570
000284  e211              B        |L5.1706|
                  |L5.646|
000286  f6400177          MOV      r1,#0x877             ;1580
00028a  4d5e              LDR      r5,|L5.1028|
00028c  f7fffffe          BL       WM_GetDialogItem
000290  4604              MOV      r4,r0                 ;1580
000292  f06f4170          MVN      r1,#0xf0000000        ;1581
000296  f7fffffe          BL       TEXT_SetBkColor
00029a  f06f417f          MVN      r1,#0xff000000        ;1582
00029e  4620              MOV      r0,r4                 ;1582
0002a0  f7fffffe          BL       TEXT_SetTextColor
0002a4  2000              MOVS     r0,#0                 ;1583
0002a6  4a59              LDR      r2,|L5.1036|
0002a8  4601              MOV      r1,r0                 ;1466
                  |L5.682|
0002aa  5411              STRB     r1,[r2,r0]            ;1585
0002ac  1c40              ADDS     r0,r0,#1              ;1583
0002ae  b2c0              UXTB     r0,r0                 ;1583
0002b0  2805              CMP      r0,#5                 ;1583
0002b2  d3fa              BCC      |L5.682|
0002b4  f640017b          MOV      r1,#0x87b             ;1588
0002b8  69a8              LDR      r0,[r5,#0x18]         ;1588  ; hWincdc
0002ba  f7fffffe          BL       WM_GetDialogItem
0002be  4604              MOV      r4,r0                 ;1588
0002c0  4951              LDR      r1,|L5.1032|
0002c2  f7fffffe          BL       TEXT_SetBkColor
0002c6  2100              MOVS     r1,#0                 ;1590
0002c8  4620              MOV      r0,r4                 ;1590
0002ca  f7fffffe          BL       TEXT_SetTextColor
0002ce  2025              MOVS     r0,#0x25              ;1592
0002d0  e1a6              B        |L5.1568|
                  |L5.722|
0002d2  f640017b          MOV      r1,#0x87b             ;1599
0002d6  f8df912c          LDR      r9,|L5.1028|
0002da  f7fffffe          BL       WM_GetDialogItem
0002de  4680              MOV      r8,r0                 ;1599
0002e0  f06f4170          MVN      r1,#0xf0000000        ;1600
0002e4  f7fffffe          BL       TEXT_SetBkColor
0002e8  f06f417f          MVN      r1,#0xff000000        ;1601
0002ec  4640              MOV      r0,r8                 ;1601
0002ee  f7fffffe          BL       TEXT_SetTextColor
0002f2  f899000d          LDRB     r0,[r9,#0xd]          ;1603  ; coffv_step
0002f6  b140              CBZ      r0,|L5.778|
0002f8  f899100d          LDRB     r1,[r9,#0xd]          ;1606  ; coffv_step
0002fc  4648              MOV      r0,r9                 ;1606
0002fe  2901              CMP      r1,#1                 ;1606
000300  d005              BEQ      |L5.782|
000302  7b40              LDRB     r0,[r0,#0xd]          ;1608  ; coffv_step
000304  2802              CMP      r0,#2                 ;1608
000306  d004              BEQ      |L5.786|
000308  e00c              B        |L5.804|
                  |L5.778|
00030a  8838              LDRH     r0,[r7,#0]            ;1605  ; coff
00030c  e002              B        |L5.788|
                  |L5.782|
00030e  8878              LDRH     r0,[r7,#2]            ;1607  ; coff
000310  e000              B        |L5.788|
                  |L5.786|
000312  88b8              LDRH     r0,[r7,#4]            ;1609  ; coff
                  |L5.788|
000314  eddf0a35          VLDR     s1,|L5.1004|
000318  ee000a10          VMOV     s0,r0                 ;1609
00031c  eeb80a40          VCVT.F32.U32 s0,s0                 ;1609
000320  ee808a20          VDIV.F32 s16,s0,s1             ;1609
                  |L5.804|
000324  ee180a10          VMOV     r0,s16                ;1613
000328  f7fffffe          BL       __aeabi_f2d
00032c  ec410b10          VMOV     d0,r0,r1              ;1613
000330  a137              ADR      r1,|L5.1040|
000332  ec532b10          VMOV     r2,r3,d0              ;1613
000336  4668              MOV      r0,sp                 ;1613
000338  f7fffffe          BL       __2sprintf
00033c  4669              MOV      r1,sp                 ;1614
00033e  4640              MOV      r0,r8                 ;1614
000340  f7fffffe          BL       TEXT_SetText
000344  f6400177          MOV      r1,#0x877             ;1624
000348  f8d90018          LDR      r0,[r9,#0x18]         ;1624  ; hWincdc
00034c  f7fffffe          BL       WM_GetDialogItem
000350  4607              MOV      r7,r0                 ;1624
000352  492d              LDR      r1,|L5.1032|
000354  f7fffffe          BL       TEXT_SetBkColor
000358  2100              MOVS     r1,#0                 ;1626
00035a  4638              MOV      r0,r7                 ;1626
00035c  f7fffffe          BL       TEXT_SetTextColor
000360  201b              MOVS     r0,#0x1b              ;1628
000362  e1a2              B        |L5.1706|
                  |L5.868|
000364  f6400178          MOV      r1,#0x878             ;1638
000368  4d26              LDR      r5,|L5.1028|
00036a  f7fffffe          BL       WM_GetDialogItem
00036e  4604              MOV      r4,r0                 ;1638
000370  f06f4170          MVN      r1,#0xf0000000        ;1639
000374  f7fffffe          BL       TEXT_SetBkColor
000378  f06f417f          MVN      r1,#0xff000000        ;1640
00037c  4620              MOV      r0,r4                 ;1640
00037e  f7fffffe          BL       TEXT_SetTextColor
000382  2000              MOVS     r0,#0                 ;1641
000384  4921              LDR      r1,|L5.1036|
000386  4602              MOV      r2,r0                 ;1466
                  |L5.904|
000388  540a              STRB     r2,[r1,r0]            ;1643
00038a  1c40              ADDS     r0,r0,#1              ;1641
00038c  b2c0              UXTB     r0,r0                 ;1641
00038e  2805              CMP      r0,#5                 ;1641
000390  d3fa              BCC      |L5.904|
000392  f640017c          MOV      r1,#0x87c             ;1646
000396  69a8              LDR      r0,[r5,#0x18]         ;1646  ; hWincdc
000398  f7fffffe          BL       WM_GetDialogItem
00039c  4604              MOV      r4,r0                 ;1646
00039e  491a              LDR      r1,|L5.1032|
0003a0  f7fffffe          BL       TEXT_SetBkColor
0003a4  2100              MOVS     r1,#0                 ;1648
0003a6  4620              MOV      r0,r4                 ;1648
0003a8  f7fffffe          BL       TEXT_SetTextColor
0003ac  2026              MOVS     r0,#0x26              ;1650
0003ae  e137              B        |L5.1568|
                  |L5.944|
0003b0  f640017c          MOV      r1,#0x87c             ;1657
0003b4  f8df904c          LDR      r9,|L5.1028|
0003b8  f7fffffe          BL       WM_GetDialogItem
0003bc  4680              MOV      r8,r0                 ;1657
0003be  f06f4170          MVN      r1,#0xf0000000        ;1658
0003c2  f7fffffe          BL       TEXT_SetBkColor
0003c6  f06f417f          MVN      r1,#0xff000000        ;1659
0003ca  4640              MOV      r0,r8                 ;1659
0003cc  f7fffffe          BL       TEXT_SetTextColor
0003d0  f899000e          LDRB     r0,[r9,#0xe]          ;1661  ; coffc_step
0003d4  b320              CBZ      r0,|L5.1056|
0003d6  f899100e          LDRB     r1,[r9,#0xe]          ;1664  ; coffc_step
0003da  4648              MOV      r0,r9                 ;1664
0003dc  2901              CMP      r1,#1                 ;1664
0003de  d021              BEQ      |L5.1060|
0003e0  7b80              LDRB     r0,[r0,#0xe]          ;1666  ; coffc_step
0003e2  2802              CMP      r0,#2                 ;1666
0003e4  d020              BEQ      |L5.1064|
0003e6  e028              B        |L5.1082|
                  |L5.1000|
                          DCD      Run_Control
                  |L5.1004|
0003ec  42c80000          DCFS     0x42c80000 ; 100
                  |L5.1008|
0003f0  447a0000          DCFS     0x447a0000 ; 1000
                  |L5.1012|
                          DCD      set_sw
                  |L5.1016|
                          DCD      bit
                  |L5.1020|
                          DCD      dot_flag
                  |L5.1024|
                          DCD      ||.bss||
                  |L5.1028|
                          DCD      ||.data||
                  |L5.1032|
                          DCD      0x00bfffff
                  |L5.1036|
                          DCD      set_limit
                  |L5.1040|
000410  252e3266          DCB      "%.2f",0
000414  00      
000415  00                DCB      0
000416  00                DCB      0
000417  00                DCB      0
                  |L5.1048|
000418  252e3366          DCB      "%.3f",0
00041c  00      
00041d  00                DCB      0
00041e  00                DCB      0
00041f  00                DCB      0
                  |L5.1056|
000420  88f8              LDRH     r0,[r7,#6]            ;1663  ; coff
000422  e002              B        |L5.1066|
                  |L5.1060|
000424  8938              LDRH     r0,[r7,#8]            ;1665  ; coff
000426  e000              B        |L5.1066|
                  |L5.1064|
000428  8978              LDRH     r0,[r7,#0xa]          ;1667  ; coff
                  |L5.1066|
00042a  ed5f0a0f          VLDR     s1,|L5.1008|
00042e  ee000a10          VMOV     s0,r0                 ;1667
000432  eeb80a40          VCVT.F32.U32 s0,s0                 ;1667
000436  eec08a20          VDIV.F32 s17,s0,s1             ;1667
                  |L5.1082|
00043a  ee180a90          VMOV     r0,s17                ;1670
00043e  f7fffffe          BL       __aeabi_f2d
000442  ec410b10          VMOV     d0,r0,r1              ;1670
000446  ec532b10          VMOV     r2,r3,d0              ;1670
00044a  f2af0134          ADR      r1,|L5.1048|
00044e  4668              MOV      r0,sp                 ;1670
000450  f7fffffe          BL       __2sprintf
000454  4669              MOV      r1,sp                 ;1671
000456  4640              MOV      r0,r8                 ;1671
000458  f7fffffe          BL       TEXT_SetText
00045c  f6400178          MOV      r1,#0x878             ;1680
000460  f8d90018          LDR      r0,[r9,#0x18]         ;1680  ; hWincdc
000464  f7fffffe          BL       WM_GetDialogItem
000468  4607              MOV      r7,r0                 ;1680
00046a  49b2              LDR      r1,|L5.1844|
00046c  f7fffffe          BL       TEXT_SetBkColor
000470  2100              MOVS     r1,#0                 ;1682
000472  4638              MOV      r0,r7                 ;1682
000474  f7fffffe          BL       TEXT_SetTextColor
000478  201c              MOVS     r0,#0x1c              ;1684
00047a  e116              B        |L5.1706|
                  |L5.1148|
00047c  4649              MOV      r1,r9                 ;1694
00047e  4dae              LDR      r5,|L5.1848|
000480  f7fffffe          BL       WM_GetDialogItem
000484  4604              MOV      r4,r0                 ;1694
000486  f06f4170          MVN      r1,#0xf0000000        ;1695
00048a  f7fffffe          BL       TEXT_SetBkColor
00048e  f06f417f          MVN      r1,#0xff000000        ;1696
000492  4620              MOV      r0,r4                 ;1696
000494  f7fffffe          BL       TEXT_SetTextColor
000498  2000              MOVS     r0,#0                 ;1697
00049a  4aa8              LDR      r2,|L5.1852|
00049c  4601              MOV      r1,r0                 ;1466
                  |L5.1182|
00049e  5411              STRB     r1,[r2,r0]            ;1699
0004a0  1c40              ADDS     r0,r0,#1              ;1697
0004a2  b2c0              UXTB     r0,r0                 ;1697
0004a4  2805              CMP      r0,#5                 ;1697
0004a6  d3fa              BCC      |L5.1182|
0004a8  f640017d          MOV      r1,#0x87d             ;1702
0004ac  69a8              LDR      r0,[r5,#0x18]         ;1702  ; hWincdc
0004ae  f7fffffe          BL       WM_GetDialogItem
0004b2  4604              MOV      r4,r0                 ;1702
0004b4  499f              LDR      r1,|L5.1844|
0004b6  f7fffffe          BL       TEXT_SetBkColor
0004ba  2100              MOVS     r1,#0                 ;1704
0004bc  4620              MOV      r0,r4                 ;1704
0004be  f7fffffe          BL       TEXT_SetTextColor
0004c2  2027              MOVS     r0,#0x27              ;1706
0004c4  e0ac              B        |L5.1568|
                  |L5.1222|
0004c6  f640017d          MOV      r1,#0x87d             ;1713
0004ca  4f9b              LDR      r7,|L5.1848|
0004cc  f7fffffe          BL       WM_GetDialogItem
0004d0  4680              MOV      r8,r0                 ;1713
0004d2  f06f4170          MVN      r1,#0xf0000000        ;1714
0004d6  f7fffffe          BL       TEXT_SetBkColor
0004da  f06f417f          MVN      r1,#0xff000000        ;1715
0004de  4640              MOV      r0,r8                 ;1715
0004e0  f7fffffe          BL       TEXT_SetTextColor
0004e4  ee190a10          VMOV     r0,s18                ;1717
0004e8  f7fffffe          BL       __aeabi_f2d
0004ec  ec410b10          VMOV     d0,r0,r1              ;1717
0004f0  ec532b10          VMOV     r2,r3,d0              ;1717
0004f4  f2af01e0          ADR      r1,|L5.1048|
0004f8  4668              MOV      r0,sp                 ;1717
0004fa  f7fffffe          BL       __2sprintf
0004fe  4669              MOV      r1,sp                 ;1718
000500  4640              MOV      r0,r8                 ;1718
000502  f7fffffe          BL       TEXT_SetText
000506  4649              MOV      r1,r9                 ;1720
000508  69b8              LDR      r0,[r7,#0x18]         ;1720  ; hWincdc
00050a  f7fffffe          BL       WM_GetDialogItem
00050e  4607              MOV      r7,r0                 ;1720
000510  4988              LDR      r1,|L5.1844|
000512  f7fffffe          BL       TEXT_SetBkColor
000516  2100              MOVS     r1,#0                 ;1722
000518  4638              MOV      r0,r7                 ;1722
00051a  f7fffffe          BL       TEXT_SetTextColor
00051e  2022              MOVS     r0,#0x22              ;1724
000520  e0c3              B        |L5.1706|
                  |L5.1314|
000522  f640017a          MOV      r1,#0x87a             ;1734
000526  4d84              LDR      r5,|L5.1848|
000528  f7fffffe          BL       WM_GetDialogItem
00052c  4604              MOV      r4,r0                 ;1734
00052e  f06f4170          MVN      r1,#0xf0000000        ;1735
000532  f7fffffe          BL       TEXT_SetBkColor
000536  f06f417f          MVN      r1,#0xff000000        ;1736
00053a  4620              MOV      r0,r4                 ;1736
00053c  f7fffffe          BL       TEXT_SetTextColor
000540  2000              MOVS     r0,#0                 ;1737
000542  4a7e              LDR      r2,|L5.1852|
000544  4601              MOV      r1,r0                 ;1466
                  |L5.1350|
000546  5411              STRB     r1,[r2,r0]            ;1739
000548  1c40              ADDS     r0,r0,#1              ;1737
00054a  b2c0              UXTB     r0,r0                 ;1737
00054c  2805              CMP      r0,#5                 ;1737
00054e  d3fa              BCC      |L5.1350|
000550  f640017e          MOV      r1,#0x87e             ;1742
000554  69a8              LDR      r0,[r5,#0x18]         ;1742  ; hWincdc
000556  f7fffffe          BL       WM_GetDialogItem
00055a  4604              MOV      r4,r0                 ;1742
00055c  4975              LDR      r1,|L5.1844|
00055e  f7fffffe          BL       TEXT_SetBkColor
000562  2100              MOVS     r1,#0                 ;1744
000564  4620              MOV      r0,r4                 ;1744
000566  f7fffffe          BL       TEXT_SetTextColor
00056a  2028              MOVS     r0,#0x28              ;1746
00056c  e058              B        |L5.1568|
                  |L5.1390|
00056e  f640017e          MOV      r1,#0x87e             ;1753
000572  4f71              LDR      r7,|L5.1848|
000574  f7fffffe          BL       WM_GetDialogItem
000578  4680              MOV      r8,r0                 ;1753
00057a  f06f4170          MVN      r1,#0xf0000000        ;1754
00057e  f7fffffe          BL       TEXT_SetBkColor
000582  f06f417f          MVN      r1,#0xff000000        ;1755
000586  4640              MOV      r0,r8                 ;1755
000588  f7fffffe          BL       TEXT_SetTextColor
00058c  ee190a90          VMOV     r0,s19                ;1757
000590  f7fffffe          BL       __aeabi_f2d
000594  ec410b10          VMOV     d0,r0,r1              ;1757
000598  ec532b10          VMOV     r2,r3,d0              ;1757
00059c  f2af1190          ADR      r1,|L5.1040|
0005a0  4668              MOV      r0,sp                 ;1757
0005a2  f7fffffe          BL       __2sprintf
0005a6  4669              MOV      r1,sp                 ;1758
0005a8  4640              MOV      r0,r8                 ;1758
0005aa  f7fffffe          BL       TEXT_SetText
0005ae  f640017a          MOV      r1,#0x87a             ;1760
0005b2  69b8              LDR      r0,[r7,#0x18]         ;1760  ; hWincdc
0005b4  f7fffffe          BL       WM_GetDialogItem
0005b8  4607              MOV      r7,r0                 ;1760
0005ba  495e              LDR      r1,|L5.1844|
0005bc  f7fffffe          BL       TEXT_SetBkColor
0005c0  2100              MOVS     r1,#0                 ;1762
0005c2  4638              MOV      r0,r7                 ;1762
0005c4  f7fffffe          BL       TEXT_SetTextColor
0005c8  495d              LDR      r1,|L5.1856|
0005ca  2023              MOVS     r0,#0x23              ;1764
0005cc  7008              STRB     r0,[r1,#0]            ;1764
0005ce  702c              STRB     r4,[r5,#0]            ;1765
0005d0  2000              MOVS     r0,#0                 ;1766
0005d2  7030              STRB     r0,[r6,#0]            ;1766
0005d4  e584              B        |L5.224|
                  |L5.1494|
0005d6  f6400171          MOV      r1,#0x871             ;1773
0005da  4d57              LDR      r5,|L5.1848|
0005dc  f7fffffe          BL       WM_GetDialogItem
0005e0  4604              MOV      r4,r0                 ;1773
0005e2  f06f4170          MVN      r1,#0xf0000000        ;1774
0005e6  f7fffffe          BL       TEXT_SetBkColor
0005ea  f06f417f          MVN      r1,#0xff000000        ;1775
0005ee  4620              MOV      r0,r4                 ;1775
0005f0  f7fffffe          BL       TEXT_SetTextColor
0005f4  2000              MOVS     r0,#0                 ;1776
0005f6  4a51              LDR      r2,|L5.1852|
0005f8  4601              MOV      r1,r0                 ;1466
                  |L5.1530|
0005fa  5411              STRB     r1,[r2,r0]            ;1778
0005fc  1c40              ADDS     r0,r0,#1              ;1776
0005fe  b2c0              UXTB     r0,r0                 ;1776
000600  2805              CMP      r0,#5                 ;1776
000602  d3fa              BCC      |L5.1530|
000604  f6400175          MOV      r1,#0x875             ;1781
000608  69a8              LDR      r0,[r5,#0x18]         ;1781  ; hWincdc
00060a  f7fffffe          BL       WM_GetDialogItem
00060e  4604              MOV      r4,r0                 ;1781
000610  4948              LDR      r1,|L5.1844|
000612  f7fffffe          BL       TEXT_SetBkColor
000616  2100              MOVS     r1,#0                 ;1783
000618  4620              MOV      r0,r4                 ;1783
00061a  f7fffffe          BL       TEXT_SetTextColor
00061e  201f              MOVS     r0,#0x1f              ;1785
                  |L5.1568|
000620  4947              LDR      r1,|L5.1856|
000622  7008              STRB     r0,[r1,#0]            ;1825
000624  e55c              B        |L5.224|
                  |L5.1574|
000626  f6400175          MOV      r1,#0x875             ;1792
00062a  4f43              LDR      r7,|L5.1848|
00062c  f7fffffe          BL       WM_GetDialogItem
000630  4680              MOV      r8,r0                 ;1792
000632  f06f4170          MVN      r1,#0xf0000000        ;1793
000636  f7fffffe          BL       TEXT_SetBkColor
00063a  f06f417f          MVN      r1,#0xff000000        ;1794
00063e  4640              MOV      r0,r8                 ;1794
000640  f7fffffe          BL       TEXT_SetTextColor
000644  483f              LDR      r0,|L5.1860|
000646  f8d0109c          LDR      r1,[r0,#0x9c]         ;1795  ; Run_Control
00064a  6101              STR      r1,[r0,#0x10]         ;1795  ; Run_Control
00064c  6901              LDR      r1,[r0,#0x10]         ;1796  ; Run_Control
00064e  f64e2260          MOV      r2,#0xea60            ;1796
000652  4291              CMP      r1,r2                 ;1796
000654  d901              BLS      |L5.1626|
000656  2100              MOVS     r1,#0                 ;1797
000658  6101              STR      r1,[r0,#0x10]         ;1797  ; Run_Control
                  |L5.1626|
00065a  6900              LDR      r0,[r0,#0x10]         ;1799  ; Run_Control
00065c  ee000a10          VMOV     s0,r0                 ;1799
000660  eef80a40          VCVT.F32.U32 s1,s0                 ;1799
000664  ed1f1a9e          VLDR     s2,|L5.1008|
000668  ee800a81          VDIV.F32 s0,s1,s2              ;1799
00066c  ee100a10          VMOV     r0,s0                 ;1800
000670  f7fffffe          BL       __aeabi_f2d
000674  ec410b10          VMOV     d0,r0,r1              ;1800
000678  ec532b10          VMOV     r2,r3,d0              ;1800
00067c  f2af2168          ADR      r1,|L5.1048|
000680  4668              MOV      r0,sp                 ;1800
000682  f7fffffe          BL       __2sprintf
000686  4669              MOV      r1,sp                 ;1801
000688  4640              MOV      r0,r8                 ;1801
00068a  f7fffffe          BL       TEXT_SetText
00068e  f6400171          MOV      r1,#0x871             ;1803
000692  69b8              LDR      r0,[r7,#0x18]         ;1803  ; hWincdc
000694  f7fffffe          BL       WM_GetDialogItem
000698  4607              MOV      r7,r0                 ;1803
00069a  4926              LDR      r1,|L5.1844|
00069c  f7fffffe          BL       TEXT_SetBkColor
0006a0  2100              MOVS     r1,#0                 ;1805
0006a2  4638              MOV      r0,r7                 ;1805
0006a4  f7fffffe          BL       TEXT_SetTextColor
0006a8  2021              MOVS     r0,#0x21              ;1807
                  |L5.1706|
0006aa  4925              LDR      r1,|L5.1856|
0006ac  7008              STRB     r0,[r1,#0]            ;1840
0006ae  702c              STRB     r4,[r5,#0]            ;1841
0006b0  2000              MOVS     r0,#0                 ;1842
0006b2  7030              STRB     r0,[r6,#0]            ;1842
0006b4  f7fffffe          BL       Write_Limits
0006b8  e512              B        |L5.224|
                  |L5.1722|
0006ba  f6400172          MOV      r1,#0x872             ;1817
0006be  4d1e              LDR      r5,|L5.1848|
0006c0  f7fffffe          BL       WM_GetDialogItem
0006c4  4604              MOV      r4,r0                 ;1817
0006c6  f06f4170          MVN      r1,#0xf0000000        ;1818
0006ca  f7fffffe          BL       TEXT_SetBkColor
0006ce  f06f417f          MVN      r1,#0xff000000        ;1819
0006d2  4620              MOV      r0,r4                 ;1819
0006d4  f7fffffe          BL       TEXT_SetTextColor
0006d8  f6400176          MOV      r1,#0x876             ;1821
0006dc  69a8              LDR      r0,[r5,#0x18]         ;1821  ; hWincdc
0006de  f7fffffe          BL       WM_GetDialogItem
0006e2  4604              MOV      r4,r0                 ;1821
0006e4  4913              LDR      r1,|L5.1844|
0006e6  f7fffffe          BL       TEXT_SetBkColor
0006ea  2100              MOVS     r1,#0                 ;1823
0006ec  4620              MOV      r0,r4                 ;1823
0006ee  f7fffffe          BL       TEXT_SetTextColor
0006f2  2020              MOVS     r0,#0x20              ;1825
0006f4  e794              B        |L5.1568|
                  |L5.1782|
0006f6  f6400176          MOV      r1,#0x876             ;1832
0006fa  4f0f              LDR      r7,|L5.1848|
0006fc  f7fffffe          BL       WM_GetDialogItem
000700  4680              MOV      r8,r0                 ;1832
000702  f06f4170          MVN      r1,#0xf0000000        ;1833
000706  f7fffffe          BL       TEXT_SetBkColor
00070a  f06f417f          MVN      r1,#0xff000000        ;1834
00070e  4640              MOV      r0,r8                 ;1834
000710  f7fffffe          BL       TEXT_SetTextColor
000714  f6400172          MOV      r1,#0x872             ;1836
000718  69b8              LDR      r0,[r7,#0x18]         ;1836  ; hWincdc
00071a  f7fffffe          BL       WM_GetDialogItem
00071e  4607              MOV      r7,r0                 ;1836
000720  4904              LDR      r1,|L5.1844|
000722  f7fffffe          BL       TEXT_SetBkColor
000726  2100              MOVS     r1,#0                 ;1838
000728  4638              MOV      r0,r7                 ;1838
00072a  f7fffffe          BL       TEXT_SetTextColor
00072e  2024              MOVS     r0,#0x24              ;1840
000730  e7bb              B        |L5.1706|
;;;1849   
                          ENDP

000732  0000              DCW      0x0000
                  |L5.1844|
                          DCD      0x00bfffff
                  |L5.1848|
                          DCD      ||.data||
                  |L5.1852|
                          DCD      set_limit
                  |L5.1856|
                          DCD      set_sw
                  |L5.1860|
                          DCD      Run_Control

                          AREA ||i.CreateCDC||, CODE, READONLY, ALIGN=2

                  CreateCDC PROC
;;;964    WM_HWIN CreateCDC(void);
;;;965    WM_HWIN CreateCDC(void) {
000000  b51c              PUSH     {r2-r4,lr}
;;;966      page_sw = face_cdc;
000002  4816              LDR      r0,|L6.92|
000004  2101              MOVS     r1,#1
000006  7001              STRB     r1,[r0,#0]
;;;967      set_sw = set_26;
000008  4a15              LDR      r2,|L6.96|
00000a  2019              MOVS     r0,#0x19
00000c  7010              STRB     r0,[r2,#0]
;;;968      pass = 0;
00000e  4815              LDR      r0,|L6.100|
000010  2400              MOVS     r4,#0
000012  7004              STRB     r4,[r0,#0]
;;;969      SET_Voltage = opv1;
000014  4814              LDR      r0,|L6.104|
000016  6fc2              LDR      r2,[r0,#0x7c]  ; Run_Control
000018  6042              STR      r2,[r0,#4]  ; Run_Control
;;;970      SET_Current = opc1;
00001a  f8d02088          LDR      r2,[r0,#0x88]  ; Run_Control
00001e  6082              STR      r2,[r0,#8]  ; Run_Control
;;;971      SET_Current_Laod = cdc_dc;
000020  f8d0209c          LDR      r2,[r0,#0x9c]  ; Run_Control
000024  6102              STR      r2,[r0,#0x10]  ; Run_Control
;;;972      track = face_cdc;
000026  4811              LDR      r0,|L6.108|
000028  7001              STRB     r1,[r0,#0]
;;;973      TM1650_SET_LED(0x68,0x70);
00002a  2170              MOVS     r1,#0x70
00002c  2068              MOVS     r0,#0x68
00002e  f7fffffe          BL       TM1650_SET_LED
;;;974      GPIO_ResetBits(GPIOD,GPIO_Pin_12);//İֆ
000032  f44f5180          MOV      r1,#0x1000
000036  480e              LDR      r0,|L6.112|
000038  f7fffffe          BL       GPIO_ResetBits
;;;975      IO_OFF();//
00003c  f7fffffe          BL       IO_OFF
;;;976    //  double_sw = face_cdc;
;;;977      hWincdc = GUI_CreateDialogBox(_aDialogCreate4, GUI_COUNTOF(_aDialogCreate4), _cbDialog, WM_HBKWIN, 0, 0);
000040  f7fffffe          BL       WM_GetDesktopWindow
000044  4603              MOV      r3,r0
000046  9400              STR      r4,[sp,#0]
000048  4a0a              LDR      r2,|L6.116|
00004a  2129              MOVS     r1,#0x29
00004c  480a              LDR      r0,|L6.120|
00004e  9401              STR      r4,[sp,#4]
000050  f7fffffe          BL       GUI_CreateDialogBox
000054  4909              LDR      r1,|L6.124|
000056  6188              STR      r0,[r1,#0x18]  ; hWincdc
;;;978      return hWincdc;
;;;979    }
000058  bd1c              POP      {r2-r4,pc}
;;;980    
                          ENDP

00005a  0000              DCW      0x0000
                  |L6.92|
                          DCD      page_sw
                  |L6.96|
                          DCD      set_sw
                  |L6.100|
                          DCD      pass
                  |L6.104|
                          DCD      Run_Control
                  |L6.108|
                          DCD      track
                  |L6.112|
                          DCD      0x40020c00
                  |L6.116|
                          DCD      _cbDialog
                  |L6.120|
                          DCD      ||.constdata||
                  |L6.124|
                          DCD      ||.data||

                          AREA ||i.INPUT_CDC||, CODE, READONLY, ALIGN=2

                          REQUIRE _printf_pre_padding
                          REQUIRE _printf_percent
                          REQUIRE _printf_widthprec
                          REQUIRE _printf_d
                          REQUIRE _printf_int_dec
                  INPUT_CDC PROC
;;;1851              
;;;1852   void INPUT_CDC(char* num){
000000  e92d4ff8          PUSH     {r3-r11,lr}
000004  4681              MOV      r9,r0
;;;1853       char loop_count[2];
;;;1854       switch(set_sw){
000006  48fe              LDR      r0,|L7.1024|
000008  7802              LDRB     r2,[r0,#0]  ; set_sw
;;;1855           case set_30:
;;;1856           {
;;;1857               WM_HWIN hItem;
;;;1858   //            WM_InvalidateWindow(hWincdc);
;;;1859               hItem = WM_GetDialogItem(hWincdc, ID_TEXT_54);
00000a  f8df8400          LDR      r8,|L7.1036|
00000e  3a1d              SUBS     r2,r2,#0x1d           ;1854
;;;1860               switch(bit){
;;;1861                   case 1:
;;;1862                   {
;;;1863                       if(pow_step == step1)
;;;1864                       {
;;;1865                           opv1 = atoi(num) * 100;
000010  4cfc              LDR      r4,|L7.1028|
;;;1866                       }else if(pow_step == step2){
;;;1867                           opv2 = atoi(num) * 100;
;;;1868                       }else if(pow_step == step3){
;;;1869                           opv3 = atoi(num) * 100;
;;;1870                       }
;;;1871   //                    SET_Voltage = atoi(num) * 100;
;;;1872                       strcat(set_limit,num);            
;;;1873                       TEXT_SetText(hItem,set_limit);
;;;1874                       bit = 2;
;;;1875                       break;
;;;1876                   }
;;;1877                   case 2:
;;;1878                   {
;;;1879                       strcat(set_limit,num);            
;;;1880                       TEXT_SetText(hItem,set_limit);
;;;1881                       if(set_limit[1] == 0x2e)//判断输入是否为小数点
;;;1882                       {
;;;1883                           dot_flag = 1;
;;;1884                       }else{
;;;1885                           if(pow_step == step1)
;;;1886                           {
;;;1887                               opv1 = opv1 * 10 + atoi(num) * 100;
;;;1888                           }else if(pow_step == step2){
;;;1889                               opv2 = opv2 * 10 + atoi(num) * 100;
;;;1890                           }else if(pow_step == step3){
;;;1891                              opv3 = opv3 * 10 + atoi(num) * 100;
;;;1892                           }
;;;1893                           
;;;1894   //                        SET_Voltage = SET_Voltage * 10 + atoi(num) * 100;
;;;1895                       }
;;;1896                       bit = 3;
;;;1897                       break;
;;;1898                   }
;;;1899                   case 3:
;;;1900                   {
;;;1901                       strcat(set_limit,num);
;;;1902                       TEXT_SetText(hItem,set_limit);
;;;1903                       if(dot_flag == 0)
;;;1904                       {
;;;1905                           if(set_limit[2] == 0x2e)//判断输入是否为小数点
;;;1906                           {                            
;;;1907                               dot_flag = 2;
;;;1908                           }else{
;;;1909                               if(pow_step == step1)
;;;1910                               {
;;;1911                                  opv1 = /*3000*/ 6200;
;;;1912                               }else if(pow_step == step2){
;;;1913                                   opv2 = /*3000*/ 6200;
;;;1914                               }else if(pow_step == step3){
;;;1915                                  opv3 =  /*3000*/ 6200;
;;;1916                               }
;;;1917   //                            SET_Voltage = /*3000*/ 6200;
;;;1918                           }
;;;1919                       }else{
;;;1920                           if(pow_step == step1)
;;;1921                           {
;;;1922                              opv1 = opv1 + atoi(num) * 10;
;;;1923                           }else if(pow_step == step2){
;;;1924                               opv2 = opv2 + atoi(num) * 10;
;;;1925                           }else if(pow_step == step3){
;;;1926                              opv3 = opv3 + atoi(num) * 10;
;;;1927                           }
;;;1928   //                        SET_Voltage = SET_Voltage + atoi(num) * 10;
;;;1929                       }
;;;1930                                          
;;;1931                       bit = 4;
;;;1932                       break;
;;;1933                   }
;;;1934                   case 4:
;;;1935                   {
;;;1936                       strcat(set_limit,num);
;;;1937                       TEXT_SetText(hItem,set_limit);
;;;1938                       if(dot_flag == 0)
;;;1939                       {
;;;1940                           if(pow_step == step1)
;;;1941                           {
;;;1942                              opv1 = /*3000*/ 6200;
;;;1943                           }else if(pow_step == step2){
;;;1944                               opv2 = /*3000*/ 6200;
;;;1945                           }else if(pow_step == step3){
;;;1946                              opv3 =  /*3000*/ 6200;
;;;1947                           }
;;;1948   //                        SET_Voltage = /*3000*/ 6200;
;;;1949                       }else if(dot_flag == 2){
;;;1950                           if(pow_step == step1)
;;;1951                           {
;;;1952                              opv1 = opv1 + atoi(num) * 10;
;;;1953                           }else if(pow_step == step2){
;;;1954                               opv2 = opv2 + atoi(num) * 10;
;;;1955                           }else if(pow_step == step3){
;;;1956                              opv3 = opv3 + atoi(num) * 10;
;;;1957                           }
;;;1958   //                        SET_Voltage = SET_Voltage + atoi(num) * 10;
;;;1959                       }else{
;;;1960                           if(pow_step == step1)
;;;1961                           {
;;;1962                              opv1 = opv1 + atoi(num);
;;;1963                           }else if(pow_step == step2){
;;;1964                               opv2 = opv2 + atoi(num);
;;;1965                           }else if(pow_step == step3){
;;;1966                              opv3 = opv3 + atoi(num);
;;;1967                           }
;;;1968    //                       SET_Voltage = SET_Voltage + atoi(num);
;;;1969                       }
;;;1970                                          
;;;1971                       bit = 5;
;;;1972                       break;
;;;1973                   }
;;;1974                   case 5:
;;;1975                   {
;;;1976                       strcat(set_limit,num);
;;;1977                       TEXT_SetText(hItem,set_limit);
;;;1978                       if(dot_flag == 0)
;;;1979                       {
;;;1980                           if(pow_step == step1)
;;;1981                               {
;;;1982                                  opv1 = /*3000*/ 6200;
;;;1983                               }else if(pow_step == step2){
;;;1984                                   opv2 = /*3000*/ 6200;
;;;1985                               }else if(pow_step == step3){
;;;1986                                  opv3 =  /*3000*/ 6200;
;;;1987                               }
;;;1988                       }else if(dot_flag == 1){
;;;1989                           if(pow_step == step1)
;;;1990                               {
;;;1991                                  opv1 = opv1;
;;;1992                               }else if(pow_step == step2){
;;;1993                                   opv2 =opv2;
;;;1994                               }else if(pow_step == step3){
;;;1995                                  opv3 =  opv3;
;;;1996                               }
;;;1997   //                        cdc_cv = cdc_cv;
;;;1998                       }else{
;;;1999                           if(pow_step == step1)
;;;2000                               {
;;;2001                                  opv1 = opv1 + atoi(num);
;;;2002                               }else if(pow_step == step2){
;;;2003                                   opv2 = opv2 + atoi(num);
;;;2004                               }else if(pow_step == step3){
;;;2005                                  opv3 = opv3 + atoi(num);
;;;2006                               }
;;;2007   //                        cdc_cv = cdc_cv + atoi(num);
;;;2008                       }
;;;2009                                          
;;;2010                       bit = 1;
;;;2011                       break;
;;;2012                   }
;;;2013               }
;;;2014               break;
;;;2015           }
;;;2016           case set_31:
;;;2017           {
;;;2018               WM_HWIN hItem;
;;;2019   //            WM_InvalidateWindow(hWincdc);
;;;2020               hItem = WM_GetDialogItem(hWincdc, ID_TEXT_55);
;;;2021               switch(bit){
;;;2022                   case 1:
;;;2023                   {
;;;2024                       if(cur_step == step1)
;;;2025                       {
;;;2026                           opc1 = atoi(num) * 1000;
;;;2027                       }else if(cur_step == step2){
;;;2028                           opc2 = atoi(num) * 1000;
;;;2029                       }else if(cur_step == step3){
;;;2030                           opc3 = atoi(num) * 1000;
;;;2031                       }
;;;2032                       strcat(set_limit,num);            
;;;2033                       TEXT_SetText(hItem,set_limit);
;;;2034                       bit = 2;
;;;2035                       break;
;;;2036                   }
;;;2037                   case 2:
;;;2038                   {
;;;2039                       strcat(set_limit,num);            
;;;2040                       TEXT_SetText(hItem,set_limit);
;;;2041                       if(set_limit[1] == 0x2e)//判断输入是否为小数点
;;;2042                       {
;;;2043                           dot_flag = 1;
;;;2044                       }else{
;;;2045                           if(cur_step == step1)
;;;2046                           {
;;;2047                               opc1 = opc1 * 10 + atoi(num) * 1000;
;;;2048                           }else if(cur_step == step2){
;;;2049                               opc2 = opc2 * 10 + atoi(num) * 1000;
;;;2050                           }else if(cur_step == step3){
;;;2051                               opc2 = opc2 * 10 + atoi(num) * 1000;
;;;2052                           }
;;;2053   //                        SET_Current = SET_Current * 10 + atoi(num) * 1000;
;;;2054                       }
;;;2055                       bit = 3;
;;;2056                       break;
;;;2057                   }
;;;2058                   case 3:
;;;2059                   {
;;;2060                       strcat(set_limit,num);
;;;2061                       TEXT_SetText(hItem,set_limit);
;;;2062                       if(dot_flag == 0)
;;;2063                       {
;;;2064                           if(set_limit[2] == 0x2e)//判断输入是否为小数点
;;;2065                           {                            
;;;2066                               dot_flag = 2;
;;;2067                           }else{
;;;2068                               if(cur_step == step1)
;;;2069                               {
;;;2070                                   opc1 = 5000;
;;;2071                               }else if(cur_step == step2){
;;;2072                                   opc2 = 5000;
;;;2073                               }else if(cur_step == step3){
;;;2074                                   opc3 = 5000;
;;;2075                               }
;;;2076   //                            SET_Current = 15000;
;;;2077                           }
;;;2078                       }else{
;;;2079                           if(cur_step == step1)
;;;2080                           {
;;;2081                               opc1 = opc1 + atoi(num) * 100;
;;;2082                           }else if(cur_step == step2){
;;;2083                               opc2 = opc2 + atoi(num) * 100;
;;;2084                           }else if(cur_step == step3){
;;;2085                               opc3 = opc3 + atoi(num) * 100;
;;;2086                           }
;;;2087   //                        SET_Current = SET_Current + atoi(num) * 100;
;;;2088                       }
;;;2089                                          
;;;2090                       bit = 4;
;;;2091                       break;
;;;2092                   }
;;;2093                   case 4:
;;;2094                   {
;;;2095                       strcat(set_limit,num);
;;;2096                       TEXT_SetText(hItem,set_limit);
;;;2097                       if(dot_flag == 0)
;;;2098                       {
;;;2099                           if(cur_step == step1)
;;;2100                           {
;;;2101                               opc1 = 5000;
;;;2102                           }else if(cur_step == step2){
;;;2103                               opc2 = 5000;
;;;2104                           }else if(cur_step == step3){
;;;2105                               opc3 = 5000;
;;;2106                           }
;;;2107   //                        SET_Current = 15000;
;;;2108                       }else if(dot_flag == 2){
;;;2109                           if(cur_step == step1)
;;;2110                           {
;;;2111                               opc1 = opc1 + atoi(num) * 100;
;;;2112                           }else if(cur_step == step2){
;;;2113                               opc2 = opc2 + atoi(num) * 100;
;;;2114                           }else if(cur_step == step3){
;;;2115                               opc3 = opc3 + atoi(num) * 100;
;;;2116                           }
;;;2117   //                        SET_Current = SET_Current + atoi(num) * 100;
;;;2118                       }else{
;;;2119                           if(cur_step == step1)
;;;2120                           {
;;;2121                               opc1 = opc1 + atoi(num) * 10;
;;;2122                           }else if(cur_step == step2){
;;;2123                               opc2 = opc2 + atoi(num) * 10;
;;;2124                           }else if(cur_step == step3){
;;;2125                               opc3 = opc3 + atoi(num) * 10;
;;;2126                           }
;;;2127   //                        SET_Current = SET_Current + atoi(num) * 10;
;;;2128                       }
;;;2129                                          
;;;2130                       bit = 5;
;;;2131                       break;
;;;2132                   }
;;;2133                   case 5:
;;;2134                   {
;;;2135                       strcat(set_limit,num);
;;;2136                       TEXT_SetText(hItem,set_limit);
;;;2137                       if(dot_flag == 0)
;;;2138                       {
;;;2139                           if(cur_step == step1)
;;;2140                           {
;;;2141                               opc1 = 5000;
;;;2142                           }else if(cur_step == step2){
;;;2143                               opc2 = 5000;
;;;2144                           }else if(cur_step == step3){
;;;2145                               opc3 = 5000;
;;;2146                           }
;;;2147   //                        SET_Current = 15000;
;;;2148                       }else if(dot_flag == 1){
;;;2149                           if(cur_step == step1)
;;;2150                           {
;;;2151                               opc1 = opc1 + atoi(num);
;;;2152                           }else if(cur_step == step2){
;;;2153                               opc2 = opc2 + atoi(num);
;;;2154                           }else if(cur_step == step3){
;;;2155                               opc3 = opc3 + atoi(num);
;;;2156                           }
;;;2157   //                        SET_Current = SET_Current + atoi(num);
;;;2158                       }else{
;;;2159                           if(cur_step == step1)
;;;2160                           {
;;;2161                               opc1 = opc1 + atoi(num) * 10;
;;;2162                           }else if(cur_step == step2){
;;;2163                               opc2 = opc2 + atoi(num) * 10;
;;;2164                           }else if(cur_step == step3){
;;;2165                               opc3 = opc3 + atoi(num) * 10;
;;;2166                           }
;;;2167   //                        SET_Current = SET_Current + atoi(num) * 10;
;;;2168                       }
;;;2169                                          
;;;2170                       bit = 6;
;;;2171                       break;
;;;2172                   }
;;;2173                   case 6:
;;;2174                   {
;;;2175                       strcat(set_limit,num);
;;;2176                       TEXT_SetText(hItem,set_limit);
;;;2177                       if(dot_flag == 0)
;;;2178                       {
;;;2179                           if(cur_step == step1)
;;;2180                           {
;;;2181                               opc1 = 15000;
;;;2182                           }else if(cur_step == step2){
;;;2183                               opc2 = 15000;
;;;2184                           }else if(cur_step == step3){
;;;2185                               opc3 = 15000;
;;;2186                           }
;;;2187   //                        SET_Current = 0;
;;;2188                       }else if(dot_flag == 2){
;;;2189                           if(cur_step == step1)
;;;2190                           {
;;;2191                               opc1 = opc1 + atoi(num);
;;;2192                           }else if(cur_step == step2){
;;;2193                               opc2 = opc2 + atoi(num);
;;;2194                           }else if(cur_step == step3){
;;;2195                               opc3 = opc3 + atoi(num);
;;;2196                           }
;;;2197   //                        SET_Current = SET_Current + atoi(num);
;;;2198                       }                 
;;;2199                       bit = 1;
;;;2200                       break;
;;;2201                   }
;;;2202               }
;;;2203               break;
;;;2204           }
;;;2205           case set_32:
;;;2206           {
;;;2207               WM_HWIN hItem;
;;;2208   //            WM_InvalidateWindow(hWincdc);
;;;2209               hItem = WM_GetDialogItem(hWincdc, ID_TEXT_56);
;;;2210               switch(bit){
;;;2211                   case 1:
;;;2212                   {
;;;2213                       cdc_dc = atoi(num) * 1000;
;;;2214   //                    SET_Current_Laod = atoi(num) * 1000;
;;;2215                       strcat(set_limit,num);            
;;;2216                       TEXT_SetText(hItem,set_limit);
;;;2217   
;;;2218                       
;;;2219                       bit = 2;
;;;2220                       break;
;;;2221                   }
;;;2222                   case 2:
;;;2223                   {
;;;2224                       strcat(set_limit,num);            
;;;2225                       TEXT_SetText(hItem,set_limit);
;;;2226                       if(set_limit[1] == 0x2e)//判断输入是否为小数点
;;;2227                       {
;;;2228                           dot_flag = 1;
;;;2229                       }else{
;;;2230                           cdc_dc = cdc_dc * 10 + atoi(num) * 1000;
;;;2231   //                        SET_Current_Laod = SET_Current_Laod * 10 + atoi(num) * 1000;
;;;2232                       }
;;;2233                       bit = 3;
;;;2234                       break;
;;;2235                   }
;;;2236                   case 3:
;;;2237                   {
;;;2238                       strcat(set_limit,num);
;;;2239                       TEXT_SetText(hItem,set_limit);
;;;2240                       if(dot_flag == 0)
;;;2241                       {
;;;2242                           if(set_limit[2] == 0x2e)//判断输入是否为小数点
;;;2243                           {                            
;;;2244                               dot_flag = 2;
;;;2245                           }else{
;;;2246                               cdc_dc = 0;
;;;2247                           }
;;;2248                       }else{
;;;2249                           cdc_dc = cdc_dc + atoi(num) * 100;
;;;2250                       }                  
;;;2251                       bit = 4;
;;;2252                       break;
;;;2253                   }
;;;2254                   case 4:
;;;2255                   {
;;;2256                       strcat(set_limit,num);
;;;2257                       TEXT_SetText(hItem,set_limit);
;;;2258                       if(dot_flag == 0)
;;;2259                       {
;;;2260                           cdc_dc = 0;
;;;2261                       }else if(dot_flag == 2){
;;;2262                           cdc_dc = cdc_dc + atoi(num) * 100;
;;;2263                       }else{
;;;2264                           cdc_dc = cdc_dc + atoi(num) * 10;
;;;2265                       }                  
;;;2266                       bit = 5;
;;;2267                       break;
;;;2268                   }
;;;2269                   case 5:
;;;2270                   {
;;;2271                       strcat(set_limit,num);
;;;2272                       TEXT_SetText(hItem,set_limit);
;;;2273                       if(dot_flag == 0)
;;;2274                       {
;;;2275                           cdc_dc = 0;
;;;2276                       }else if(dot_flag == 1){
;;;2277                           cdc_dc = cdc_dc + atoi(num);
;;;2278                       }else{
;;;2279                           cdc_dc = cdc_dc + atoi(num) * 10;
;;;2280                       }                 
;;;2281                       bit = 6;
;;;2282                       break;
;;;2283                   }
;;;2284                   case 6:
;;;2285                   {
;;;2286                       strcat(set_limit,num);
;;;2287                       TEXT_SetText(hItem,set_limit);
;;;2288                       if(dot_flag == 0)
;;;2289                       {
;;;2290                           cdc_dc = 0;
;;;2291                       }else if(dot_flag == 2){
;;;2292                           cdc_dc = cdc_dc + atoi(num);
;;;2293                       }                 
;;;2294                       bit = 1;
;;;2295                       break;
;;;2296                   }
;;;2297               }
;;;2298               break;
;;;2299           }
;;;2300           case set_33:
;;;2301           {
;;;2302               WM_HWIN hItem;
;;;2303   //            WM_InvalidateWindow(hWincdc);
;;;2304               hItem = WM_GetDialogItem(hWincdc, ID_TEXT_57);
;;;2305               switch(bit){
;;;2306                   case 1:
;;;2307                   {
;;;2308                       set_loop_count = atoi(num);                    
;;;2309                       sprintf(loop_count,"%2d",set_loop_count);
;;;2310                       TEXT_SetText(hItem,loop_count);
;;;2311                       bit = 2;
;;;2312                       break;
;;;2313                   }
;;;2314                   case 2:
;;;2315                   {
;;;2316                       set_loop_count = set_loop_count*10 + atoi(num);                    
;;;2317                       sprintf(loop_count,"%2d",set_loop_count);
;;;2318                       TEXT_SetText(hItem,loop_count);
;;;2319                       bit = 1;
;;;2320                       break;
;;;2321                   }                
;;;2322               }
;;;2323               break;
;;;2324           }
;;;2325           case set_38:
;;;2326           {
;;;2327               WM_HWIN hItem;
;;;2328   //            WM_InvalidateWindow(hWincdc);
;;;2329               hItem = WM_GetDialogItem(hWincdc, ID_TEXT_62);
;;;2330               switch(bit){
;;;2331                   case 1:
;;;2332                   {
;;;2333                       if(coffv_step == step1)
;;;2334                       {
;;;2335                           cov1 = atoi(num) * 100;
000012  4efd              LDR      r6,|L7.1032|
000014  4dfe              LDR      r5,|L7.1040|
000016  f8d80018          LDR      r0,[r8,#0x18]         ;1854
00001a  f04f0b02          MOV      r11,#2                ;1874
00001e  f6410a38          MOV      r10,#0x1838           ;1911
000022  f2413788          MOV      r7,#0x1388            ;2070
000026  2a0c              CMP      r2,#0xc               ;1854
                  |L7.40|
000028  d27b              BCS      |L7.290|
00002a  e8dff002          TBB      [pc,r2]               ;1854
00002e  06f5              DCB      0x06,0xf5
000030  f4f37a7a          DCB      0xf4,0xf3,0x7a,0x7a
000034  7a7af2f1          DCB      0x7a,0x7a,0xf2,0xf1
000038  f0ef              DCB      0xf0,0xef
00003a  f6400173          MOV      r1,#0x873             ;1859
00003e  f7fffffe          BL       WM_GetDialogItem
000042  4ef4              LDR      r6,|L7.1044|
000044  4607              MOV      r7,r0                 ;1859
000046  7830              LDRB     r0,[r6,#0]            ;1860  ; bit
000048  2806              CMP      r0,#6                 ;1860
00004a  d2ed              BCS      |L7.40|
00004c  e8dff000          TBB      [pc,r0]               ;1860
000050  69032c6a          DCB      0x69,0x03,0x2c,0x6a
000054  b9f7              DCB      0xb9,0xf7
000056  f898000b          LDRB     r0,[r8,#0xb]          ;1863  ; pow_step
00005a  b140              CBZ      r0,|L7.110|
00005c  f898000b          LDRB     r0,[r8,#0xb]          ;1866  ; pow_step
000060  2801              CMP      r0,#1                 ;1866
000062  d00b              BEQ      |L7.124|
000064  f898000b          LDRB     r0,[r8,#0xb]          ;1868  ; pow_step
000068  2802              CMP      r0,#2                 ;1868
00006a  d00f              BEQ      |L7.140|
00006c  e015              B        |L7.154|
                  |L7.110|
00006e  4648              MOV      r0,r9                 ;1865
000070  f7fffffe          BL       atoi
000074  2164              MOVS     r1,#0x64              ;1865
000076  4348              MULS     r0,r1,r0              ;1865
000078  67e0              STR      r0,[r4,#0x7c]         ;1865  ; Run_Control
00007a  e00e              B        |L7.154|
                  |L7.124|
00007c  4648              MOV      r0,r9                 ;1867
00007e  f7fffffe          BL       atoi
000082  2164              MOVS     r1,#0x64              ;1867
000084  4348              MULS     r0,r1,r0              ;1867
000086  f8c40080          STR      r0,[r4,#0x80]         ;1867  ; Run_Control
00008a  e006              B        |L7.154|
                  |L7.140|
00008c  4648              MOV      r0,r9                 ;1869
00008e  f7fffffe          BL       atoi
000092  2164              MOVS     r1,#0x64              ;1869
000094  4348              MULS     r0,r1,r0              ;1869
000096  f8c40084          STR      r0,[r4,#0x84]         ;1869  ; Run_Control
                  |L7.154|
00009a  4649              MOV      r1,r9                 ;1872
00009c  48de              LDR      r0,|L7.1048|
00009e  f7fffffe          BL       strcat
0000a2  49dd              LDR      r1,|L7.1048|
0000a4  4638              MOV      r0,r7                 ;1873
0000a6  e3ee              B        |L7.2182|
0000a8  4649              MOV      r1,r9                 ;1879
0000aa  48db              LDR      r0,|L7.1048|
0000ac  f7fffffe          BL       strcat
0000b0  49d9              LDR      r1,|L7.1048|
0000b2  4638              MOV      r0,r7                 ;1880
0000b4  f7fffffe          BL       TEXT_SetText
0000b8  48d7              LDR      r0,|L7.1048|
0000ba  7840              LDRB     r0,[r0,#1]            ;1881  ; set_limit
0000bc  282e              CMP      r0,#0x2e              ;1881
0000be  d00b              BEQ      |L7.216|
0000c0  f898000b          LDRB     r0,[r8,#0xb]          ;1885  ; pow_step
0000c4  b158              CBZ      r0,|L7.222|
0000c6  f898000b          LDRB     r0,[r8,#0xb]          ;1888  ; pow_step
0000ca  2801              CMP      r0,#1                 ;1888
0000cc  d013              BEQ      |L7.246|
0000ce  f898000b          LDRB     r0,[r8,#0xb]          ;1890  ; pow_step
0000d2  2802              CMP      r0,#2                 ;1890
0000d4  d017              BEQ      |L7.262|
                  |L7.214|
0000d6  e3ee              B        |L7.2230|
                  |L7.216|
0000d8  2001              MOVS     r0,#1                 ;1883
0000da  7028              STRB     r0,[r5,#0]            ;1883
0000dc  e7fb              B        |L7.214|
                  |L7.222|
0000de  4648              MOV      r0,r9                 ;1887
0000e0  f7fffffe          BL       atoi
0000e4  2164              MOVS     r1,#0x64              ;1887
0000e6  4348              MULS     r0,r1,r0              ;1887
0000e8  6fe1              LDR      r1,[r4,#0x7c]         ;1887  ; Run_Control
0000ea  eb010181          ADD      r1,r1,r1,LSL #2       ;1887
0000ee  eb000041          ADD      r0,r0,r1,LSL #1       ;1887
0000f2  67e0              STR      r0,[r4,#0x7c]         ;1887  ; Run_Control
0000f4  e7ef              B        |L7.214|
                  |L7.246|
0000f6  4648              MOV      r0,r9                 ;1889
0000f8  f7fffffe          BL       atoi
0000fc  2164              MOVS     r1,#0x64              ;1889
0000fe  4348              MULS     r0,r1,r0              ;1889
000100  f1040480          ADD      r4,r4,#0x80           ;1889
000104  e006              B        |L7.276|
                  |L7.262|
000106  4648              MOV      r0,r9                 ;1891
000108  f7fffffe          BL       atoi
00010c  2164              MOVS     r1,#0x64              ;1891
00010e  4348              MULS     r0,r1,r0              ;1891
000110  f1040484          ADD      r4,r4,#0x84           ;1891
                  |L7.276|
000114  6821              LDR      r1,[r4,#0]            ;1891  ; Run_Control
000116  eb010181          ADD      r1,r1,r1,LSL #2       ;1891
00011a  eb000041          ADD      r0,r0,r1,LSL #1       ;1891
00011e  6020              STR      r0,[r4,#0]            ;1891  ; Run_Control
000120  e7d9              B        |L7.214|
                  |L7.290|
000122  e118              B        |L7.854|
000124  4649              MOV      r1,r9                 ;1901
000126  48bc              LDR      r0,|L7.1048|
000128  f7fffffe          BL       strcat
00012c  49ba              LDR      r1,|L7.1048|
00012e  4638              MOV      r0,r7                 ;1902
000130  f7fffffe          BL       TEXT_SetText
000134  7828              LDRB     r0,[r5,#0]            ;1903  ; dot_flag
000136  b158              CBZ      r0,|L7.336|
000138  f898000b          LDRB     r0,[r8,#0xb]          ;1920  ; pow_step
00013c  b318              CBZ      r0,|L7.390|
00013e  f898000b          LDRB     r0,[r8,#0xb]          ;1923  ; pow_step
000142  2801              CMP      r0,#1                 ;1923
000144  d029              BEQ      |L7.410|
000146  f898000b          LDRB     r0,[r8,#0xb]          ;1925  ; pow_step
00014a  2802              CMP      r0,#2                 ;1925
00014c  d02d              BEQ      |L7.426|
                  |L7.334|
00014e  e356              B        |L7.2046|
                  |L7.336|
000150  48b1              LDR      r0,|L7.1048|
000152  7880              LDRB     r0,[r0,#2]            ;1905  ; set_limit
000154  282e              CMP      r0,#0x2e              ;1905
000156  d00b              BEQ      |L7.368|
000158  f898000b          LDRB     r0,[r8,#0xb]          ;1909  ; pow_step
00015c  b158              CBZ      r0,|L7.374|
00015e  f898000b          LDRB     r0,[r8,#0xb]          ;1912  ; pow_step
000162  2801              CMP      r0,#1                 ;1912
000164  d009              BEQ      |L7.378|
000166  f898000b          LDRB     r0,[r8,#0xb]          ;1914  ; pow_step
00016a  2802              CMP      r0,#2                 ;1914
00016c  d008              BEQ      |L7.384|
00016e  e7ee              B        |L7.334|
                  |L7.368|
000170  f885b000          STRB     r11,[r5,#0]           ;1907
000174  e7eb              B        |L7.334|
                  |L7.374|
000176  4650              MOV      r0,r10                ;1911
000178  e00d              B        |L7.406|
                  |L7.378|
00017a  f8c4a080          STR      r10,[r4,#0x80]        ;1913  ; Run_Control
00017e  e7e6              B        |L7.334|
                  |L7.384|
000180  f8c4a084          STR      r10,[r4,#0x84]        ;1915  ; Run_Control
000184  e7e3              B        |L7.334|
                  |L7.390|
000186  4648              MOV      r0,r9                 ;1922
000188  f7fffffe          BL       atoi
00018c  6fe1              LDR      r1,[r4,#0x7c]         ;1922  ; Run_Control
00018e  eb000080          ADD      r0,r0,r0,LSL #2       ;1922
000192  eb010040          ADD      r0,r1,r0,LSL #1       ;1922
                  |L7.406|
000196  67e0              STR      r0,[r4,#0x7c]         ;1922  ; Run_Control
000198  e7d9              B        |L7.334|
                  |L7.410|
00019a  4648              MOV      r0,r9                 ;1924
00019c  f7fffffe          BL       atoi
0001a0  eb000080          ADD      r0,r0,r0,LSL #2       ;1924
0001a4  f1040480          ADD      r4,r4,#0x80           ;1924
0001a8  e006              B        |L7.440|
                  |L7.426|
0001aa  4648              MOV      r0,r9                 ;1926
0001ac  f7fffffe          BL       atoi
0001b0  eb000080          ADD      r0,r0,r0,LSL #2       ;1926
0001b4  f1040484          ADD      r4,r4,#0x84           ;1926
                  |L7.440|
0001b8  6821              LDR      r1,[r4,#0]            ;1926  ; Run_Control
0001ba  eb010040          ADD      r0,r1,r0,LSL #1       ;1926
                  |L7.446|
0001be  6020              STR      r0,[r4,#0]            ;1926  ; Run_Control
0001c0  e7c5              B        |L7.334|
0001c2  4649              MOV      r1,r9                 ;1936
0001c4  4894              LDR      r0,|L7.1048|
0001c6  f7fffffe          BL       strcat
0001ca  4993              LDR      r1,|L7.1048|
0001cc  4638              MOV      r0,r7                 ;1937
0001ce  f7fffffe          BL       TEXT_SetText
0001d2  7828              LDRB     r0,[r5,#0]            ;1938  ; dot_flag
0001d4  b170              CBZ      r0,|L7.500|
0001d6  7828              LDRB     r0,[r5,#0]            ;1949  ; dot_flag
0001d8  2802              CMP      r0,#2                 ;1949
0001da  f898000b          LDRB     r0,[r8,#0xb]          ;1960  ; pow_step
0001de  d024              BEQ      |L7.554|
0001e0  b370              CBZ      r0,|L7.576|
0001e2  f898000b          LDRB     r0,[r8,#0xb]          ;1963  ; pow_step
0001e6  2801              CMP      r0,#1                 ;1963
0001e8  d04e              BEQ      |L7.648|
0001ea  f898000b          LDRB     r0,[r8,#0xb]          ;1965  ; pow_step
0001ee  2802              CMP      r0,#2                 ;1965
0001f0  d050              BEQ      |L7.660|
                  |L7.498|
0001f2  e31c              B        |L7.2094|
                  |L7.500|
0001f4  f898000b          LDRB     r0,[r8,#0xb]          ;1940  ; pow_step
0001f8  b178              CBZ      r0,|L7.538|
0001fa  f898000b          LDRB     r0,[r8,#0xb]          ;1943  ; pow_step
0001fe  2801              CMP      r0,#1                 ;1943
000200  d00d              BEQ      |L7.542|
000202  f898000b          LDRB     r0,[r8,#0xb]          ;1945  ; pow_step
000206  2802              CMP      r0,#2                 ;1945
000208  d00c              BEQ      |L7.548|
00020a  e7f2              B        |L7.498|
00020c  e3f0              B        |L7.2544|
00020e  e3f0              B        |L7.2546|
000210  e3f0              B        |L7.2548|
000212  e38d              B        |L7.2352|
000214  e356              B        |L7.2244|
000216  e2a5              B        |L7.1892|
000218  e09f              B        |L7.858|
                  |L7.538|
00021a  4650              MOV      r0,r10                ;1942
00021c  e032              B        |L7.644|
                  |L7.542|
00021e  f8c4a080          STR      r10,[r4,#0x80]        ;1944  ; Run_Control
000222  e7e6              B        |L7.498|
                  |L7.548|
000224  f8c4a084          STR      r10,[r4,#0x84]        ;1946  ; Run_Control
000228  e7e3              B        |L7.498|
                  |L7.554|
00022a  b150              CBZ      r0,|L7.578|
00022c  f898000b          LDRB     r0,[r8,#0xb]          ;1953  ; pow_step
000230  2801              CMP      r0,#1                 ;1953
000232  d00f              BEQ      |L7.596|
000234  f898000b          LDRB     r0,[r8,#0xb]          ;1955  ; pow_step
000238  2802              CMP      r0,#2                 ;1955
00023a  d013              BEQ      |L7.612|
00023c  e7d9              B        |L7.498|
00023e  e032              B        |L7.678|
                  |L7.576|
000240  e01b              B        |L7.634|
                  |L7.578|
000242  4648              MOV      r0,r9                 ;1952
000244  f7fffffe          BL       atoi
000248  6fe1              LDR      r1,[r4,#0x7c]         ;1952  ; Run_Control
00024a  eb000080          ADD      r0,r0,r0,LSL #2       ;1952
00024e  eb010040          ADD      r0,r1,r0,LSL #1       ;1952
000252  e017              B        |L7.644|
                  |L7.596|
000254  4648              MOV      r0,r9                 ;1954
000256  f7fffffe          BL       atoi
00025a  eb000080          ADD      r0,r0,r0,LSL #2       ;1954
00025e  f1040480          ADD      r4,r4,#0x80           ;1954
000262  e006              B        |L7.626|
                  |L7.612|
000264  4648              MOV      r0,r9                 ;1956
000266  f7fffffe          BL       atoi
00026a  eb000080          ADD      r0,r0,r0,LSL #2       ;1956
00026e  f1040484          ADD      r4,r4,#0x84           ;1956
                  |L7.626|
000272  6821              LDR      r1,[r4,#0]            ;1956  ; Run_Control
000274  eb010040          ADD      r0,r1,r0,LSL #1       ;1956
000278  e013              B        |L7.674|
                  |L7.634|
00027a  4648              MOV      r0,r9                 ;1962
00027c  f7fffffe          BL       atoi
000280  6fe1              LDR      r1,[r4,#0x7c]         ;1962  ; Run_Control
000282  4408              ADD      r0,r0,r1              ;1962
                  |L7.644|
000284  67e0              STR      r0,[r4,#0x7c]         ;1962  ; Run_Control
000286  e7b4              B        |L7.498|
                  |L7.648|
000288  4648              MOV      r0,r9                 ;1964
00028a  f7fffffe          BL       atoi
00028e  f1040480          ADD      r4,r4,#0x80           ;1964
000292  e004              B        |L7.670|
                  |L7.660|
000294  4648              MOV      r0,r9                 ;1966
000296  f7fffffe          BL       atoi
00029a  f1040484          ADD      r4,r4,#0x84           ;1966
                  |L7.670|
00029e  6821              LDR      r1,[r4,#0]            ;1966  ; Run_Control
0002a0  4408              ADD      r0,r0,r1              ;1966
                  |L7.674|
0002a2  6020              STR      r0,[r4,#0]            ;1966  ; Run_Control
0002a4  e7a5              B        |L7.498|
                  |L7.678|
0002a6  4649              MOV      r1,r9                 ;1976
0002a8  485b              LDR      r0,|L7.1048|
0002aa  f7fffffe          BL       strcat
0002ae  495a              LDR      r1,|L7.1048|
0002b0  4638              MOV      r0,r7                 ;1977
0002b2  f7fffffe          BL       TEXT_SetText
0002b6  7828              LDRB     r0,[r5,#0]            ;1978  ; dot_flag
0002b8  b170              CBZ      r0,|L7.728|
0002ba  7828              LDRB     r0,[r5,#0]            ;1988  ; dot_flag
0002bc  2801              CMP      r0,#1                 ;1988
0002be  f898000b          LDRB     r0,[r8,#0xb]          ;1999  ; pow_step
0002c2  d01d              BEQ      |L7.768|
0002c4  b378              CBZ      r0,|L7.806|
0002c6  f898000b          LDRB     r0,[r8,#0xb]          ;2002  ; pow_step
0002ca  2801              CMP      r0,#1                 ;2002
0002cc  d033              BEQ      |L7.822|
0002ce  f898000b          LDRB     r0,[r8,#0xb]          ;2004  ; pow_step
0002d2  2802              CMP      r0,#2                 ;2004
0002d4  d035              BEQ      |L7.834|
                  |L7.726|
0002d6  e2ea              B        |L7.2222|
                  |L7.728|
0002d8  f898000b          LDRB     r0,[r8,#0xb]          ;1980  ; pow_step
0002dc  b140              CBZ      r0,|L7.752|
0002de  f898000b          LDRB     r0,[r8,#0xb]          ;1983  ; pow_step
0002e2  2801              CMP      r0,#1                 ;1983
0002e4  d006              BEQ      |L7.756|
0002e6  f898000b          LDRB     r0,[r8,#0xb]          ;1985  ; pow_step
0002ea  2802              CMP      r0,#2                 ;1985
0002ec  d005              BEQ      |L7.762|
0002ee  e7f2              B        |L7.726|
                  |L7.752|
0002f0  4650              MOV      r0,r10                ;1982
0002f2  e01e              B        |L7.818|
                  |L7.756|
0002f4  f8c4a080          STR      r10,[r4,#0x80]        ;1984  ; Run_Control
0002f8  e7ed              B        |L7.726|
                  |L7.762|
0002fa  f8c4a084          STR      r10,[r4,#0x84]        ;1986  ; Run_Control
0002fe  e7ea              B        |L7.726|
                  |L7.768|
000300  b140              CBZ      r0,|L7.788|
000302  f898000b          LDRB     r0,[r8,#0xb]          ;1992  ; pow_step
000306  2801              CMP      r0,#1                 ;1992
000308  d006              BEQ      |L7.792|
00030a  f898000b          LDRB     r0,[r8,#0xb]          ;1994  ; pow_step
00030e  2802              CMP      r0,#2                 ;1994
000310  d005              BEQ      |L7.798|
000312  e7e0              B        |L7.726|
                  |L7.788|
000314  6fe0              LDR      r0,[r4,#0x7c]         ;1991  ; Run_Control
000316  e00c              B        |L7.818|
                  |L7.792|
000318  f1040480          ADD      r4,r4,#0x80           ;1991
00031c  e001              B        |L7.802|
                  |L7.798|
00031e  f1040484          ADD      r4,r4,#0x84           ;1993
                  |L7.802|
000322  6820              LDR      r0,[r4,#0]            ;1995  ; Run_Control
000324  e014              B        |L7.848|
                  |L7.806|
000326  e7ff              B        |L7.808|
                  |L7.808|
000328  4648              MOV      r0,r9                 ;2001
00032a  f7fffffe          BL       atoi
00032e  6fe1              LDR      r1,[r4,#0x7c]         ;2001  ; Run_Control
000330  4408              ADD      r0,r0,r1              ;2001
                  |L7.818|
000332  67e0              STR      r0,[r4,#0x7c]         ;2001  ; Run_Control
000334  e7cf              B        |L7.726|
                  |L7.822|
000336  4648              MOV      r0,r9                 ;2003
000338  f7fffffe          BL       atoi
00033c  f1040480          ADD      r4,r4,#0x80           ;2003
000340  e004              B        |L7.844|
                  |L7.834|
000342  4648              MOV      r0,r9                 ;2005
000344  f7fffffe          BL       atoi
000348  f1040484          ADD      r4,r4,#0x84           ;2005
                  |L7.844|
00034c  6821              LDR      r1,[r4,#0]            ;2005  ; Run_Control
00034e  4408              ADD      r0,r0,r1              ;2005
                  |L7.848|
000350  6020              STR      r0,[r4,#0]            ;2005  ; Run_Control
000352  e7c0              B        |L7.726|
                  |L7.852|
000354  7030              STRB     r0,[r6,#0]            ;2010
                  |L7.854|
;;;2336                       }else if(coffv_step == step2){
;;;2337                           cov2 = atoi(num) * 100;
;;;2338                       }else if(coffv_step == step3){
;;;2339                           cov3 = atoi(num) * 100;
;;;2340                       }
;;;2341                       
;;;2342   //                    set_c_cutoff_v = atoi(num) * 100;
;;;2343                       strcat(set_limit,num);            
;;;2344                       TEXT_SetText(hItem,set_limit);
;;;2345                       bit = 2;
;;;2346                       break;
;;;2347                   }
;;;2348                   case 2:
;;;2349                   {
;;;2350                       strcat(set_limit,num);            
;;;2351                       TEXT_SetText(hItem,set_limit);
;;;2352                       if(set_limit[1] == 0x2e)//判断输入是否为小数点
;;;2353                       {
;;;2354                           dot_flag = 1;
;;;2355                       }else{
;;;2356                           if(coffv_step == step1)
;;;2357                           {
;;;2358                               cov1 = cov1 * 10 + atoi(num) * 100;
;;;2359                           }else if(coffv_step == step2){
;;;2360                               cov2 = cov2 * 10 + atoi(num) * 100;
;;;2361                           }else if(coffv_step == step3){
;;;2362                               cov3 = cov3 * 10 + atoi(num) * 100;
;;;2363                           }
;;;2364   //                        set_c_cutoff_v = set_c_cutoff_v * 10 + atoi(num) * 100;
;;;2365                       }
;;;2366                       bit = 3;
;;;2367                       break;
;;;2368                   }
;;;2369                   case 3:
;;;2370                   {
;;;2371                       strcat(set_limit,num);
;;;2372                       TEXT_SetText(hItem,set_limit);
;;;2373                       if(dot_flag == 0)
;;;2374                       {
;;;2375                           if(set_limit[2] == 0x2e)//判断输入是否为小数点
;;;2376                           {                            
;;;2377                               dot_flag = 2;
;;;2378                           }else{
;;;2379                               if(coffv_step == step1)
;;;2380                               {
;;;2381                                   cov1 =6200;
;;;2382                               }else if(coffv_step == step2){
;;;2383                                   cov2 = 6200;
;;;2384                               }else if(coffv_step == step3){
;;;2385                                   cov3 = 6200;
;;;2386                               }
;;;2387   //                            set_c_cutoff_v = 6200;
;;;2388                           }
;;;2389                       }else{
;;;2390                           if(coffv_step == step1)
;;;2391                           {
;;;2392                               cov1 = cov1 + atoi(num) * 10;
;;;2393                           }else if(coffv_step == step2){
;;;2394                               cov2 = cov2 + atoi(num) * 10;
;;;2395                           }else if(coffv_step == step3){
;;;2396                               cov3 = cov3 + atoi(num) * 10;
;;;2397                           }
;;;2398   //                        set_c_cutoff_v = set_c_cutoff_v + atoi(num) * 10;
;;;2399                       }
;;;2400                                          
;;;2401                       bit = 4;
;;;2402                       break;
;;;2403                   }
;;;2404                   case 4:
;;;2405                   {
;;;2406                       strcat(set_limit,num);
;;;2407                       TEXT_SetText(hItem,set_limit);
;;;2408                       if(dot_flag == 0)
;;;2409                       {
;;;2410                           if(coffv_step == step1)
;;;2411                           {
;;;2412                               cov1 =6200;
;;;2413                           }else if(coffv_step == step2){
;;;2414                               cov2 = 6200;
;;;2415                           }else if(coffv_step == step3){
;;;2416                               cov3 = 6200;
;;;2417                           }
;;;2418   //                        set_c_cutoff_v = 6200;
;;;2419                       }else if(dot_flag == 2){
;;;2420                           if(coffv_step == step1)
;;;2421                           {
;;;2422                               cov1 = cov1 + atoi(num) * 10;
;;;2423                           }else if(coffv_step == step2){
;;;2424                               cov2 = cov2 + atoi(num) * 10;
;;;2425                           }else if(coffv_step == step3){
;;;2426                               cov3 = cov3 + atoi(num) * 10;
;;;2427                           }
;;;2428   //                        set_c_cutoff_v = set_c_cutoff_v + atoi(num) * 10;
;;;2429                       }else{
;;;2430                           if(coffv_step == step1)
;;;2431                           {
;;;2432                               cov1 = cov1 + atoi(num) * 10;
;;;2433                           }else if(coffv_step == step2){
;;;2434                               cov2 = cov2 + atoi(num) * 10;
;;;2435                           }else if(coffv_step == step3){
;;;2436                               cov3 = cov3 + atoi(num) * 10;
;;;2437                           }
;;;2438   //                        set_c_cutoff_v = set_c_cutoff_v + atoi(num);
;;;2439                       }
;;;2440                                          
;;;2441                       bit = 5;
;;;2442                       break;
;;;2443                   }
;;;2444                   case 5:
;;;2445                   {   
;;;2446                       strcat(set_limit,num);
;;;2447                       TEXT_SetText(hItem,set_limit);
;;;2448                       if(dot_flag == 0)
;;;2449                       {
;;;2450                           if(coffv_step == step1)
;;;2451                           {
;;;2452                               cov1 =6200;
;;;2453                           }else if(coffv_step == step2){
;;;2454                               cov2 = 6200;
;;;2455                           }else if(coffv_step == step3){
;;;2456                               cov3 = 6200;
;;;2457                           }
;;;2458   //                        set_c_cutoff_v = 6200;
;;;2459                       }else if(dot_flag == 1){
;;;2460                           if(coffv_step == step1)
;;;2461                           {
;;;2462                               cov1 =cov1;
;;;2463                           }else if(coffv_step == step2){
;;;2464                               cov2 = cov2;
;;;2465                           }else if(coffv_step == step3){
;;;2466                               cov3 = cov3;
;;;2467                           }
;;;2468   //                        set_c_cutoff_v = set_c_cutoff_v;
;;;2469                       }else{
;;;2470                           if(coffv_step == step1)
;;;2471                           {
;;;2472                               cov1 = cov1 + atoi(num);
;;;2473                           }else if(coffv_step == step2){
;;;2474                               cov2 = cov2 + atoi(num);
;;;2475                           }else if(coffv_step == step3){
;;;2476                               cov3 = cov3 + atoi(num);
;;;2477                           }
;;;2478   //                        set_c_cutoff_v = set_c_cutoff_v + atoi(num);
;;;2479                       }
;;;2480                                          
;;;2481                       bit = 1;
;;;2482                       break;
;;;2483                   }
;;;2484               }
;;;2485               break;
;;;2486           }
;;;2487           case set_39:
;;;2488           {
;;;2489               WM_HWIN hItem;
;;;2490   //            WM_InvalidateWindow(hWincdc);
;;;2491               hItem = WM_GetDialogItem(hWincdc, ID_TEXT_63);
;;;2492               switch(bit){
;;;2493                   case 1:
;;;2494                   {
;;;2495                       if(coffc_step == step1)
;;;2496                       {
;;;2497                           coc1 = atoi(num) * 1000;
;;;2498                       }else if(coffc_step == step2){
;;;2499                           coc2 = atoi(num) * 1000;
;;;2500                       }else if(coffc_step == step3){
;;;2501                           coc3 = atoi(num) * 1000;
;;;2502                       }
;;;2503   //                    set_c_cutoff_c = atoi(num) * 1000;
;;;2504                       strcat(set_limit,num);            
;;;2505                       TEXT_SetText(hItem,set_limit);
;;;2506                       bit = 2;
;;;2507                       break;
;;;2508                   }
;;;2509                   case 2:
;;;2510                   {
;;;2511                       strcat(set_limit,num);            
;;;2512                       TEXT_SetText(hItem,set_limit);
;;;2513                       if(set_limit[1] == 0x2e)//判断输入是否为小数点
;;;2514                       {
;;;2515                           dot_flag = 1;
;;;2516                       }else{
;;;2517                           if(coffc_step == step1)
;;;2518                           {
;;;2519                               coc1 = coc1 * 10 + atoi(num) * 1000;
;;;2520                           }else if(coffc_step == step2){
;;;2521                               coc2 = coc2 * 10 + atoi(num) * 1000;
;;;2522                           }else if(coffc_step == step3){
;;;2523                               coc3 = coc3 * 10 + atoi(num) * 1000;
;;;2524                           }
;;;2525   //                        set_c_cutoff_c = set_c_cutoff_c * 10 + atoi(num) * 1000;
;;;2526                       }
;;;2527                       bit = 3;
;;;2528                       break;
;;;2529                   }
;;;2530                   case 3:
;;;2531                   {
;;;2532                       strcat(set_limit,num);
;;;2533                       TEXT_SetText(hItem,set_limit);
;;;2534                       if(dot_flag == 0)
;;;2535                       {
;;;2536                           if(set_limit[2] == 0x2e)//判断输入是否为小数点
;;;2537                           {                            
;;;2538                               dot_flag = 2;
;;;2539                           }else{
;;;2540                               if(coffc_step == step1)
;;;2541                               {
;;;2542                                   coc1 =5000;
;;;2543                               }else if(coffc_step == step2){
;;;2544                                   coc2 = 5000;
;;;2545                               }else if(coffc_step == step3){
;;;2546                                   coc3 = 5000;
;;;2547                               } 
;;;2548   //                            set_c_cutoff_c = 5000;
;;;2549                           }
;;;2550                       }else{
;;;2551                           if(coffc_step == step1)
;;;2552                           {
;;;2553                               coc1 = coc1 + atoi(num) * 100;
;;;2554                           }else if(coffc_step == step2){
;;;2555                               coc2 = coc2 + atoi(num) * 100;
;;;2556                           }else if(coffc_step == step3){
;;;2557                               coc3 = coc3 + atoi(num) * 100;
;;;2558                           }
;;;2559   //                        set_c_cutoff_c = set_c_cutoff_c + atoi(num) * 100;
;;;2560                       }
;;;2561                                          
;;;2562                       bit = 4;
;;;2563                       break;
;;;2564                   }
;;;2565                   case 4:
;;;2566                   {
;;;2567                       strcat(set_limit,num);
;;;2568                       TEXT_SetText(hItem,set_limit);
;;;2569                       if(dot_flag == 0)
;;;2570                       {
;;;2571                           if(coffc_step == step1)
;;;2572                           {
;;;2573                               coc1 =5000;
;;;2574                           }else if(coffc_step == step2){
;;;2575                               coc2 = 5000;
;;;2576                           }else if(coffc_step == step3){
;;;2577                               coc3 = 5000;
;;;2578                           } 
;;;2579   //                        set_c_cutoff_c = 500;
;;;2580                       }else if(dot_flag == 2){
;;;2581                           if(coffc_step == step1)
;;;2582                           {
;;;2583                               coc1 = coc1 + atoi(num) * 100;
;;;2584                           }else if(coffc_step == step2){
;;;2585                               coc2 = coc2 + atoi(num) * 100;
;;;2586                           }else if(coffc_step == step3){
;;;2587                               coc3 = coc3 + atoi(num) * 100;
;;;2588                           }
;;;2589   //                        set_c_cutoff_c = set_c_cutoff_c + atoi(num) * 100;
;;;2590                       }else{
;;;2591                           if(coffc_step == step1)
;;;2592                           {
;;;2593                               coc1 = coc1 + atoi(num) * 10;
;;;2594                           }else if(coffc_step == step2){
;;;2595                               coc2 = coc2 + atoi(num) * 10;
;;;2596                           }else if(coffc_step == step3){
;;;2597                               coc3 = coc3 + atoi(num) * 10;
;;;2598                           }
;;;2599   //                        set_c_cutoff_c = set_c_cutoff_c + atoi(num) * 10;
;;;2600                       }
;;;2601                                          
;;;2602                       bit = 5;
;;;2603                       break;
;;;2604                   }
;;;2605                   case 5:
;;;2606                   {
;;;2607                       strcat(set_limit,num);
;;;2608                       TEXT_SetText(hItem,set_limit);
;;;2609                       if(dot_flag == 0)
;;;2610                       {
;;;2611                           if(coffc_step == step1)
;;;2612                           {
;;;2613                               coc1 = 5000;
;;;2614                           }else if(coffc_step == step2){
;;;2615                               coc2 = 5000;
;;;2616                           }else if(coffc_step == step3){
;;;2617                               coc3 = 5000;
;;;2618                           }
;;;2619   //                        set_c_cutoff_c = 500;
;;;2620                       }else if(dot_flag == 1){
;;;2621                           if(coffc_step == step1)
;;;2622                           {
;;;2623                               coc1 = coc1;
;;;2624                           }else if(coffc_step == step2){
;;;2625                               coc2 = coc2;
;;;2626                           }else if(coffc_step == step3){
;;;2627                               coc3 = coc3;
;;;2628                           }
;;;2629   //                        set_c_cutoff_c = set_c_cutoff_c + atoi(num);
;;;2630                       }else{
;;;2631                           if(coffc_step == step1)
;;;2632                           {
;;;2633                               coc1 = coc1 + atoi(num) * 10;
;;;2634                           }else if(coffc_step == step2){
;;;2635                               coc2 = coc2 + atoi(num) * 10;
;;;2636                           }else if(coffc_step == step3){
;;;2637                               coc3 = coc3 + atoi(num) * 10;
;;;2638                           }
;;;2639   //                        set_c_cutoff_c = set_c_cutoff_c + atoi(num) * 10;
;;;2640                       }
;;;2641                                          
;;;2642                       bit = 6;
;;;2643                       break;
;;;2644                   }
;;;2645                   case 6:
;;;2646                   {
;;;2647                       strcat(set_limit,num);
;;;2648                       TEXT_SetText(hItem,set_limit);
;;;2649                       if(dot_flag == 0)
;;;2650                       {
;;;2651                           if(coffc_step == step1)
;;;2652                           {
;;;2653                               coc1 = 5000;
;;;2654                           }else if(coffc_step == step2){
;;;2655                               coc2 = 5000;
;;;2656                           }else if(coffc_step == step3){
;;;2657                               coc3 = 5000;
;;;2658                           }
;;;2659   //                        set_c_cutoff_c = 0;
;;;2660                       }else if(dot_flag == 2){
;;;2661                           if(coffc_step == step1)
;;;2662                           {
;;;2663                               coc1 = coc1 + atoi(num);
;;;2664                           }else if(coffc_step == step2){
;;;2665                               coc2 = coc2 + atoi(num);
;;;2666                           }else if(coffc_step == step3){
;;;2667                               coc3 = coc3 + atoi(num);
;;;2668                           }
;;;2669   //                        set_c_cutoff_c = set_c_cutoff_c + atoi(num);
;;;2670                       }                 
;;;2671                       bit = 1;
;;;2672                       break;
;;;2673                   }
;;;2674               }
;;;2675               break;
;;;2676           }
;;;2677           case set_40:
;;;2678           {
;;;2679               WM_HWIN hItem;
;;;2680   //            WM_InvalidateWindow(hWincdc);
;;;2681               hItem = WM_GetDialogItem(hWincdc, ID_TEXT_64);
;;;2682               switch(bit){
;;;2683                   case 1:
;;;2684                   {
;;;2685                       set_dc_cutoff_v = atoi(num) * 1000;
;;;2686                       strcat(set_limit,num);            
;;;2687                       TEXT_SetText(hItem,set_limit);
;;;2688                       bit = 2;
;;;2689                       break;
;;;2690                   }
;;;2691                   case 2:
;;;2692                   {
;;;2693                       strcat(set_limit,num);            
;;;2694                       TEXT_SetText(hItem,set_limit);
;;;2695                       if(set_limit[1] == 0x2e)//判断输入是否为小数点
;;;2696                       {
;;;2697                           dot_flag = 1;
;;;2698                       }else{
;;;2699                           set_dc_cutoff_v = set_dc_cutoff_v * 10 + atoi(num) * 1000;
;;;2700                       }
;;;2701                       bit = 3;
;;;2702                       break;
;;;2703                   }
;;;2704                   case 3:
;;;2705                   {
;;;2706                       strcat(set_limit,num);
;;;2707                       TEXT_SetText(hItem,set_limit);
;;;2708                       if(dot_flag == 0)
;;;2709                       {
;;;2710                           if(set_limit[2] == 0x2e)//判断输入是否为小数点
;;;2711                           {                            
;;;2712                               dot_flag = 2;
;;;2713                           }else{
;;;2714                               set_dc_cutoff_v = 80000;
;;;2715                           }
;;;2716                       }else{
;;;2717                           set_dc_cutoff_v = set_dc_cutoff_v + atoi(num) * 100;
;;;2718                       }
;;;2719                                          
;;;2720                       bit = 4;
;;;2721                       break;
;;;2722                   }
;;;2723                   case 4:
;;;2724                   {
;;;2725                       strcat(set_limit,num);
;;;2726                       TEXT_SetText(hItem,set_limit);
;;;2727                       if(dot_flag == 0)
;;;2728                       {
;;;2729                           set_dc_cutoff_v = 80000;
;;;2730                       }else if(dot_flag == 2){
;;;2731                           set_dc_cutoff_v = set_dc_cutoff_v + atoi(num) * 100;
;;;2732                       }else{
;;;2733                           set_dc_cutoff_v = set_dc_cutoff_v + atoi(num) * 10;
;;;2734                       }
;;;2735                                          
;;;2736                       bit = 5;
;;;2737                       break;
;;;2738                   }
;;;2739                   case 5:
;;;2740                   {
;;;2741                       strcat(set_limit,num);
;;;2742                       TEXT_SetText(hItem,set_limit);
;;;2743                       if(dot_flag == 0)
;;;2744                       {
;;;2745                           set_dc_cutoff_v = 80000;
;;;2746                       }else if(dot_flag == 1){
;;;2747                           set_dc_cutoff_v = set_dc_cutoff_v + atoi(num);
;;;2748                       }else{
;;;2749                           set_dc_cutoff_v = set_dc_cutoff_v + atoi(num) * 10;
;;;2750                       }
;;;2751                                          
;;;2752                       bit = 6;
;;;2753                       break;
;;;2754                   }
;;;2755                   case 6:
;;;2756                   {
;;;2757                       strcat(set_limit,num);
;;;2758                       TEXT_SetText(hItem,set_limit);
;;;2759                       if(dot_flag == 0)
;;;2760                       {
;;;2761                           set_dc_cutoff_v = 80000;
;;;2762                       }else if(dot_flag == 2){
;;;2763                           set_dc_cutoff_v = set_dc_cutoff_v + atoi(num);
;;;2764                       }                 
;;;2765                       bit = 1;
;;;2766                       break;
;;;2767                   }
;;;2768               }
;;;2769               break;
;;;2770           }
;;;2771           case set_41:
;;;2772           {
;;;2773               WM_HWIN hItem;
;;;2774   //            WM_InvalidateWindow(hWincdc);
;;;2775               hItem = WM_GetDialogItem(hWincdc, ID_TEXT_65);
;;;2776               switch(bit){
;;;2777                   case 1:
;;;2778                   {
;;;2779                       set_dc_cutoff_c = atoi(num) * 100;
;;;2780                       strcat(set_limit,num);            
;;;2781                       TEXT_SetText(hItem,set_limit);
;;;2782                       bit = 2;
;;;2783                       break;
;;;2784                   }
;;;2785                   case 2:
;;;2786                   {
;;;2787                       strcat(set_limit,num);            
;;;2788                       TEXT_SetText(hItem,set_limit);
;;;2789                       if(set_limit[1] == 0x2e)//判断输入是否为小数点
;;;2790                       {
;;;2791                           dot_flag = 1;
;;;2792                       }else{
;;;2793                           set_dc_cutoff_c = set_dc_cutoff_c * 10 + atoi(num) * 100;
;;;2794                       }
;;;2795                       bit = 3;
;;;2796                       break;
;;;2797                   }
;;;2798                   case 3:
;;;2799                   {
;;;2800                       strcat(set_limit,num);
;;;2801                       TEXT_SetText(hItem,set_limit);
;;;2802                       if(dot_flag == 0)
;;;2803                       {
;;;2804                           if(set_limit[2] == 0x2e)//判断输入是否为小数点
;;;2805                           {                            
;;;2806                               dot_flag = 2;
;;;2807                           }else{
;;;2808                               set_dc_cutoff_c = 1500;
;;;2809                           }
;;;2810                       }else{
;;;2811                           set_dc_cutoff_c = set_dc_cutoff_c + atoi(num) * 10;
;;;2812                       }
;;;2813                                          
;;;2814                       bit = 4;
;;;2815                       break;
;;;2816                   }
;;;2817                   case 4:
;;;2818                   {
;;;2819                       strcat(set_limit,num);
;;;2820                       TEXT_SetText(hItem,set_limit);
;;;2821                       if(dot_flag == 0)
;;;2822                       {
;;;2823                           set_dc_cutoff_c = 1500;
;;;2824                       }else if(dot_flag == 2){
;;;2825                           set_dc_cutoff_c = set_dc_cutoff_c + atoi(num) * 10;
;;;2826                       }else{
;;;2827                           set_dc_cutoff_c = set_dc_cutoff_c + atoi(num);
;;;2828                       }
;;;2829                                          
;;;2830                       bit = 5;
;;;2831                       break;
;;;2832                   }
;;;2833                   case 5:
;;;2834                   {
;;;2835                       strcat(set_limit,num);
;;;2836                       TEXT_SetText(hItem,set_limit);
;;;2837                       if(dot_flag == 0)
;;;2838                       {
;;;2839                           set_dc_cutoff_c = 1500;
;;;2840                       }else if(dot_flag == 1){
;;;2841                           set_dc_cutoff_c = set_dc_cutoff_c;
;;;2842                       }else{
;;;2843                           set_dc_cutoff_c = set_dc_cutoff_c + atoi(num);
;;;2844                       }
;;;2845                                          
;;;2846                       bit = 1;
;;;2847                       break;
;;;2848                   }
;;;2849               }
;;;2850               break;
;;;2851           }
;;;2852           
;;;2853       }    
;;;2854   }
000356  e8bd8ff8          POP      {r3-r11,pc}
                  |L7.858|
00035a  f6400174          MOV      r1,#0x874             ;2020
00035e  f7fffffe          BL       WM_GetDialogItem
000362  f8dfa0b0          LDR      r10,|L7.1044|
000366  4606              MOV      r6,r0                 ;2020
000368  f89a0000          LDRB     r0,[r10,#0]           ;2021  ; bit
00036c  2807              CMP      r0,#7                 ;2021
00036e  d2f2              BCS      |L7.854|
000370  e8dff000          TBB      [pc,r0]               ;2021
000374  04053274          DCB      0x04,0x05,0x32,0x74
000378  caf0ef00          DCB      0xca,0xf0,0xef,0x00
00037c  e7eb              B        |L7.854|
00037e  f898000c          LDRB     r0,[r8,#0xc]          ;2024  ; cur_step
000382  b140              CBZ      r0,|L7.918|
000384  f898000c          LDRB     r0,[r8,#0xc]          ;2027  ; cur_step
000388  2801              CMP      r0,#1                 ;2027
00038a  d00d              BEQ      |L7.936|
00038c  f898000c          LDRB     r0,[r8,#0xc]          ;2029  ; cur_step
000390  2802              CMP      r0,#2                 ;2029
000392  d012              BEQ      |L7.954|
000394  e019              B        |L7.970|
                  |L7.918|
000396  4648              MOV      r0,r9                 ;2026
000398  f7fffffe          BL       atoi
00039c  f44f717a          MOV      r1,#0x3e8             ;2026
0003a0  4348              MULS     r0,r1,r0              ;2026
0003a2  f8c40088          STR      r0,[r4,#0x88]         ;2026  ; Run_Control
0003a6  e010              B        |L7.970|
                  |L7.936|
0003a8  4648              MOV      r0,r9                 ;2028
0003aa  f7fffffe          BL       atoi
0003ae  f44f717a          MOV      r1,#0x3e8             ;2028
0003b2  4348              MULS     r0,r1,r0              ;2028
0003b4  f8c4008c          STR      r0,[r4,#0x8c]         ;2028  ; Run_Control
0003b8  e007              B        |L7.970|
                  |L7.954|
0003ba  4648              MOV      r0,r9                 ;2030
0003bc  f7fffffe          BL       atoi
0003c0  f44f717a          MOV      r1,#0x3e8             ;2030
0003c4  4348              MULS     r0,r1,r0              ;2030
0003c6  f8c40090          STR      r0,[r4,#0x90]         ;2030  ; Run_Control
                  |L7.970|
0003ca  4649              MOV      r1,r9                 ;2032
0003cc  4812              LDR      r0,|L7.1048|
0003ce  f7fffffe          BL       strcat
0003d2  4911              LDR      r1,|L7.1048|
0003d4  4630              MOV      r0,r6                 ;2033
0003d6  e3f3              B        |L7.3008|
0003d8  4649              MOV      r1,r9                 ;2039
0003da  480f              LDR      r0,|L7.1048|
0003dc  f7fffffe          BL       strcat
0003e0  490d              LDR      r1,|L7.1048|
0003e2  4630              MOV      r0,r6                 ;2040
0003e4  f7fffffe          BL       TEXT_SetText
0003e8  480b              LDR      r0,|L7.1048|
0003ea  7840              LDRB     r0,[r0,#1]            ;2041  ; set_limit
0003ec  282e              CMP      r0,#0x2e              ;2041
0003ee  d01a              BEQ      |L7.1062|
0003f0  f898000c          LDRB     r0,[r8,#0xc]          ;2045  ; cur_step
0003f4  b1d0              CBZ      r0,|L7.1068|
0003f6  f898000c          LDRB     r0,[r8,#0xc]          ;2048  ; cur_step
0003fa  2801              CMP      r0,#1                 ;2048
0003fc  d01f              BEQ      |L7.1086|
0003fe  e00d              B        |L7.1052|
                  |L7.1024|
                          DCD      set_sw
                  |L7.1028|
                          DCD      Run_Control
                  |L7.1032|
                          DCD      ||.bss||
                  |L7.1036|
                          DCD      ||.data||
                  |L7.1040|
                          DCD      dot_flag
                  |L7.1044|
                          DCD      bit
                  |L7.1048|
                          DCD      set_limit
                  |L7.1052|
00041c  f898000c          LDRB     r0,[r8,#0xc]          ;2050  ; cur_step
000420  2802              CMP      r0,#2                 ;2050
000422  d00c              BEQ      |L7.1086|
000424  e3f6              B        |L7.3092|
                  |L7.1062|
000426  2001              MOVS     r0,#1                 ;2043
000428  7028              STRB     r0,[r5,#0]            ;2043
00042a  e3f3              B        |L7.3092|
                  |L7.1068|
00042c  4648              MOV      r0,r9                 ;2047
00042e  f7fffffe          BL       atoi
000432  f44f717a          MOV      r1,#0x3e8             ;2047
000436  4348              MULS     r0,r1,r0              ;2047
000438  f1040488          ADD      r4,r4,#0x88           ;2047
00043c  e007              B        |L7.1102|
                  |L7.1086|
00043e  4648              MOV      r0,r9                 ;2051
000440  f7fffffe          BL       atoi
000444  f44f717a          MOV      r1,#0x3e8             ;2051
000448  4348              MULS     r0,r1,r0              ;2051
00044a  f104048c          ADD      r4,r4,#0x8c           ;2051
                  |L7.1102|
00044e  6821              LDR      r1,[r4,#0]            ;2051  ; Run_Control
000450  eb010181          ADD      r1,r1,r1,LSL #2       ;2051
000454  eb000041          ADD      r0,r0,r1,LSL #1       ;2051
000458  6020              STR      r0,[r4,#0]            ;2051  ; Run_Control
00045a  e3db              B        |L7.3092|
00045c  4649              MOV      r1,r9                 ;2060
00045e  48fa              LDR      r0,|L7.2120|
000460  f7fffffe          BL       strcat
000464  49f8              LDR      r1,|L7.2120|
000466  4630              MOV      r0,r6                 ;2061
000468  f7fffffe          BL       TEXT_SetText
00046c  7828              LDRB     r0,[r5,#0]            ;2062  ; dot_flag
00046e  b158              CBZ      r0,|L7.1160|
000470  f898000c          LDRB     r0,[r8,#0xc]          ;2079  ; cur_step
000474  b320              CBZ      r0,|L7.1216|
000476  f898000c          LDRB     r0,[r8,#0xc]          ;2082  ; cur_step
00047a  2801              CMP      r0,#1                 ;2082
00047c  d02c              BEQ      |L7.1240|
00047e  f898000c          LDRB     r0,[r8,#0xc]          ;2084  ; cur_step
000482  2802              CMP      r0,#2                 ;2084
000484  d032              BEQ      |L7.1260|
000486  e3ef              B        |L7.3176|
                  |L7.1160|
000488  48ef              LDR      r0,|L7.2120|
00048a  7880              LDRB     r0,[r0,#2]            ;2064  ; set_limit
00048c  282e              CMP      r0,#0x2e              ;2064
00048e  d00b              BEQ      |L7.1192|
000490  f898000c          LDRB     r0,[r8,#0xc]          ;2068  ; cur_step
000494  b158              CBZ      r0,|L7.1198|
000496  f898000c          LDRB     r0,[r8,#0xc]          ;2071  ; cur_step
00049a  2801              CMP      r0,#1                 ;2071
00049c  d00a              BEQ      |L7.1204|
00049e  f898000c          LDRB     r0,[r8,#0xc]          ;2073  ; cur_step
0004a2  2802              CMP      r0,#2                 ;2073
0004a4  d009              BEQ      |L7.1210|
0004a6  e3df              B        |L7.3176|
                  |L7.1192|
0004a8  f885b000          STRB     r11,[r5,#0]           ;2066
0004ac  e3dc              B        |L7.3176|
                  |L7.1198|
0004ae  f8c47088          STR      r7,[r4,#0x88]         ;2070  ; Run_Control
0004b2  e3d9              B        |L7.3176|
                  |L7.1204|
0004b4  f8c4708c          STR      r7,[r4,#0x8c]         ;2072  ; Run_Control
0004b8  e3d6              B        |L7.3176|
                  |L7.1210|
0004ba  f8c47090          STR      r7,[r4,#0x90]         ;2074  ; Run_Control
0004be  e3d3              B        |L7.3176|
                  |L7.1216|
0004c0  4648              MOV      r0,r9                 ;2081
0004c2  f7fffffe          BL       atoi
0004c6  eb0001c0          ADD      r1,r0,r0,LSL #3       ;2081
0004ca  eb011100          ADD      r1,r1,r0,LSL #4       ;2081
0004ce  f8540f88          LDR      r0,[r4,#0x88]!        ;2081  ; Run_Control
0004d2  eb000081          ADD      r0,r0,r1,LSL #2       ;2081
0004d6  e015              B        |L7.1284|
                  |L7.1240|
0004d8  4648              MOV      r0,r9                 ;2083
0004da  f7fffffe          BL       atoi
0004de  eb0001c0          ADD      r1,r0,r0,LSL #3       ;2083
0004e2  eb011000          ADD      r0,r1,r0,LSL #4       ;2083
0004e6  f104048c          ADD      r4,r4,#0x8c           ;2083
0004ea  e008              B        |L7.1278|
                  |L7.1260|
0004ec  4648              MOV      r0,r9                 ;2085
0004ee  f7fffffe          BL       atoi
0004f2  eb0001c0          ADD      r1,r0,r0,LSL #3       ;2085
0004f6  eb011000          ADD      r0,r1,r0,LSL #4       ;2085
0004fa  f1040490          ADD      r4,r4,#0x90           ;2085
                  |L7.1278|
0004fe  6821              LDR      r1,[r4,#0]            ;2085  ; Run_Control
000500  eb010080          ADD      r0,r1,r0,LSL #2       ;2085
                  |L7.1284|
000504  6020              STR      r0,[r4,#0]            ;2085  ; Run_Control
000506  e3af              B        |L7.3176|
000508  4649              MOV      r1,r9                 ;2095
00050a  48cf              LDR      r0,|L7.2120|
00050c  f7fffffe          BL       strcat
000510  49cd              LDR      r1,|L7.2120|
000512  4630              MOV      r0,r6                 ;2096
000514  f7fffffe          BL       TEXT_SetText
000518  7828              LDRB     r0,[r5,#0]            ;2097  ; dot_flag
00051a  b170              CBZ      r0,|L7.1338|
00051c  7828              LDRB     r0,[r5,#0]            ;2108  ; dot_flag
00051e  2802              CMP      r0,#2                 ;2108
000520  f898000c          LDRB     r0,[r8,#0xc]          ;2119  ; cur_step
000524  d020              BEQ      |L7.1384|
000526  b398              CBZ      r0,|L7.1424|
000528  f898000c          LDRB     r0,[r8,#0xc]          ;2122  ; cur_step
00052c  2801              CMP      r0,#1                 ;2122
00052e  d053              BEQ      |L7.1496|
000530  f898000c          LDRB     r0,[r8,#0xc]          ;2124  ; cur_step
000534  2802              CMP      r0,#2                 ;2124
000536  d057              BEQ      |L7.1512|
000538  e3fe              B        |L7.3384|
                  |L7.1338|
00053a  f898000c          LDRB     r0,[r8,#0xc]          ;2099  ; cur_step
00053e  b150              CBZ      r0,|L7.1366|
000540  f898000c          LDRB     r0,[r8,#0xc]          ;2102  ; cur_step
000544  2801              CMP      r0,#1                 ;2102
000546  d009              BEQ      |L7.1372|
000548  f898000c          LDRB     r0,[r8,#0xc]          ;2104  ; cur_step
00054c  2802              CMP      r0,#2                 ;2104
00054e  d008              BEQ      |L7.1378|
000550  e3f2              B        |L7.3384|
000552  e0be              B        |L7.1746|
000554  e054              B        |L7.1536|
                  |L7.1366|
000556  f8c47088          STR      r7,[r4,#0x88]         ;2101  ; Run_Control
00055a  e3ed              B        |L7.3384|
                  |L7.1372|
00055c  f8c4708c          STR      r7,[r4,#0x8c]         ;2103  ; Run_Control
000560  e3ea              B        |L7.3384|
                  |L7.1378|
000562  f8c47090          STR      r7,[r4,#0x90]         ;2105  ; Run_Control
000566  e3e7              B        |L7.3384|
                  |L7.1384|
000568  b140              CBZ      r0,|L7.1404|
00056a  f898000c          LDRB     r0,[r8,#0xc]          ;2112  ; cur_step
00056e  2801              CMP      r0,#1                 ;2112
000570  d00f              BEQ      |L7.1426|
000572  f898000c          LDRB     r0,[r8,#0xc]          ;2114  ; cur_step
000576  2802              CMP      r0,#2                 ;2114
000578  d018              BEQ      |L7.1452|
00057a  e3dd              B        |L7.3384|
                  |L7.1404|
00057c  4648              MOV      r0,r9                 ;2111
00057e  f7fffffe          BL       atoi
000582  eb0001c0          ADD      r1,r0,r0,LSL #3       ;2111
000586  eb011100          ADD      r1,r1,r0,LSL #4       ;2111
00058a  f1040488          ADD      r4,r4,#0x88           ;2111
00058e  e009              B        |L7.1444|
                  |L7.1424|
000590  e018              B        |L7.1476|
                  |L7.1426|
000592  4648              MOV      r0,r9                 ;2113
000594  f7fffffe          BL       atoi
000598  eb0001c0          ADD      r1,r0,r0,LSL #3       ;2113
00059c  eb011100          ADD      r1,r1,r0,LSL #4       ;2113
0005a0  f104048c          ADD      r4,r4,#0x8c           ;2113
                  |L7.1444|
0005a4  6820              LDR      r0,[r4,#0]            ;2113  ; Run_Control
0005a6  eb000081          ADD      r0,r0,r1,LSL #2       ;2113
0005aa  e027              B        |L7.1532|
                  |L7.1452|
0005ac  4648              MOV      r0,r9                 ;2115
0005ae  f7fffffe          BL       atoi
0005b2  eb0001c0          ADD      r1,r0,r0,LSL #3       ;2115
0005b6  eb011000          ADD      r0,r1,r0,LSL #4       ;2115
0005ba  f8541f90          LDR      r1,[r4,#0x90]!        ;2115  ; Run_Control
0005be  eb010080          ADD      r0,r1,r0,LSL #2       ;2115
0005c2  e01b              B        |L7.1532|
                  |L7.1476|
0005c4  4648              MOV      r0,r9                 ;2121
0005c6  f7fffffe          BL       atoi
0005ca  eb000180          ADD      r1,r0,r0,LSL #2       ;2121
0005ce  f8540f88          LDR      r0,[r4,#0x88]!        ;2121  ; Run_Control
0005d2  eb000041          ADD      r0,r0,r1,LSL #1       ;2121
0005d6  e011              B        |L7.1532|
                  |L7.1496|
0005d8  4648              MOV      r0,r9                 ;2123
0005da  f7fffffe          BL       atoi
0005de  eb000080          ADD      r0,r0,r0,LSL #2       ;2123
0005e2  f104048c          ADD      r4,r4,#0x8c           ;2123
0005e6  e006              B        |L7.1526|
                  |L7.1512|
0005e8  4648              MOV      r0,r9                 ;2125
0005ea  f7fffffe          BL       atoi
0005ee  eb000080          ADD      r0,r0,r0,LSL #2       ;2125
0005f2  f1040490          ADD      r4,r4,#0x90           ;2125
                  |L7.1526|
0005f6  6821              LDR      r1,[r4,#0]            ;2125  ; Run_Control
0005f8  eb010040          ADD      r0,r1,r0,LSL #1       ;2125
                  |L7.1532|
0005fc  6020              STR      r0,[r4,#0]            ;2125  ; Run_Control
0005fe  e39b              B        |L7.3384|
                  |L7.1536|
000600  4649              MOV      r1,r9                 ;2135
000602  4891              LDR      r0,|L7.2120|
000604  f7fffffe          BL       strcat
000608  498f              LDR      r1,|L7.2120|
00060a  4630              MOV      r0,r6                 ;2136
00060c  f7fffffe          BL       TEXT_SetText
000610  7828              LDRB     r0,[r5,#0]            ;2137  ; dot_flag
000612  b170              CBZ      r0,|L7.1586|
000614  7828              LDRB     r0,[r5,#0]            ;2148  ; dot_flag
000616  2801              CMP      r0,#1                 ;2148
000618  f898000c          LDRB     r0,[r8,#0xc]          ;2159  ; cur_step
00061c  d01e              BEQ      |L7.1628|
00061e  b398              CBZ      r0,|L7.1672|
000620  f898000c          LDRB     r0,[r8,#0xc]          ;2162  ; cur_step
000624  2801              CMP      r0,#1                 ;2162
000626  d040              BEQ      |L7.1706|
000628  f898000c          LDRB     r0,[r8,#0xc]          ;2164  ; cur_step
00062c  2802              CMP      r0,#2                 ;2164
00062e  d044              BEQ      |L7.1722|
000630  e3e8              B        |L7.3588|
                  |L7.1586|
000632  f898000c          LDRB     r0,[r8,#0xc]          ;2139  ; cur_step
000636  b140              CBZ      r0,|L7.1610|
000638  f898000c          LDRB     r0,[r8,#0xc]          ;2142  ; cur_step
00063c  2801              CMP      r0,#1                 ;2142
00063e  d007              BEQ      |L7.1616|
000640  f898000c          LDRB     r0,[r8,#0xc]          ;2144  ; cur_step
000644  2802              CMP      r0,#2                 ;2144
000646  d006              BEQ      |L7.1622|
000648  e3dc              B        |L7.3588|
                  |L7.1610|
00064a  f8c47088          STR      r7,[r4,#0x88]         ;2141  ; Run_Control
00064e  e3d9              B        |L7.3588|
                  |L7.1616|
000650  f8c4708c          STR      r7,[r4,#0x8c]         ;2143  ; Run_Control
000654  e3d6              B        |L7.3588|
                  |L7.1622|
000656  f8c47090          STR      r7,[r4,#0x90]         ;2145  ; Run_Control
00065a  e3d3              B        |L7.3588|
                  |L7.1628|
00065c  b140              CBZ      r0,|L7.1648|
00065e  f898000c          LDRB     r0,[r8,#0xc]          ;2152  ; cur_step
000662  2801              CMP      r0,#1                 ;2152
000664  d00a              BEQ      |L7.1660|
000666  f898000c          LDRB     r0,[r8,#0xc]          ;2154  ; cur_step
00066a  2802              CMP      r0,#2                 ;2154
00066c  d00d              BEQ      |L7.1674|
00066e  e3c9              B        |L7.3588|
                  |L7.1648|
000670  4648              MOV      r0,r9                 ;2151
000672  f7fffffe          BL       atoi
000676  f1040488          ADD      r4,r4,#0x88           ;2151
00067a  e00b              B        |L7.1684|
                  |L7.1660|
00067c  4648              MOV      r0,r9                 ;2153
00067e  f7fffffe          BL       atoi
000682  f104048c          ADD      r4,r4,#0x8c           ;2153
000686  e005              B        |L7.1684|
                  |L7.1672|
000688  e007              B        |L7.1690|
                  |L7.1674|
00068a  4648              MOV      r0,r9                 ;2155
00068c  f7fffffe          BL       atoi
000690  f1040490          ADD      r4,r4,#0x90           ;2155
                  |L7.1684|
000694  6821              LDR      r1,[r4,#0]            ;2155  ; Run_Control
000696  4408              ADD      r0,r0,r1              ;2155
000698  e019              B        |L7.1742|
                  |L7.1690|
00069a  4648              MOV      r0,r9                 ;2161
00069c  f7fffffe          BL       atoi
0006a0  eb000080          ADD      r0,r0,r0,LSL #2       ;2161
0006a4  f1040488          ADD      r4,r4,#0x88           ;2161
0006a8  e00e              B        |L7.1736|
                  |L7.1706|
0006aa  4648              MOV      r0,r9                 ;2163
0006ac  f7fffffe          BL       atoi
0006b0  eb000080          ADD      r0,r0,r0,LSL #2       ;2163
0006b4  f104048c          ADD      r4,r4,#0x8c           ;2163
0006b8  e006              B        |L7.1736|
                  |L7.1722|
0006ba  4648              MOV      r0,r9                 ;2165
0006bc  f7fffffe          BL       atoi
0006c0  eb000080          ADD      r0,r0,r0,LSL #2       ;2165
0006c4  f1040490          ADD      r4,r4,#0x90           ;2165
                  |L7.1736|
0006c8  6821              LDR      r1,[r4,#0]            ;2165  ; Run_Control
0006ca  eb010040          ADD      r0,r1,r0,LSL #1       ;2165
                  |L7.1742|
0006ce  6020              STR      r0,[r4,#0]            ;2165  ; Run_Control
0006d0  e398              B        |L7.3588|
                  |L7.1746|
0006d2  4649              MOV      r1,r9                 ;2175
0006d4  485c              LDR      r0,|L7.2120|
0006d6  f7fffffe          BL       strcat
0006da  495b              LDR      r1,|L7.2120|
0006dc  4630              MOV      r0,r6                 ;2176
0006de  f7fffffe          BL       TEXT_SetText
0006e2  7828              LDRB     r0,[r5,#0]            ;2177  ; dot_flag
0006e4  b118              CBZ      r0,|L7.1774|
0006e6  7828              LDRB     r0,[r5,#0]            ;2188  ; dot_flag
0006e8  2802              CMP      r0,#2                 ;2188
0006ea  d017              BEQ      |L7.1820|
0006ec  e3f5              B        |L7.3802|
                  |L7.1774|
0006ee  f898100c          LDRB     r1,[r8,#0xc]          ;2179  ; cur_step
0006f2  f6432098          MOV      r0,#0x3a98            ;2181
0006f6  b141              CBZ      r1,|L7.1802|
0006f8  f898100c          LDRB     r1,[r8,#0xc]          ;2182  ; cur_step
0006fc  2901              CMP      r1,#1                 ;2182
0006fe  d007              BEQ      |L7.1808|
000700  f898100c          LDRB     r1,[r8,#0xc]          ;2184  ; cur_step
000704  2902              CMP      r1,#2                 ;2184
000706  d006              BEQ      |L7.1814|
000708  e3e7              B        |L7.3802|
                  |L7.1802|
00070a  f8c40088          STR      r0,[r4,#0x88]         ;2181  ; Run_Control
00070e  e3e4              B        |L7.3802|
                  |L7.1808|
000710  f8c4008c          STR      r0,[r4,#0x8c]         ;2183  ; Run_Control
000714  e3e1              B        |L7.3802|
                  |L7.1814|
000716  f8c40090          STR      r0,[r4,#0x90]         ;2185  ; Run_Control
00071a  e3de              B        |L7.3802|
                  |L7.1820|
00071c  f898000c          LDRB     r0,[r8,#0xc]          ;2189  ; cur_step
000720  b140              CBZ      r0,|L7.1844|
000722  f898000c          LDRB     r0,[r8,#0xc]          ;2192  ; cur_step
000726  2801              CMP      r0,#1                 ;2192
000728  d00a              BEQ      |L7.1856|
00072a  f898000c          LDRB     r0,[r8,#0xc]          ;2194  ; cur_step
00072e  2802              CMP      r0,#2                 ;2194
000730  d00c              BEQ      |L7.1868|
000732  e3d2              B        |L7.3802|
                  |L7.1844|
000734  4648              MOV      r0,r9                 ;2191
000736  f7fffffe          BL       atoi
00073a  f1040488          ADD      r4,r4,#0x88           ;2191
00073e  e00a              B        |L7.1878|
                  |L7.1856|
000740  4648              MOV      r0,r9                 ;2193
000742  f7fffffe          BL       atoi
000746  f104048c          ADD      r4,r4,#0x8c           ;2193
00074a  e004              B        |L7.1878|
                  |L7.1868|
00074c  4648              MOV      r0,r9                 ;2195
00074e  f7fffffe          BL       atoi
000752  f1040490          ADD      r4,r4,#0x90           ;2195
                  |L7.1878|
000756  6821              LDR      r1,[r4,#0]            ;2195  ; Run_Control
000758  4408              ADD      r0,r0,r1              ;2195
00075a  6020              STR      r0,[r4,#0]            ;2195  ; Run_Control
00075c  e3bd              B        |L7.3802|
                  |L7.1886|
00075e  f88a0000          STRB     r0,[r10,#0]           ;2199
                  |L7.1890|
000762  e5f8              B        |L7.854|
                  |L7.1892|
000764  f6400175          MOV      r1,#0x875             ;2209
000768  f7fffffe          BL       WM_GetDialogItem
00076c  4e37              LDR      r6,|L7.2124|
00076e  4680              MOV      r8,r0                 ;2209
000770  7830              LDRB     r0,[r6,#0]            ;2210  ; bit
000772  2700              MOVS     r7,#0                 ;2246
000774  2807              CMP      r0,#7                 ;2210
000776  d2f4              BCS      |L7.1890|
000778  e8dff000          TBB      [pc,r0]               ;2210
00077c  04050e24          DCB      0x04,0x05,0x0e,0x24
000780  426a8c00          DCB      0x42,0x6a,0x8c,0x00
000784  e5e7              B        |L7.854|
000786  4648              MOV      r0,r9                 ;2213
000788  f7fffffe          BL       atoi
00078c  f44f717a          MOV      r1,#0x3e8             ;2213
000790  4348              MULS     r0,r1,r0              ;2213
000792  f8c4009c          STR      r0,[r4,#0x9c]         ;2213  ; Run_Control
000796  e3f0              B        |L7.3962|
000798  4649              MOV      r1,r9                 ;2224
00079a  482b              LDR      r0,|L7.2120|
00079c  f7fffffe          BL       strcat
0007a0  4929              LDR      r1,|L7.2120|
0007a2  4640              MOV      r0,r8                 ;2225
0007a4  f7fffffe          BL       TEXT_SetText
0007a8  4827              LDR      r0,|L7.2120|
0007aa  7840              LDRB     r0,[r0,#1]            ;2226  ; set_limit
0007ac  282e              CMP      r0,#0x2e              ;2226
0007ae  f43fac93          BEQ      |L7.216|
0007b2  4648              MOV      r0,r9                 ;2230
0007b4  f7fffffe          BL       atoi
0007b8  f44f717a          MOV      r1,#0x3e8             ;2230
0007bc  4348              MULS     r0,r1,r0              ;2230
0007be  f104049c          ADD      r4,r4,#0x9c           ;2230
0007c2  e4a7              B        |L7.276|
0007c4  4649              MOV      r1,r9                 ;2238
0007c6  4820              LDR      r0,|L7.2120|
0007c8  f7fffffe          BL       strcat
0007cc  491e              LDR      r1,|L7.2120|
0007ce  4640              MOV      r0,r8                 ;2239
0007d0  f7fffffe          BL       TEXT_SetText
0007d4  7828              LDRB     r0,[r5,#0]            ;2240  ; dot_flag
0007d6  b158              CBZ      r0,|L7.2032|
0007d8  4648              MOV      r0,r9                 ;2249
0007da  f7fffffe          BL       atoi
0007de  eb0001c0          ADD      r1,r0,r0,LSL #3       ;2249
0007e2  eb011000          ADD      r0,r1,r0,LSL #4       ;2249
0007e6  f8541f9c          LDR      r1,[r4,#0x9c]!        ;2249  ; Run_Control
0007ea  eb010080          ADD      r0,r1,r0,LSL #2       ;2249
0007ee  e4e6              B        |L7.446|
                  |L7.2032|
0007f0  4815              LDR      r0,|L7.2120|
0007f2  7880              LDRB     r0,[r0,#2]            ;2242  ; set_limit
0007f4  282e              CMP      r0,#0x2e              ;2242
0007f6  f43facbb          BEQ      |L7.368|
0007fa  f8c4709c          STR      r7,[r4,#0x9c]         ;2246  ; Run_Control
                  |L7.2046|
0007fe  e3f1              B        |L7.4068|
000800  4649              MOV      r1,r9                 ;2256
000802  4811              LDR      r0,|L7.2120|
000804  f7fffffe          BL       strcat
000808  490f              LDR      r1,|L7.2120|
00080a  4640              MOV      r0,r8                 ;2257
00080c  f7fffffe          BL       TEXT_SetText
000810  7828              LDRB     r0,[r5,#0]            ;2258  ; dot_flag
000812  b150              CBZ      r0,|L7.2090|
000814  7828              LDRB     r0,[r5,#0]            ;2261  ; dot_flag
000816  2802              CMP      r0,#2                 ;2261
000818  4648              MOV      r0,r9                 ;2264
00081a  d009              BEQ      |L7.2096|
00081c  f7fffffe          BL       atoi
000820  eb000080          ADD      r0,r0,r0,LSL #2       ;2264
000824  f104049c          ADD      r4,r4,#0x9c           ;2264
000828  e523              B        |L7.626|
                  |L7.2090|
00082a  f8c4709c          STR      r7,[r4,#0x9c]         ;2260  ; Run_Control
                  |L7.2094|
00082e  e3f4              B        |L7.4122|
                  |L7.2096|
000830  f7fffffe          BL       atoi
000834  eb0001c0          ADD      r1,r0,r0,LSL #3       ;2262
000838  eb011000          ADD      r0,r1,r0,LSL #4       ;2262
00083c  f8541f9c          LDR      r1,[r4,#0x9c]!        ;2262  ; Run_Control
000840  eb010080          ADD      r0,r1,r0,LSL #2       ;2262
000844  e52d              B        |L7.674|
000846  0000              DCW      0x0000
                  |L7.2120|
                          DCD      set_limit
                  |L7.2124|
                          DCD      bit
000850  4649              MOV      r1,r9                 ;2271
000852  48fa              LDR      r0,|L7.3132|
000854  f7fffffe          BL       strcat
000858  49f8              LDR      r1,|L7.3132|
00085a  4640              MOV      r0,r8                 ;2272
00085c  f7fffffe          BL       TEXT_SetText
000860  7828              LDRB     r0,[r5,#0]            ;2273  ; dot_flag
000862  b168              CBZ      r0,|L7.2176|
000864  7828              LDRB     r0,[r5,#0]            ;2276  ; dot_flag
000866  2801              CMP      r0,#1                 ;2276
000868  4648              MOV      r0,r9                 ;2279
00086a  d00d              BEQ      |L7.2184|
00086c  f7fffffe          BL       atoi
000870  f8541f9c          LDR      r1,[r4,#0x9c]!        ;2279  ; Run_Control
000874  eb000080          ADD      r0,r0,r0,LSL #2       ;2279
000878  eb010040          ADD      r0,r1,r0,LSL #1       ;2279
                  |L7.2172|
00087c  6020              STR      r0,[r4,#0]            ;2277  ; Run_Control
00087e  e3fd              B        |L7.4220|
                  |L7.2176|
000880  f8c4709c          STR      r7,[r4,#0x9c]         ;2275  ; Run_Control
000884  e3fa              B        |L7.4220|
                  |L7.2182|
000886  e3fa              B        |L7.4222|
                  |L7.2184|
000888  f7fffffe          BL       atoi
00088c  f8541f9c          LDR      r1,[r4,#0x9c]!        ;2277  ; Run_Control
000890  4408              ADD      r0,r0,r1              ;2277
000892  e7f3              B        |L7.2172|
000894  4649              MOV      r1,r9                 ;2286
000896  48e9              LDR      r0,|L7.3132|
000898  f7fffffe          BL       strcat
00089c  49e7              LDR      r1,|L7.3132|
00089e  4640              MOV      r0,r8                 ;2287
0008a0  f7fffffe          BL       TEXT_SetText
0008a4  7828              LDRB     r0,[r5,#0]            ;2288  ; dot_flag
0008a6  b118              CBZ      r0,|L7.2224|
0008a8  7828              LDRB     r0,[r5,#0]            ;2291  ; dot_flag
0008aa  2802              CMP      r0,#2                 ;2291
0008ac  d004              BEQ      |L7.2232|
                  |L7.2222|
0008ae  e3e7              B        |L7.4224|
                  |L7.2224|
0008b0  f8c4709c          STR      r7,[r4,#0x9c]         ;2290  ; Run_Control
0008b4  e3e4              B        |L7.4224|
                  |L7.2230|
0008b6  e3ca              B        |L7.4174|
                  |L7.2232|
0008b8  4648              MOV      r0,r9                 ;2292
0008ba  f7fffffe          BL       atoi
0008be  f104049c          ADD      r4,r4,#0x9c           ;2292
0008c2  e543              B        |L7.844|
                  |L7.2244|
0008c4  f6400176          MOV      r1,#0x876             ;2304
0008c8  f7fffffe          BL       WM_GetDialogItem
0008cc  4ddc              LDR      r5,|L7.3136|
0008ce  4604              MOV      r4,r0                 ;2304
0008d0  7828              LDRB     r0,[r5,#0]            ;2305  ; bit
0008d2  2801              CMP      r0,#1                 ;2305
0008d4  d01b              BEQ      |L7.2318|
0008d6  2802              CMP      r0,#2                 ;2305
0008d8  f47faf43          BNE      |L7.1890|
0008dc  4648              MOV      r0,r9                 ;2316
0008de  f7fffffe          BL       atoi
0008e2  4601              MOV      r1,r0                 ;2316
0008e4  f8980000          LDRB     r0,[r8,#0]            ;2316  ; set_loop_count
0008e8  eb000080          ADD      r0,r0,r0,LSL #2       ;2316
0008ec  eb010040          ADD      r0,r1,r0,LSL #1       ;2316
0008f0  f8880000          STRB     r0,[r8,#0]            ;2316
0008f4  f8982000          LDRB     r2,[r8,#0]            ;2317  ; set_loop_count
0008f8  a1d2              ADR      r1,|L7.3140|
0008fa  4668              MOV      r0,sp                 ;2317
0008fc  f7fffffe          BL       __2sprintf
000900  4669              MOV      r1,sp                 ;2318
000902  4620              MOV      r0,r4                 ;2318
000904  f7fffffe          BL       TEXT_SetText
000908  2001              MOVS     r0,#1                 ;2319
                  |L7.2314|
00090a  7028              STRB     r0,[r5,#0]            ;2319
                  |L7.2316|
00090c  e523              B        |L7.854|
                  |L7.2318|
00090e  4648              MOV      r0,r9                 ;2308
000910  f7fffffe          BL       atoi
000914  f8880000          STRB     r0,[r8,#0]            ;2308
000918  f8982000          LDRB     r2,[r8,#0]            ;2309  ; set_loop_count
00091c  a1c9              ADR      r1,|L7.3140|
00091e  4668              MOV      r0,sp                 ;2309
000920  f7fffffe          BL       __2sprintf
000924  4669              MOV      r1,sp                 ;2310
000926  4620              MOV      r0,r4                 ;2310
000928  f7fffffe          BL       TEXT_SetText
00092c  4658              MOV      r0,r11                ;2311
00092e  e7ec              B        |L7.2314|
                  |L7.2352|
000930  f640017b          MOV      r1,#0x87b             ;2329
000934  f7fffffe          BL       WM_GetDialogItem
000938  4cc1              LDR      r4,|L7.3136|
00093a  4607              MOV      r7,r0                 ;2329
00093c  7820              LDRB     r0,[r4,#0]            ;2330  ; bit
00093e  2806              CMP      r0,#6                 ;2330
000940  d2e4              BCS      |L7.2316|
000942  e8dff000          TBB      [pc,r0]               ;2330
000946  0304              DCB      0x03,0x04
000948  2e71bff2          DCB      0x2e,0x71,0xbf,0xf2
00094c  e503              B        |L7.854|
00094e  f898000d          LDRB     r0,[r8,#0xd]          ;2333  ; coffv_step
000952  b140              CBZ      r0,|L7.2406|
000954  f898000d          LDRB     r0,[r8,#0xd]          ;2336  ; coffv_step
000958  2801              CMP      r0,#1                 ;2336
00095a  d00b              BEQ      |L7.2420|
00095c  f898000d          LDRB     r0,[r8,#0xd]          ;2338  ; coffv_step
000960  2802              CMP      r0,#2                 ;2338
000962  d00e              BEQ      |L7.2434|
000964  e013              B        |L7.2446|
                  |L7.2406|
000966  4648              MOV      r0,r9                 ;2335
000968  f7fffffe          BL       atoi
00096c  2164              MOVS     r1,#0x64              ;2335
00096e  4348              MULS     r0,r1,r0              ;2335
000970  8030              STRH     r0,[r6,#0]            ;2335
000972  e00c              B        |L7.2446|
                  |L7.2420|
000974  4648              MOV      r0,r9                 ;2337
000976  f7fffffe          BL       atoi
00097a  2164              MOVS     r1,#0x64              ;2337
00097c  4348              MULS     r0,r1,r0              ;2337
00097e  8070              STRH     r0,[r6,#2]            ;2337
000980  e005              B        |L7.2446|
                  |L7.2434|
000982  4648              MOV      r0,r9                 ;2339
000984  f7fffffe          BL       atoi
000988  2164              MOVS     r1,#0x64              ;2339
00098a  4348              MULS     r0,r1,r0              ;2339
00098c  80b0              STRH     r0,[r6,#4]            ;2339
                  |L7.2446|
00098e  4649              MOV      r1,r9                 ;2343
000990  48aa              LDR      r0,|L7.3132|
000992  f7fffffe          BL       strcat
000996  49a9              LDR      r1,|L7.3132|
000998  4638              MOV      r0,r7                 ;2344
00099a  f7fffffe          BL       TEXT_SetText
00099e  4658              MOV      r0,r11                ;2345
0009a0  e12a              B        |L7.3064|
0009a2  4649              MOV      r1,r9                 ;2350
0009a4  48a5              LDR      r0,|L7.3132|
0009a6  f7fffffe          BL       strcat
0009aa  49a4              LDR      r1,|L7.3132|
0009ac  4638              MOV      r0,r7                 ;2351
0009ae  f7fffffe          BL       TEXT_SetText
0009b2  48a2              LDR      r0,|L7.3132|
0009b4  7840              LDRB     r0,[r0,#1]            ;2352  ; set_limit
0009b6  282e              CMP      r0,#0x2e              ;2352
0009b8  d00b              BEQ      |L7.2514|
0009ba  f898000d          LDRB     r0,[r8,#0xd]          ;2356  ; coffv_step
0009be  b158              CBZ      r0,|L7.2520|
0009c0  f898000d          LDRB     r0,[r8,#0xd]          ;2359  ; coffv_step
0009c4  2801              CMP      r0,#1                 ;2359
0009c6  d016              BEQ      |L7.2550|
0009c8  f898000d          LDRB     r0,[r8,#0xd]          ;2361  ; coffv_step
0009cc  2802              CMP      r0,#2                 ;2361
0009ce  d01e              BEQ      |L7.2574|
0009d0  e028              B        |L7.2596|
                  |L7.2514|
0009d2  2001              MOVS     r0,#1                 ;2354
0009d4  7028              STRB     r0,[r5,#0]            ;2354
0009d6  e025              B        |L7.2596|
                  |L7.2520|
0009d8  4648              MOV      r0,r9                 ;2358
0009da  f7fffffe          BL       atoi
0009de  2164              MOVS     r1,#0x64              ;2358
0009e0  4348              MULS     r0,r1,r0              ;2358
0009e2  8831              LDRH     r1,[r6,#0]            ;2358  ; coff
0009e4  eb010181          ADD      r1,r1,r1,LSL #2       ;2358
0009e8  eb000041          ADD      r0,r0,r1,LSL #1       ;2358
0009ec  8030              STRH     r0,[r6,#0]            ;2358
0009ee  e019              B        |L7.2596|
                  |L7.2544|
0009f0  e3af              B        |L7.4434|
                  |L7.2546|
0009f2  e2f8              B        |L7.4070|
                  |L7.2548|
0009f4  e102              B        |L7.3068|
                  |L7.2550|
0009f6  4648              MOV      r0,r9                 ;2360
0009f8  f7fffffe          BL       atoi
0009fc  2164              MOVS     r1,#0x64              ;2360
0009fe  4348              MULS     r0,r1,r0              ;2360
000a00  8871              LDRH     r1,[r6,#2]            ;2360  ; coff
000a02  eb010181          ADD      r1,r1,r1,LSL #2       ;2360
000a06  eb000041          ADD      r0,r0,r1,LSL #1       ;2360
000a0a  8070              STRH     r0,[r6,#2]            ;2360
000a0c  e00a              B        |L7.2596|
                  |L7.2574|
000a0e  4648              MOV      r0,r9                 ;2362
000a10  f7fffffe          BL       atoi
000a14  2164              MOVS     r1,#0x64              ;2362
000a16  4348              MULS     r0,r1,r0              ;2362
000a18  88b1              LDRH     r1,[r6,#4]            ;2362  ; coff
000a1a  eb010181          ADD      r1,r1,r1,LSL #2       ;2362
000a1e  eb000041          ADD      r0,r0,r1,LSL #1       ;2362
000a22  80b0              STRH     r0,[r6,#4]            ;2362
                  |L7.2596|
000a24  2003              MOVS     r0,#3                 ;2366
000a26  e0e7              B        |L7.3064|
000a28  4649              MOV      r1,r9                 ;2371
000a2a  4884              LDR      r0,|L7.3132|
000a2c  f7fffffe          BL       strcat
000a30  4982              LDR      r1,|L7.3132|
000a32  4638              MOV      r0,r7                 ;2372
000a34  f7fffffe          BL       TEXT_SetText
000a38  7828              LDRB     r0,[r5,#0]            ;2373  ; dot_flag
000a3a  b158              CBZ      r0,|L7.2644|
000a3c  f898000d          LDRB     r0,[r8,#0xd]          ;2390  ; coffv_step
000a40  b308              CBZ      r0,|L7.2694|
000a42  f898000d          LDRB     r0,[r8,#0xd]          ;2393  ; coffv_step
000a46  2801              CMP      r0,#1                 ;2393
000a48  d027              BEQ      |L7.2714|
000a4a  f898000d          LDRB     r0,[r8,#0xd]          ;2395  ; coffv_step
000a4e  2802              CMP      r0,#2                 ;2395
000a50  d02d              BEQ      |L7.2734|
000a52  e035              B        |L7.2752|
                  |L7.2644|
000a54  4879              LDR      r0,|L7.3132|
000a56  7880              LDRB     r0,[r0,#2]            ;2375  ; set_limit
000a58  282e              CMP      r0,#0x2e              ;2375
000a5a  d00b              BEQ      |L7.2676|
000a5c  f898000d          LDRB     r0,[r8,#0xd]          ;2379  ; coffv_step
000a60  b158              CBZ      r0,|L7.2682|
000a62  f898000d          LDRB     r0,[r8,#0xd]          ;2382  ; coffv_step
000a66  2801              CMP      r0,#1                 ;2382
000a68  d009              BEQ      |L7.2686|
000a6a  f898000d          LDRB     r0,[r8,#0xd]          ;2384  ; coffv_step
000a6e  2802              CMP      r0,#2                 ;2384
000a70  d007              BEQ      |L7.2690|
000a72  e025              B        |L7.2752|
                  |L7.2676|
000a74  f885b000          STRB     r11,[r5,#0]           ;2377
000a78  e022              B        |L7.2752|
                  |L7.2682|
000a7a  4650              MOV      r0,r10                ;2381
000a7c  e00b              B        |L7.2710|
                  |L7.2686|
000a7e  4650              MOV      r0,r10                ;2383
000a80  e013              B        |L7.2730|
                  |L7.2690|
000a82  4650              MOV      r0,r10                ;2385
000a84  e01b              B        |L7.2750|
                  |L7.2694|
000a86  4648              MOV      r0,r9                 ;2392
000a88  f7fffffe          BL       atoi
000a8c  8831              LDRH     r1,[r6,#0]            ;2392  ; coff
000a8e  eb000080          ADD      r0,r0,r0,LSL #2       ;2392
000a92  eb010040          ADD      r0,r1,r0,LSL #1       ;2392
                  |L7.2710|
000a96  8030              STRH     r0,[r6,#0]            ;2392
000a98  e012              B        |L7.2752|
                  |L7.2714|
000a9a  4648              MOV      r0,r9                 ;2394
000a9c  f7fffffe          BL       atoi
000aa0  8871              LDRH     r1,[r6,#2]            ;2394  ; coff
000aa2  eb000080          ADD      r0,r0,r0,LSL #2       ;2394
000aa6  eb010040          ADD      r0,r1,r0,LSL #1       ;2394
                  |L7.2730|
000aaa  8070              STRH     r0,[r6,#2]            ;2394
000aac  e008              B        |L7.2752|
                  |L7.2734|
000aae  4648              MOV      r0,r9                 ;2396
000ab0  f7fffffe          BL       atoi
000ab4  88b1              LDRH     r1,[r6,#4]            ;2396  ; coff
000ab6  eb000080          ADD      r0,r0,r0,LSL #2       ;2396
000aba  eb010040          ADD      r0,r1,r0,LSL #1       ;2396
                  |L7.2750|
000abe  80b0              STRH     r0,[r6,#4]            ;2396
                  |L7.2752|
000ac0  2004              MOVS     r0,#4                 ;2401
000ac2  e099              B        |L7.3064|
000ac4  4649              MOV      r1,r9                 ;2406
000ac6  485d              LDR      r0,|L7.3132|
000ac8  f7fffffe          BL       strcat
000acc  495b              LDR      r1,|L7.3132|
000ace  4638              MOV      r0,r7                 ;2407
000ad0  f7fffffe          BL       TEXT_SetText
000ad4  7828              LDRB     r0,[r5,#0]            ;2408  ; dot_flag
000ad6  b160              CBZ      r0,|L7.2802|
000ad8  7828              LDRB     r0,[r5,#0]            ;2419  ; dot_flag
000ada  f898000d          LDRB     r0,[r8,#0xd]          ;2430  ; coffv_step
000ade  b1d0              CBZ      r0,|L7.2838|
000ae0  f898000d          LDRB     r0,[r8,#0xd]          ;2423  ; coffv_step
000ae4  2801              CMP      r0,#1                 ;2423
000ae6  d021              BEQ      |L7.2860|
000ae8  f898000d          LDRB     r0,[r8,#0xd]          ;2435  ; coffv_step
000aec  2802              CMP      r0,#2                 ;2435
000aee  d027              BEQ      |L7.2880|
000af0  e02f              B        |L7.2898|
                  |L7.2802|
000af2  f898000d          LDRB     r0,[r8,#0xd]          ;2410  ; coffv_step
000af6  b140              CBZ      r0,|L7.2826|
000af8  f898000d          LDRB     r0,[r8,#0xd]          ;2413  ; coffv_step
000afc  2801              CMP      r0,#1                 ;2413
000afe  d006              BEQ      |L7.2830|
000b00  f898000d          LDRB     r0,[r8,#0xd]          ;2415  ; coffv_step
000b04  2802              CMP      r0,#2                 ;2415
000b06  d004              BEQ      |L7.2834|
000b08  e023              B        |L7.2898|
                  |L7.2826|
000b0a  4650              MOV      r0,r10                ;2412
000b0c  e00b              B        |L7.2854|
                  |L7.2830|
000b0e  4650              MOV      r0,r10                ;2414
000b10  e014              B        |L7.2876|
                  |L7.2834|
000b12  4650              MOV      r0,r10                ;2416
000b14  e01c              B        |L7.2896|
                  |L7.2838|
000b16  4648              MOV      r0,r9                 ;2432
000b18  f7fffffe          BL       atoi
000b1c  8831              LDRH     r1,[r6,#0]            ;2432  ; coff
000b1e  eb000080          ADD      r0,r0,r0,LSL #2       ;2432
000b22  eb010040          ADD      r0,r1,r0,LSL #1       ;2432
                  |L7.2854|
000b26  8030              STRH     r0,[r6,#0]            ;2432
000b28  e013              B        |L7.2898|
000b2a  e014              B        |L7.2902|
                  |L7.2860|
000b2c  4648              MOV      r0,r9                 ;2434
000b2e  f7fffffe          BL       atoi
000b32  8871              LDRH     r1,[r6,#2]            ;2434  ; coff
000b34  eb000080          ADD      r0,r0,r0,LSL #2       ;2434
000b38  eb010040          ADD      r0,r1,r0,LSL #1       ;2434
                  |L7.2876|
000b3c  8070              STRH     r0,[r6,#2]            ;2434
000b3e  e008              B        |L7.2898|
                  |L7.2880|
000b40  4648              MOV      r0,r9                 ;2436
000b42  f7fffffe          BL       atoi
000b46  88b1              LDRH     r1,[r6,#4]            ;2436  ; coff
000b48  eb000080          ADD      r0,r0,r0,LSL #2       ;2436
000b4c  eb010040          ADD      r0,r1,r0,LSL #1       ;2436
                  |L7.2896|
000b50  80b0              STRH     r0,[r6,#4]            ;2436
                  |L7.2898|
000b52  2005              MOVS     r0,#5                 ;2441
000b54  e050              B        |L7.3064|
                  |L7.2902|
000b56  4649              MOV      r1,r9                 ;2446
000b58  4838              LDR      r0,|L7.3132|
000b5a  f7fffffe          BL       strcat
000b5e  4937              LDR      r1,|L7.3132|
000b60  4638              MOV      r0,r7                 ;2447
000b62  f7fffffe          BL       TEXT_SetText
000b66  7828              LDRB     r0,[r5,#0]            ;2448  ; dot_flag
000b68  b170              CBZ      r0,|L7.2952|
000b6a  7828              LDRB     r0,[r5,#0]            ;2459  ; dot_flag
000b6c  2801              CMP      r0,#1                 ;2459
000b6e  f898000d          LDRB     r0,[r8,#0xd]          ;2470  ; coffv_step
000b72  d01b              BEQ      |L7.2988|
000b74  b358              CBZ      r0,|L7.3022|
000b76  f898000d          LDRB     r0,[r8,#0xd]          ;2473  ; coffv_step
000b7a  2801              CMP      r0,#1                 ;2473
000b7c  d02e              BEQ      |L7.3036|
000b7e  f898000d          LDRB     r0,[r8,#0xd]          ;2475  ; coffv_step
000b82  2802              CMP      r0,#2                 ;2475
000b84  d031              BEQ      |L7.3050|
000b86  e036              B        |L7.3062|
                  |L7.2952|
000b88  f898000d          LDRB     r0,[r8,#0xd]          ;2450  ; coffv_step
000b8c  b140              CBZ      r0,|L7.2976|
000b8e  f898000d          LDRB     r0,[r8,#0xd]          ;2453  ; coffv_step
000b92  2801              CMP      r0,#1                 ;2453
000b94  d006              BEQ      |L7.2980|
000b96  f898000d          LDRB     r0,[r8,#0xd]          ;2455  ; coffv_step
000b9a  2802              CMP      r0,#2                 ;2455
000b9c  d004              BEQ      |L7.2984|
000b9e  e02a              B        |L7.3062|
                  |L7.2976|
000ba0  4650              MOV      r0,r10                ;2452
000ba2  e019              B        |L7.3032|
                  |L7.2980|
000ba4  4650              MOV      r0,r10                ;2454
000ba6  e01e              B        |L7.3046|
                  |L7.2984|
000ba8  4650              MOV      r0,r10                ;2456
000baa  e023              B        |L7.3060|
                  |L7.2988|
000bac  b148              CBZ      r0,|L7.3010|
000bae  f898000d          LDRB     r0,[r8,#0xd]          ;2463  ; coffv_step
000bb2  2801              CMP      r0,#1                 ;2463
000bb4  d007              BEQ      |L7.3014|
000bb6  f898000d          LDRB     r0,[r8,#0xd]          ;2465  ; coffv_step
000bba  2802              CMP      r0,#2                 ;2465
000bbc  d005              BEQ      |L7.3018|
000bbe  e01a              B        |L7.3062|
                  |L7.3008|
000bc0  e060              B        |L7.3204|
                  |L7.3010|
000bc2  8830              LDRH     r0,[r6,#0]            ;2462  ; coff
000bc4  e008              B        |L7.3032|
                  |L7.3014|
000bc6  8870              LDRH     r0,[r6,#2]            ;2464  ; coff
000bc8  e00d              B        |L7.3046|
                  |L7.3018|
000bca  88b0              LDRH     r0,[r6,#4]            ;2466  ; coff
000bcc  e012              B        |L7.3060|
                  |L7.3022|
000bce  4648              MOV      r0,r9                 ;2472
000bd0  f7fffffe          BL       atoi
000bd4  8831              LDRH     r1,[r6,#0]            ;2472  ; coff
000bd6  4408              ADD      r0,r0,r1              ;2472
                  |L7.3032|
000bd8  8030              STRH     r0,[r6,#0]            ;2472
000bda  e00c              B        |L7.3062|
                  |L7.3036|
000bdc  4648              MOV      r0,r9                 ;2474
000bde  f7fffffe          BL       atoi
000be2  8871              LDRH     r1,[r6,#2]            ;2474  ; coff
000be4  4408              ADD      r0,r0,r1              ;2474
                  |L7.3046|
000be6  8070              STRH     r0,[r6,#2]            ;2474
000be8  e005              B        |L7.3062|
                  |L7.3050|
000bea  4648              MOV      r0,r9                 ;2476
000bec  f7fffffe          BL       atoi
000bf0  88b1              LDRH     r1,[r6,#4]            ;2476  ; coff
000bf2  4408              ADD      r0,r0,r1              ;2476
                  |L7.3060|
000bf4  80b0              STRH     r0,[r6,#4]            ;2476
                  |L7.3062|
000bf6  2001              MOVS     r0,#1                 ;2481
                  |L7.3064|
000bf8  7020              STRB     r0,[r4,#0]            ;2481
                  |L7.3066|
000bfa  e5b2              B        |L7.1890|
                  |L7.3068|
000bfc  f640017c          MOV      r1,#0x87c             ;2491
000c00  f7fffffe          BL       WM_GetDialogItem
000c04  f8dfa038          LDR      r10,|L7.3136|
000c08  4604              MOV      r4,r0                 ;2491
000c0a  f89a0000          LDRB     r0,[r10,#0]           ;2492  ; bit
000c0e  2807              CMP      r0,#7                 ;2492
000c10  d2f3              BCS      |L7.3066|
000c12  e000              B        |L7.3094|
                  |L7.3092|
000c14  e079              B        |L7.3338|
                  |L7.3094|
000c16  e8dff000          TBB      [pc,r0]               ;2492
000c1a  0405              DCB      0x04,0x05
000c1c  397acef4          DCB      0x39,0x7a,0xce,0xf4
000c20  f300              DCB      0xf3,0x00
000c22  e59e              B        |L7.1890|
000c24  f898000e          LDRB     r0,[r8,#0xe]          ;2495  ; coffc_step
000c28  b170              CBZ      r0,|L7.3144|
000c2a  f898000e          LDRB     r0,[r8,#0xe]          ;2498  ; coffc_step
000c2e  2801              CMP      r0,#1                 ;2498
000c30  d012              BEQ      |L7.3160|
000c32  f898000e          LDRB     r0,[r8,#0xe]          ;2500  ; coffc_step
000c36  2802              CMP      r0,#2                 ;2500
000c38  d017              BEQ      |L7.3178|
000c3a  e01d              B        |L7.3192|
                  |L7.3132|
                          DCD      set_limit
                  |L7.3136|
                          DCD      bit
                  |L7.3140|
000c44  25326400          DCB      "%2d",0
                  |L7.3144|
000c48  4648              MOV      r0,r9                 ;2497
000c4a  f7fffffe          BL       atoi
000c4e  f44f717a          MOV      r1,#0x3e8             ;2497
000c52  4348              MULS     r0,r1,r0              ;2497
000c54  80f0              STRH     r0,[r6,#6]            ;2497
000c56  e00f              B        |L7.3192|
                  |L7.3160|
000c58  4648              MOV      r0,r9                 ;2499
000c5a  f7fffffe          BL       atoi
000c5e  f44f717a          MOV      r1,#0x3e8             ;2499
000c62  4348              MULS     r0,r1,r0              ;2499
000c64  8130              STRH     r0,[r6,#8]            ;2499
000c66  e007              B        |L7.3192|
                  |L7.3176|
000c68  e0a3              B        |L7.3506|
                  |L7.3178|
000c6a  4648              MOV      r0,r9                 ;2501
000c6c  f7fffffe          BL       atoi
000c70  f44f717a          MOV      r1,#0x3e8             ;2501
000c74  4348              MULS     r0,r1,r0              ;2501
000c76  8170              STRH     r0,[r6,#0xa]          ;2501
                  |L7.3192|
000c78  4649              MOV      r1,r9                 ;2504
000c7a  48fd              LDR      r0,|L7.4208|
000c7c  f7fffffe          BL       strcat
000c80  49fb              LDR      r1,|L7.4208|
000c82  4620              MOV      r0,r4                 ;2505
                  |L7.3204|
000c84  f7fffffe          BL       TEXT_SetText
000c88  4658              MOV      r0,r11                ;2506
                  |L7.3210|
000c8a  e568              B        |L7.1886|
000c8c  4649              MOV      r1,r9                 ;2511
000c8e  48f8              LDR      r0,|L7.4208|
000c90  f7fffffe          BL       strcat
000c94  49f6              LDR      r1,|L7.4208|
000c96  4620              MOV      r0,r4                 ;2512
000c98  f7fffffe          BL       TEXT_SetText
000c9c  48f4              LDR      r0,|L7.4208|
000c9e  7840              LDRB     r0,[r0,#1]            ;2513  ; set_limit
000ca0  282e              CMP      r0,#0x2e              ;2513
000ca2  f43fabc0          BEQ      |L7.1062|
000ca6  f898000e          LDRB     r0,[r8,#0xe]          ;2517  ; coffc_step
000caa  b140              CBZ      r0,|L7.3262|
000cac  f898000e          LDRB     r0,[r8,#0xe]          ;2520  ; coffc_step
000cb0  2801              CMP      r0,#1                 ;2520
000cb2  d011              BEQ      |L7.3288|
000cb4  f898000e          LDRB     r0,[r8,#0xe]          ;2522  ; coffc_step
000cb8  2802              CMP      r0,#2                 ;2522
000cba  d01a              BEQ      |L7.3314|
000cbc  e025              B        |L7.3338|
                  |L7.3262|
000cbe  4648              MOV      r0,r9                 ;2519
000cc0  f7fffffe          BL       atoi
000cc4  f44f717a          MOV      r1,#0x3e8             ;2519
000cc8  4348              MULS     r0,r1,r0              ;2519
000cca  88f1              LDRH     r1,[r6,#6]            ;2519  ; coff
000ccc  eb010181          ADD      r1,r1,r1,LSL #2       ;2519
000cd0  eb000041          ADD      r0,r0,r1,LSL #1       ;2519
000cd4  80f0              STRH     r0,[r6,#6]            ;2519
000cd6  e018              B        |L7.3338|
                  |L7.3288|
000cd8  4648              MOV      r0,r9                 ;2521
000cda  f7fffffe          BL       atoi
000cde  f44f717a          MOV      r1,#0x3e8             ;2521
000ce2  4348              MULS     r0,r1,r0              ;2521
000ce4  8931              LDRH     r1,[r6,#8]            ;2521  ; coff
000ce6  eb010181          ADD      r1,r1,r1,LSL #2       ;2521
000cea  eb000041          ADD      r0,r0,r1,LSL #1       ;2521
000cee  8130              STRH     r0,[r6,#8]            ;2521
000cf0  e00b              B        |L7.3338|
                  |L7.3314|
000cf2  4648              MOV      r0,r9                 ;2523
000cf4  f7fffffe          BL       atoi
000cf8  f44f717a          MOV      r1,#0x3e8             ;2523
000cfc  4348              MULS     r0,r1,r0              ;2523
000cfe  8971              LDRH     r1,[r6,#0xa]          ;2523  ; coff
000d00  eb010181          ADD      r1,r1,r1,LSL #2       ;2523
000d04  eb000041          ADD      r0,r0,r1,LSL #1       ;2523
000d08  8170              STRH     r0,[r6,#0xa]          ;2523
                  |L7.3338|
000d0a  2003              MOVS     r0,#3                 ;2527
000d0c  e527              B        |L7.1886|
000d0e  4649              MOV      r1,r9                 ;2532
000d10  48d7              LDR      r0,|L7.4208|
000d12  f7fffffe          BL       strcat
000d16  49d6              LDR      r1,|L7.4208|
000d18  4620              MOV      r0,r4                 ;2533
000d1a  f7fffffe          BL       TEXT_SetText
000d1e  7828              LDRB     r0,[r5,#0]            ;2534  ; dot_flag
000d20  b168              CBZ      r0,|L7.3390|
000d22  f898000e          LDRB     r0,[r8,#0xe]          ;2551  ; coffc_step
000d26  b308              CBZ      r0,|L7.3436|
000d28  f898000e          LDRB     r0,[r8,#0xe]          ;2554  ; coffc_step
000d2c  2801              CMP      r0,#1                 ;2554
000d2e  d029              BEQ      |L7.3460|
000d30  f898000e          LDRB     r0,[r8,#0xe]          ;2556  ; coffc_step
000d34  2802              CMP      r0,#2                 ;2556
000d36  e000              B        |L7.3386|
                  |L7.3384|
000d38  e0b4              B        |L7.3748|
                  |L7.3386|
000d3a  d02f              BEQ      |L7.3484|
000d3c  e039              B        |L7.3506|
                  |L7.3390|
000d3e  48cc              LDR      r0,|L7.4208|
000d40  7880              LDRB     r0,[r0,#2]            ;2536  ; set_limit
000d42  282e              CMP      r0,#0x2e              ;2536
000d44  f43fabb0          BEQ      |L7.1192|
000d48  f898000e          LDRB     r0,[r8,#0xe]          ;2540  ; coffc_step
000d4c  b140              CBZ      r0,|L7.3424|
000d4e  f898000e          LDRB     r0,[r8,#0xe]          ;2543  ; coffc_step
000d52  2801              CMP      r0,#1                 ;2543
000d54  d006              BEQ      |L7.3428|
000d56  f898000e          LDRB     r0,[r8,#0xe]          ;2545  ; coffc_step
000d5a  2802              CMP      r0,#2                 ;2545
000d5c  d004              BEQ      |L7.3432|
000d5e  e028              B        |L7.3506|
                  |L7.3424|
000d60  80f7              STRH     r7,[r6,#6]            ;2542
000d62  e026              B        |L7.3506|
                  |L7.3428|
000d64  8137              STRH     r7,[r6,#8]            ;2544
000d66  e024              B        |L7.3506|
                  |L7.3432|
000d68  8177              STRH     r7,[r6,#0xa]          ;2546
000d6a  e022              B        |L7.3506|
                  |L7.3436|
000d6c  4648              MOV      r0,r9                 ;2553
000d6e  f7fffffe          BL       atoi
000d72  eb0001c0          ADD      r1,r0,r0,LSL #3       ;2553
000d76  eb011000          ADD      r0,r1,r0,LSL #4       ;2553
000d7a  88f1              LDRH     r1,[r6,#6]            ;2553  ; coff
000d7c  eb010080          ADD      r0,r1,r0,LSL #2       ;2553
000d80  80f0              STRH     r0,[r6,#6]            ;2553
000d82  e016              B        |L7.3506|
                  |L7.3460|
000d84  4648              MOV      r0,r9                 ;2555
000d86  f7fffffe          BL       atoi
000d8a  eb0001c0          ADD      r1,r0,r0,LSL #3       ;2555
000d8e  eb011000          ADD      r0,r1,r0,LSL #4       ;2555
000d92  8931              LDRH     r1,[r6,#8]            ;2555  ; coff
000d94  eb010080          ADD      r0,r1,r0,LSL #2       ;2555
000d98  8130              STRH     r0,[r6,#8]            ;2555
000d9a  e00a              B        |L7.3506|
                  |L7.3484|
000d9c  4648              MOV      r0,r9                 ;2557
000d9e  f7fffffe          BL       atoi
000da2  eb0001c0          ADD      r1,r0,r0,LSL #3       ;2557
000da6  eb011000          ADD      r0,r1,r0,LSL #4       ;2557
000daa  8971              LDRH     r1,[r6,#0xa]          ;2557  ; coff
000dac  eb010080          ADD      r0,r1,r0,LSL #2       ;2557
000db0  8170              STRH     r0,[r6,#0xa]          ;2557
                  |L7.3506|
000db2  2004              MOVS     r0,#4                 ;2562
000db4  e4d3              B        |L7.1886|
000db6  4649              MOV      r1,r9                 ;2567
000db8  48ad              LDR      r0,|L7.4208|
000dba  f7fffffe          BL       strcat
000dbe  49ac              LDR      r1,|L7.4208|
000dc0  4620              MOV      r0,r4                 ;2568
000dc2  f7fffffe          BL       TEXT_SetText
000dc6  7828              LDRB     r0,[r5,#0]            ;2569  ; dot_flag
000dc8  b170              CBZ      r0,|L7.3560|
000dca  7828              LDRB     r0,[r5,#0]            ;2580  ; dot_flag
000dcc  2802              CMP      r0,#2                 ;2580
000dce  f898000e          LDRB     r0,[r8,#0xe]          ;2591  ; coffc_step
000dd2  d01e              BEQ      |L7.3602|
000dd4  b390              CBZ      r0,|L7.3644|
000dd6  f898000e          LDRB     r0,[r8,#0xe]          ;2594  ; coffc_step
000dda  2801              CMP      r0,#1                 ;2594
000ddc  d04f              BEQ      |L7.3710|
000dde  f898000e          LDRB     r0,[r8,#0xe]          ;2596  ; coffc_step
000de2  2802              CMP      r0,#2                 ;2596
000de4  d055              BEQ      |L7.3730|
000de6  e05d              B        |L7.3748|
                  |L7.3560|
000de8  f898000e          LDRB     r0,[r8,#0xe]          ;2571  ; coffc_step
000dec  b158              CBZ      r0,|L7.3590|
000dee  f898000e          LDRB     r0,[r8,#0xe]          ;2574  ; coffc_step
000df2  2801              CMP      r0,#1                 ;2574
000df4  d009              BEQ      |L7.3594|
000df6  f898000e          LDRB     r0,[r8,#0xe]          ;2576  ; coffc_step
000dfa  2802              CMP      r0,#2                 ;2576
000dfc  d007              BEQ      |L7.3598|
000dfe  e051              B        |L7.3748|
000e00  e0ad              B        |L7.3934|
000e02  e051              B        |L7.3752|
                  |L7.3588|
000e04  e0a9              B        |L7.3930|
                  |L7.3590|
000e06  80f7              STRH     r7,[r6,#6]            ;2573
000e08  e04c              B        |L7.3748|
                  |L7.3594|
000e0a  8137              STRH     r7,[r6,#8]            ;2575
000e0c  e04a              B        |L7.3748|
                  |L7.3598|
000e0e  8177              STRH     r7,[r6,#0xa]          ;2577
000e10  e048              B        |L7.3748|
                  |L7.3602|
000e12  b140              CBZ      r0,|L7.3622|
000e14  f898000e          LDRB     r0,[r8,#0xe]          ;2584  ; coffc_step
000e18  2801              CMP      r0,#1                 ;2584
000e1a  d010              BEQ      |L7.3646|
000e1c  f898000e          LDRB     r0,[r8,#0xe]          ;2586  ; coffc_step
000e20  2802              CMP      r0,#2                 ;2586
000e22  d017              BEQ      |L7.3668|
000e24  e03e              B        |L7.3748|
                  |L7.3622|
000e26  4648              MOV      r0,r9                 ;2583
000e28  f7fffffe          BL       atoi
000e2c  eb0001c0          ADD      r1,r0,r0,LSL #3       ;2583
000e30  eb011000          ADD      r0,r1,r0,LSL #4       ;2583
000e34  88f1              LDRH     r1,[r6,#6]            ;2583  ; coff
000e36  eb010080          ADD      r0,r1,r0,LSL #2       ;2583
000e3a  e01e              B        |L7.3706|
                  |L7.3644|
000e3c  e015              B        |L7.3690|
                  |L7.3646|
000e3e  4648              MOV      r0,r9                 ;2585
000e40  f7fffffe          BL       atoi
000e44  eb0001c0          ADD      r1,r0,r0,LSL #3       ;2585
000e48  eb011000          ADD      r0,r1,r0,LSL #4       ;2585
000e4c  8931              LDRH     r1,[r6,#8]            ;2585  ; coff
000e4e  eb010080          ADD      r0,r1,r0,LSL #2       ;2585
000e52  e01c              B        |L7.3726|
                  |L7.3668|
000e54  4648              MOV      r0,r9                 ;2587
000e56  f7fffffe          BL       atoi
000e5a  eb0001c0          ADD      r1,r0,r0,LSL #3       ;2587
000e5e  eb011000          ADD      r0,r1,r0,LSL #4       ;2587
000e62  8971              LDRH     r1,[r6,#0xa]          ;2587  ; coff
000e64  eb010080          ADD      r0,r1,r0,LSL #2       ;2587
000e68  e01b              B        |L7.3746|
                  |L7.3690|
000e6a  4648              MOV      r0,r9                 ;2593
000e6c  f7fffffe          BL       atoi
000e70  88f1              LDRH     r1,[r6,#6]            ;2593  ; coff
000e72  eb000080          ADD      r0,r0,r0,LSL #2       ;2593
000e76  eb010040          ADD      r0,r1,r0,LSL #1       ;2593
                  |L7.3706|
000e7a  80f0              STRH     r0,[r6,#6]            ;2593
000e7c  e012              B        |L7.3748|
                  |L7.3710|
000e7e  4648              MOV      r0,r9                 ;2595
000e80  f7fffffe          BL       atoi
000e84  8931              LDRH     r1,[r6,#8]            ;2595  ; coff
000e86  eb000080          ADD      r0,r0,r0,LSL #2       ;2595
000e8a  eb010040          ADD      r0,r1,r0,LSL #1       ;2595
                  |L7.3726|
000e8e  8130              STRH     r0,[r6,#8]            ;2595
000e90  e008              B        |L7.3748|
                  |L7.3730|
000e92  4648              MOV      r0,r9                 ;2597
000e94  f7fffffe          BL       atoi
000e98  8971              LDRH     r1,[r6,#0xa]          ;2597  ; coff
000e9a  eb000080          ADD      r0,r0,r0,LSL #2       ;2597
000e9e  eb010040          ADD      r0,r1,r0,LSL #1       ;2597
                  |L7.3746|
000ea2  8170              STRH     r0,[r6,#0xa]          ;2597
                  |L7.3748|
000ea4  2005              MOVS     r0,#5                 ;2602
000ea6  e45a              B        |L7.1886|
                  |L7.3752|
000ea8  4649              MOV      r1,r9                 ;2607
000eaa  4871              LDR      r0,|L7.4208|
000eac  f7fffffe          BL       strcat
000eb0  496f              LDR      r1,|L7.4208|
000eb2  4620              MOV      r0,r4                 ;2608
000eb4  f7fffffe          BL       TEXT_SetText
000eb8  7828              LDRB     r0,[r5,#0]            ;2609  ; dot_flag
000eba  b178              CBZ      r0,|L7.3804|
000ebc  7828              LDRB     r0,[r5,#0]            ;2620  ; dot_flag
000ebe  2801              CMP      r0,#1                 ;2620
000ec0  f898000e          LDRB     r0,[r8,#0xe]          ;2631  ; coffc_step
000ec4  d01c              BEQ      |L7.3840|
000ec6  b358              CBZ      r0,|L7.3872|
000ec8  f898000e          LDRB     r0,[r8,#0xe]          ;2634  ; coffc_step
000ecc  2801              CMP      r0,#1                 ;2634
000ece  d031              BEQ      |L7.3892|
000ed0  f898000e          LDRB     r0,[r8,#0xe]          ;2636  ; coffc_step
000ed4  2802              CMP      r0,#2                 ;2636
000ed6  d037              BEQ      |L7.3912|
000ed8  e03f              B        |L7.3930|
                  |L7.3802|
000eda  e081              B        |L7.4064|
                  |L7.3804|
000edc  f898000e          LDRB     r0,[r8,#0xe]          ;2611  ; coffc_step
000ee0  b140              CBZ      r0,|L7.3828|
000ee2  f898000e          LDRB     r0,[r8,#0xe]          ;2614  ; coffc_step
000ee6  2801              CMP      r0,#1                 ;2614
000ee8  d006              BEQ      |L7.3832|
000eea  f898000e          LDRB     r0,[r8,#0xe]          ;2616  ; coffc_step
000eee  2802              CMP      r0,#2                 ;2616
000ef0  d004              BEQ      |L7.3836|
000ef2  e032              B        |L7.3930|
                  |L7.3828|
000ef4  80f7              STRH     r7,[r6,#6]            ;2613
000ef6  e030              B        |L7.3930|
                  |L7.3832|
000ef8  8137              STRH     r7,[r6,#8]            ;2615
000efa  e02e              B        |L7.3930|
                  |L7.3836|
000efc  8177              STRH     r7,[r6,#0xa]          ;2617
000efe  e02c              B        |L7.3930|
                  |L7.3840|
000f00  b140              CBZ      r0,|L7.3860|
000f02  f898000e          LDRB     r0,[r8,#0xe]          ;2624  ; coffc_step
000f06  2801              CMP      r0,#1                 ;2624
000f08  d006              BEQ      |L7.3864|
000f0a  f898000e          LDRB     r0,[r8,#0xe]          ;2626  ; coffc_step
000f0e  2802              CMP      r0,#2                 ;2626
000f10  d004              BEQ      |L7.3868|
000f12  e022              B        |L7.3930|
                  |L7.3860|
000f14  88f0              LDRH     r0,[r6,#6]            ;2623  ; coff
000f16  e00b              B        |L7.3888|
                  |L7.3864|
000f18  8930              LDRH     r0,[r6,#8]            ;2625  ; coff
000f1a  e013              B        |L7.3908|
                  |L7.3868|
000f1c  8970              LDRH     r0,[r6,#0xa]          ;2627  ; coff
000f1e  e01b              B        |L7.3928|
                  |L7.3872|
000f20  4648              MOV      r0,r9                 ;2633
000f22  f7fffffe          BL       atoi
000f26  88f1              LDRH     r1,[r6,#6]            ;2633  ; coff
000f28  eb000080          ADD      r0,r0,r0,LSL #2       ;2633
000f2c  eb010040          ADD      r0,r1,r0,LSL #1       ;2633
                  |L7.3888|
000f30  80f0              STRH     r0,[r6,#6]            ;2633
000f32  e012              B        |L7.3930|
                  |L7.3892|
000f34  4648              MOV      r0,r9                 ;2635
000f36  f7fffffe          BL       atoi
000f3a  8931              LDRH     r1,[r6,#8]            ;2635  ; coff
000f3c  eb000080          ADD      r0,r0,r0,LSL #2       ;2635
000f40  eb010040          ADD      r0,r1,r0,LSL #1       ;2635
                  |L7.3908|
000f44  8130              STRH     r0,[r6,#8]            ;2635
000f46  e008              B        |L7.3930|
                  |L7.3912|
000f48  4648              MOV      r0,r9                 ;2637
000f4a  f7fffffe          BL       atoi
000f4e  8971              LDRH     r1,[r6,#0xa]          ;2637  ; coff
000f50  eb000080          ADD      r0,r0,r0,LSL #2       ;2637
000f54  eb010040          ADD      r0,r1,r0,LSL #1       ;2637
                  |L7.3928|
000f58  8170              STRH     r0,[r6,#0xa]          ;2637
                  |L7.3930|
000f5a  2006              MOVS     r0,#6                 ;2642
000f5c  e695              B        |L7.3210|
                  |L7.3934|
000f5e  4649              MOV      r1,r9                 ;2647
000f60  4843              LDR      r0,|L7.4208|
000f62  f7fffffe          BL       strcat
000f66  4942              LDR      r1,|L7.4208|
000f68  4620              MOV      r0,r4                 ;2648
000f6a  f7fffffe          BL       TEXT_SetText
000f6e  7828              LDRB     r0,[r5,#0]            ;2649  ; dot_flag
000f70  b120              CBZ      r0,|L7.3964|
000f72  7828              LDRB     r0,[r5,#0]            ;2660  ; dot_flag
000f74  2802              CMP      r0,#2                 ;2660
000f76  d013              BEQ      |L7.4000|
000f78  e032              B        |L7.4064|
                  |L7.3962|
000f7a  e102              B        |L7.4482|
                  |L7.3964|
000f7c  f898000e          LDRB     r0,[r8,#0xe]          ;2651  ; coffc_step
000f80  b140              CBZ      r0,|L7.3988|
000f82  f898000e          LDRB     r0,[r8,#0xe]          ;2654  ; coffc_step
000f86  2801              CMP      r0,#1                 ;2654
000f88  d006              BEQ      |L7.3992|
000f8a  f898000e          LDRB     r0,[r8,#0xe]          ;2656  ; coffc_step
000f8e  2802              CMP      r0,#2                 ;2656
000f90  d004              BEQ      |L7.3996|
000f92  e025              B        |L7.4064|
                  |L7.3988|
000f94  80f7              STRH     r7,[r6,#6]            ;2653
000f96  e023              B        |L7.4064|
                  |L7.3992|
000f98  8137              STRH     r7,[r6,#8]            ;2655
000f9a  e021              B        |L7.4064|
                  |L7.3996|
000f9c  8177              STRH     r7,[r6,#0xa]          ;2657
000f9e  e01f              B        |L7.4064|
                  |L7.4000|
000fa0  f898000e          LDRB     r0,[r8,#0xe]          ;2661  ; coffc_step
000fa4  b140              CBZ      r0,|L7.4024|
000fa6  f898000e          LDRB     r0,[r8,#0xe]          ;2664  ; coffc_step
000faa  2801              CMP      r0,#1                 ;2664
000fac  d00b              BEQ      |L7.4038|
000fae  f898000e          LDRB     r0,[r8,#0xe]          ;2666  ; coffc_step
000fb2  2802              CMP      r0,#2                 ;2666
000fb4  d00e              BEQ      |L7.4052|
000fb6  e013              B        |L7.4064|
                  |L7.4024|
000fb8  4648              MOV      r0,r9                 ;2663
000fba  f7fffffe          BL       atoi
000fbe  88f1              LDRH     r1,[r6,#6]            ;2663  ; coff
000fc0  4408              ADD      r0,r0,r1              ;2663
000fc2  80f0              STRH     r0,[r6,#6]            ;2663
000fc4  e00c              B        |L7.4064|
                  |L7.4038|
000fc6  4648              MOV      r0,r9                 ;2665
000fc8  f7fffffe          BL       atoi
000fcc  8931              LDRH     r1,[r6,#8]            ;2665  ; coff
000fce  4408              ADD      r0,r0,r1              ;2665
000fd0  8130              STRH     r0,[r6,#8]            ;2665
000fd2  e005              B        |L7.4064|
                  |L7.4052|
000fd4  4648              MOV      r0,r9                 ;2667
000fd6  f7fffffe          BL       atoi
000fda  8971              LDRH     r1,[r6,#0xa]          ;2667  ; coff
000fdc  4408              ADD      r0,r0,r1              ;2667
000fde  8170              STRH     r0,[r6,#0xa]          ;2667
                  |L7.4064|
000fe0  2001              MOVS     r0,#1                 ;2671
000fe2  e652              B        |L7.3210|
                  |L7.4068|
000fe4  e104              B        |L7.4592|
                  |L7.4070|
000fe6  f640017d          MOV      r1,#0x87d             ;2681
000fea  f7fffffe          BL       WM_GetDialogItem
000fee  4e21              LDR      r6,|L7.4212|
000ff0  4680              MOV      r8,r0                 ;2681
000ff2  7830              LDRB     r0,[r6,#0]            ;2682  ; bit
000ff4  4f20              LDR      r7,|L7.4216|
000ff6  2807              CMP      r0,#7                 ;2682
000ff8  f4bfadff          BCS      |L7.3066|
000ffc  e8dff000          TBB      [pc,r0]               ;2682
001000  04050e28          DCB      0x04,0x05,0x0e,0x28
001004  4f729200          DCB      0x4f,0x72,0x92,0x00
001008  e5f7              B        |L7.3066|
00100a  4648              MOV      r0,r9                 ;2685
00100c  f7fffffe          BL       atoi
001010  f44f717a          MOV      r1,#0x3e8             ;2685
001014  4348              MULS     r0,r1,r0              ;2685
001016  66e0              STR      r0,[r4,#0x6c]         ;2685  ; Run_Control
001018  e0b3              B        |L7.4482|
                  |L7.4122|
00101a  e105              B        |L7.4648|
00101c  4649              MOV      r1,r9                 ;2693
00101e  4814              LDR      r0,|L7.4208|
001020  f7fffffe          BL       strcat
001024  4912              LDR      r1,|L7.4208|
001026  4640              MOV      r0,r8                 ;2694
001028  f7fffffe          BL       TEXT_SetText
00102c  4810              LDR      r0,|L7.4208|
00102e  7840              LDRB     r0,[r0,#1]            ;2695  ; set_limit
001030  282e              CMP      r0,#0x2e              ;2695
001032  f43fa851          BEQ      |L7.216|
001036  4648              MOV      r0,r9                 ;2699
001038  f7fffffe          BL       atoi
00103c  f44f717a          MOV      r1,#0x3e8             ;2699
001040  4348              MULS     r0,r1,r0              ;2699
001042  6ee1              LDR      r1,[r4,#0x6c]         ;2699  ; Run_Control
001044  eb010181          ADD      r1,r1,r1,LSL #2       ;2699
001048  eb000041          ADD      r0,r0,r1,LSL #1       ;2699
00104c  66e0              STR      r0,[r4,#0x6c]         ;2699  ; Run_Control
                  |L7.4174|
00104e  e0ba              B        |L7.4550|
001050  4649              MOV      r1,r9                 ;2706
001052  4807              LDR      r0,|L7.4208|
001054  f7fffffe          BL       strcat
001058  4905              LDR      r1,|L7.4208|
00105a  4640              MOV      r0,r8                 ;2707
00105c  f7fffffe          BL       TEXT_SetText
001060  7828              LDRB     r0,[r5,#0]            ;2708  ; dot_flag
001062  b1a8              CBZ      r0,|L7.4240|
001064  4648              MOV      r0,r9                 ;2717
001066  f7fffffe          BL       atoi
00106a  eb0001c0          ADD      r1,r0,r0,LSL #3       ;2717
00106e  e008              B        |L7.4226|
                  |L7.4208|
                          DCD      set_limit
                  |L7.4212|
                          DCD      bit
                  |L7.4216|
                          DCD      0x00013880
                  |L7.4220|
00107c  e048              B        |L7.4368|
                  |L7.4222|
00107e  e086              B        |L7.4494|
                  |L7.4224|
001080  e0f1              B        |L7.4710|
                  |L7.4226|
001082  eb011000          ADD      r0,r1,r0,LSL #4       ;2717
001086  6ee1              LDR      r1,[r4,#0x6c]         ;2717  ; Run_Control
001088  eb010080          ADD      r0,r1,r0,LSL #2       ;2717
00108c  66e0              STR      r0,[r4,#0x6c]         ;2717  ; Run_Control
00108e  e0af              B        |L7.4592|
                  |L7.4240|
001090  4878              LDR      r0,|L7.4724|
001092  7880              LDRB     r0,[r0,#2]            ;2710  ; set_limit
001094  282e              CMP      r0,#0x2e              ;2710
001096  f43fa86b          BEQ      |L7.368|
00109a  66e7              STR      r7,[r4,#0x6c]         ;2714  ; Run_Control
00109c  e0a8              B        |L7.4592|
00109e  4649              MOV      r1,r9                 ;2725
0010a0  4874              LDR      r0,|L7.4724|
0010a2  f7fffffe          BL       strcat
0010a6  4973              LDR      r1,|L7.4724|
0010a8  4640              MOV      r0,r8                 ;2726
0010aa  f7fffffe          BL       TEXT_SetText
0010ae  7828              LDRB     r0,[r5,#0]            ;2727  ; dot_flag
0010b0  b160              CBZ      r0,|L7.4300|
0010b2  7828              LDRB     r0,[r5,#0]            ;2730  ; dot_flag
0010b4  2802              CMP      r0,#2                 ;2730
0010b6  4648              MOV      r0,r9                 ;2733
0010b8  d00a              BEQ      |L7.4304|
0010ba  f7fffffe          BL       atoi
0010be  6ee1              LDR      r1,[r4,#0x6c]         ;2733  ; Run_Control
0010c0  eb000080          ADD      r0,r0,r0,LSL #2       ;2733
0010c4  eb010040          ADD      r0,r1,r0,LSL #1       ;2733
                  |L7.4296|
0010c8  66e0              STR      r0,[r4,#0x6c]         ;2731  ; Run_Control
0010ca  e0ad              B        |L7.4648|
                  |L7.4300|
0010cc  66e7              STR      r7,[r4,#0x6c]         ;2729  ; Run_Control
0010ce  e0ab              B        |L7.4648|
                  |L7.4304|
0010d0  f7fffffe          BL       atoi
0010d4  eb0001c0          ADD      r1,r0,r0,LSL #3       ;2731
0010d8  eb011000          ADD      r0,r1,r0,LSL #4       ;2731
0010dc  6ee1              LDR      r1,[r4,#0x6c]         ;2731  ; Run_Control
0010de  eb010080          ADD      r0,r1,r0,LSL #2       ;2731
0010e2  e7f1              B        |L7.4296|
0010e4  4649              MOV      r1,r9                 ;2741
0010e6  4863              LDR      r0,|L7.4724|
0010e8  f7fffffe          BL       strcat
0010ec  4961              LDR      r1,|L7.4724|
0010ee  4640              MOV      r0,r8                 ;2742
0010f0  f7fffffe          BL       TEXT_SetText
0010f4  7828              LDRB     r0,[r5,#0]            ;2743  ; dot_flag
0010f6  b170              CBZ      r0,|L7.4374|
0010f8  7828              LDRB     r0,[r5,#0]            ;2746  ; dot_flag
0010fa  2801              CMP      r0,#1                 ;2746
0010fc  4648              MOV      r0,r9                 ;2749
0010fe  d00c              BEQ      |L7.4378|
001100  f7fffffe          BL       atoi
001104  6ee1              LDR      r1,[r4,#0x6c]         ;2749  ; Run_Control
001106  eb000080          ADD      r0,r0,r0,LSL #2       ;2749
00110a  eb010040          ADD      r0,r1,r0,LSL #1       ;2749
                  |L7.4366|
00110e  66e0              STR      r0,[r4,#0x6c]         ;2747  ; Run_Control
                  |L7.4368|
001110  2006              MOVS     r0,#6                 ;2752
                  |L7.4370|
001112  f7ffb91f          B        |L7.852|
                  |L7.4374|
001116  66e7              STR      r7,[r4,#0x6c]         ;2745  ; Run_Control
001118  e7fa              B        |L7.4368|
                  |L7.4378|
00111a  f7fffffe          BL       atoi
00111e  6ee1              LDR      r1,[r4,#0x6c]         ;2747  ; Run_Control
001120  4408              ADD      r0,r0,r1              ;2747
001122  e7f4              B        |L7.4366|
001124  4649              MOV      r1,r9                 ;2757
001126  4853              LDR      r0,|L7.4724|
001128  f7fffffe          BL       strcat
00112c  4951              LDR      r1,|L7.4724|
00112e  4640              MOV      r0,r8                 ;2758
001130  f7fffffe          BL       TEXT_SetText
001134  7828              LDRB     r0,[r5,#0]            ;2759  ; dot_flag
001136  b118              CBZ      r0,|L7.4416|
001138  7828              LDRB     r0,[r5,#0]            ;2762  ; dot_flag
00113a  2802              CMP      r0,#2                 ;2762
00113c  d002              BEQ      |L7.4420|
00113e  e092              B        |L7.4710|
                  |L7.4416|
001140  66e7              STR      r7,[r4,#0x6c]         ;2761  ; Run_Control
001142  e090              B        |L7.4710|
                  |L7.4420|
001144  4648              MOV      r0,r9                 ;2763
001146  f7fffffe          BL       atoi
00114a  6ee1              LDR      r1,[r4,#0x6c]         ;2763  ; Run_Control
00114c  4408              ADD      r0,r0,r1              ;2763
00114e  66e0              STR      r0,[r4,#0x6c]         ;2763  ; Run_Control
001150  e089              B        |L7.4710|
                  |L7.4434|
001152  f640017e          MOV      r1,#0x87e             ;2775
001156  f7fffffe          BL       WM_GetDialogItem
00115a  4e47              LDR      r6,|L7.4728|
00115c  4680              MOV      r8,r0                 ;2775
00115e  7830              LDRB     r0,[r6,#0]            ;2776  ; bit
001160  f24057dc          MOV      r7,#0x5dc             ;2808
001164  2806              CMP      r0,#6                 ;2776
001166  f4bfad48          BCS      |L7.3066|
00116a  e8dff000          TBB      [pc,r0]               ;2776
00116e  0304              DCB      0x03,0x04
001170  142e4a69          DCB      0x14,0x2e,0x4a,0x69
001174  e541              B        |L7.3066|
001176  4648              MOV      r0,r9                 ;2779
001178  f7fffffe          BL       atoi
00117c  2164              MOVS     r1,#0x64              ;2779
00117e  4348              MULS     r0,r1,r0              ;2779
001180  6720              STR      r0,[r4,#0x70]         ;2779  ; Run_Control
                  |L7.4482|
001182  4649              MOV      r1,r9                 ;2780
001184  483b              LDR      r0,|L7.4724|
001186  f7fffffe          BL       strcat
00118a  493a              LDR      r1,|L7.4724|
00118c  4640              MOV      r0,r8                 ;2781
                  |L7.4494|
00118e  f7fffffe          BL       TEXT_SetText
001192  4658              MOV      r0,r11                ;2782
001194  e7bd              B        |L7.4370|
001196  4649              MOV      r1,r9                 ;2787
001198  4836              LDR      r0,|L7.4724|
00119a  f7fffffe          BL       strcat
00119e  4935              LDR      r1,|L7.4724|
0011a0  4640              MOV      r0,r8                 ;2788
0011a2  f7fffffe          BL       TEXT_SetText
0011a6  4833              LDR      r0,|L7.4724|
0011a8  7840              LDRB     r0,[r0,#1]            ;2789  ; set_limit
0011aa  282e              CMP      r0,#0x2e              ;2789
0011ac  f43eaf94          BEQ      |L7.216|
0011b0  4648              MOV      r0,r9                 ;2793
0011b2  f7fffffe          BL       atoi
0011b6  2164              MOVS     r1,#0x64              ;2793
0011b8  4348              MULS     r0,r1,r0              ;2793
0011ba  6f21              LDR      r1,[r4,#0x70]         ;2793  ; Run_Control
0011bc  eb010181          ADD      r1,r1,r1,LSL #2       ;2793
0011c0  eb000041          ADD      r0,r0,r1,LSL #1       ;2793
0011c4  6720              STR      r0,[r4,#0x70]         ;2793  ; Run_Control
                  |L7.4550|
0011c6  2003              MOVS     r0,#3                 ;2795
0011c8  e7a3              B        |L7.4370|
0011ca  4649              MOV      r1,r9                 ;2800
0011cc  4829              LDR      r0,|L7.4724|
0011ce  f7fffffe          BL       strcat
0011d2  4928              LDR      r1,|L7.4724|
0011d4  4640              MOV      r0,r8                 ;2801
0011d6  f7fffffe          BL       TEXT_SetText
0011da  7828              LDRB     r0,[r5,#0]            ;2802  ; dot_flag
0011dc  b150              CBZ      r0,|L7.4596|
0011de  4648              MOV      r0,r9                 ;2811
0011e0  f7fffffe          BL       atoi
0011e4  6f21              LDR      r1,[r4,#0x70]         ;2811  ; Run_Control
0011e6  eb000080          ADD      r0,r0,r0,LSL #2       ;2811
0011ea  eb010040          ADD      r0,r1,r0,LSL #1       ;2811
0011ee  6720              STR      r0,[r4,#0x70]         ;2811  ; Run_Control
                  |L7.4592|
0011f0  2004              MOVS     r0,#4                 ;2814
0011f2  e78e              B        |L7.4370|
                  |L7.4596|
0011f4  481f              LDR      r0,|L7.4724|
0011f6  7880              LDRB     r0,[r0,#2]            ;2804  ; set_limit
0011f8  282e              CMP      r0,#0x2e              ;2804
0011fa  f43eafb9          BEQ      |L7.368|
0011fe  6727              STR      r7,[r4,#0x70]         ;2808  ; Run_Control
001200  e7f6              B        |L7.4592|
001202  4649              MOV      r1,r9                 ;2819
001204  481b              LDR      r0,|L7.4724|
001206  f7fffffe          BL       strcat
00120a  491a              LDR      r1,|L7.4724|
00120c  4640              MOV      r0,r8                 ;2820
00120e  f7fffffe          BL       TEXT_SetText
001212  7828              LDRB     r0,[r5,#0]            ;2821  ; dot_flag
001214  b150              CBZ      r0,|L7.4652|
001216  7828              LDRB     r0,[r5,#0]            ;2824  ; dot_flag
001218  2802              CMP      r0,#2                 ;2824
00121a  4648              MOV      r0,r9                 ;2827
00121c  d008              BEQ      |L7.4656|
00121e  f7fffffe          BL       atoi
001222  6f21              LDR      r1,[r4,#0x70]         ;2827  ; Run_Control
001224  4408              ADD      r0,r0,r1              ;2827
                  |L7.4646|
001226  6720              STR      r0,[r4,#0x70]         ;2825  ; Run_Control
                  |L7.4648|
001228  2005              MOVS     r0,#5                 ;2830
00122a  e772              B        |L7.4370|
                  |L7.4652|
00122c  6727              STR      r7,[r4,#0x70]         ;2823  ; Run_Control
00122e  e7fb              B        |L7.4648|
                  |L7.4656|
001230  f7fffffe          BL       atoi
001234  6f21              LDR      r1,[r4,#0x70]         ;2825  ; Run_Control
001236  eb000080          ADD      r0,r0,r0,LSL #2       ;2825
00123a  eb010040          ADD      r0,r1,r0,LSL #1       ;2825
00123e  e7f2              B        |L7.4646|
001240  4649              MOV      r1,r9                 ;2835
001242  480c              LDR      r0,|L7.4724|
001244  f7fffffe          BL       strcat
001248  490a              LDR      r1,|L7.4724|
00124a  4640              MOV      r0,r8                 ;2836
00124c  f7fffffe          BL       TEXT_SetText
001250  7828              LDRB     r0,[r5,#0]            ;2837  ; dot_flag
001252  b150              CBZ      r0,|L7.4714|
001254  7828              LDRB     r0,[r5,#0]            ;2840  ; dot_flag
001256  2801              CMP      r0,#1                 ;2840
001258  d009              BEQ      |L7.4718|
00125a  4648              MOV      r0,r9                 ;2843
00125c  f7fffffe          BL       atoi
001260  6f21              LDR      r1,[r4,#0x70]         ;2843  ; Run_Control
001262  4408              ADD      r0,r0,r1              ;2843
                  |L7.4708|
001264  6720              STR      r0,[r4,#0x70]         ;2841  ; Run_Control
                  |L7.4710|
001266  2001              MOVS     r0,#1                 ;2846
001268  e753              B        |L7.4370|
                  |L7.4714|
00126a  6727              STR      r7,[r4,#0x70]         ;2839  ; Run_Control
00126c  e7fb              B        |L7.4710|
                  |L7.4718|
00126e  6f20              LDR      r0,[r4,#0x70]         ;2841  ; Run_Control
001270  e7f8              B        |L7.4708|
;;;2855   
                          ENDP

001272  0000              DCW      0x0000
                  |L7.4724|
                          DCD      set_limit
                  |L7.4728|
                          DCD      bit

                          AREA ||i.ResetCDC||, CODE, READONLY, ALIGN=2

                  ResetCDC PROC
;;;980    
;;;981    WM_HWIN ResetCDC(void) {
000000  b51c              PUSH     {r2-r4,lr}
;;;982      hWincdc = GUI_CreateDialogBox(_aDialogCreate4, GUI_COUNTOF(_aDialogCreate4), _cbDialog, WM_HBKWIN, 0, 0);
000002  f7fffffe          BL       WM_GetDesktopWindow
000006  4603              MOV      r3,r0
000008  2000              MOVS     r0,#0
00000a  9000              STR      r0,[sp,#0]
00000c  9001              STR      r0,[sp,#4]
00000e  4a04              LDR      r2,|L8.32|
000010  2129              MOVS     r1,#0x29
000012  4804              LDR      r0,|L8.36|
000014  f7fffffe          BL       GUI_CreateDialogBox
000018  4903              LDR      r1,|L8.40|
00001a  6188              STR      r0,[r1,#0x18]  ; hWincdc
;;;983      return hWincdc;
;;;984    }
00001c  bd1c              POP      {r2-r4,pc}
;;;985    
                          ENDP

00001e  0000              DCW      0x0000
                  |L8.32|
                          DCD      _cbDialog
                  |L8.36|
                          DCD      ||.constdata||
                  |L8.40|
                          DCD      ||.data||

                          AREA ||i._cbDialog||, CODE, READONLY, ALIGN=2

                          REQUIRE _printf_percent
                          REQUIRE _printf_widthprec
                          REQUIRE _printf_f
                          REQUIRE _printf_fp_dec
                          REQUIRE _printf_pre_padding
                          REQUIRE _printf_d
                          REQUIRE _printf_int_dec
                          REQUIRE _printf_flags
                  _cbDialog PROC
;;;180    */
;;;181    static void _cbDialog(WM_MESSAGE * pMsg) {
000000  e92d4ff0          PUSH     {r4-r11,lr}
000004  ed2d8b0a          VPUSH    {d8-d12}
000008  4604              MOV      r4,r0
00000a  b083              SUB      sp,sp,#0xc
;;;182      WM_HWIN hItem;
;;;183      
;;;184      char buf[5];    
;;;185      
;;;186      float dis_load_c = (float)SET_Current_Laod/1000;
00000c  f8dfb404          LDR      r11,|L9.1044|
000010  4658              MOV      r0,r11
000012  f8db1010          LDR      r1,[r11,#0x10]  ; Run_Control
000016  ee001a10          VMOV     s0,r1
00001a  eeb80a40          VCVT.F32.U32 s0,s0
00001e  ed9fcafe          VLDR     s24,|L9.1048|
;;;187      float dis_output_v = (float)SET_Voltage/100;
000022  f8db1004          LDR      r1,[r11,#4]  ; Run_Control
000026  ee808a0c          VDIV.F32 s16,s0,s24            ;186
00002a  ee001a10          VMOV     s0,r1
00002e  eeb80a40          VCVT.F32.U32 s0,s0
000032  eddfcafa          VLDR     s25,|L9.1052|
;;;188      float dis_output_c = (float)SET_Current/1000;
000036  f8db1008          LDR      r1,[r11,#8]  ; Run_Control
00003a  ee809a2c          VDIV.F32 s18,s0,s25            ;187
00003e  ee001a10          VMOV     s0,r1
;;;189      float dis_c_cutoff_v = (float)cov1/100;
000042  49f7              LDR      r1,|L9.1056|
000044  eeb80a40          VCVT.F32.U32 s0,s0                 ;188
000048  880a              LDRH     r2,[r1,#0]  ; coff
00004a  eec09a0c          VDIV.F32 s19,s0,s24            ;188
00004e  ee002a10          VMOV     s0,r2
;;;190      float dis_c_cutoff_c = (float)coc1/1000;
000052  88c9              LDRH     r1,[r1,#6]  ; coff
000054  eeb80a40          VCVT.F32.U32 s0,s0                 ;189
000058  ee80aa2c          VDIV.F32 s20,s0,s25            ;189
00005c  ee001a10          VMOV     s0,r1
;;;191      float dis_dc_cutoff_v = (float)set_dc_cutoff_v/1000;
000060  6ec1              LDR      r1,[r0,#0x6c]  ; Run_Control
000062  eeb80a40          VCVT.F32.U32 s0,s0                 ;190
000066  eec0aa0c          VDIV.F32 s21,s0,s24            ;190
00006a  ee001a10          VMOV     s0,r1
;;;192      float dis_dc_cutoff_c = (float)set_dc_cutoff_c/100;
00006e  6f00              LDR      r0,[r0,#0x70]  ; Run_Control
000070  eeb80a40          VCVT.F32.U32 s0,s0                 ;191
000074  eec08a0c          VDIV.F32 s17,s0,s24            ;191
;;;193    
;;;194    
;;;195      // USER START (Optionally insert additional variables)
;;;196      // USER END
;;;197    
;;;198      switch (pMsg->MsgId) {
000078  6820              LDR      r0,[r4,#0]
;;;199    		
;;;200    	case WM_PAINT:
;;;201    
;;;202            GUI_SetColor(GUI_WHITE);//ʨ׃ۭҊҕɫ
;;;203            GUI_FillRect(0,25,480,26);//ۭһ͵ʵП
;;;204            GUI_SetColor(GUI_ORANGE);
;;;205            GUI_SetFont(&GUI_Fontsymbol);
;;;206            GUI_UC_SetEncodeUTF8();
;;;207            GUI_SetTextMode(GUI_TM_TRANS);//ʨ׃τѾģʽΪ֗ɫ͸ķ
;;;208            GUI_DispStringAt("Jinko", 5, 1);//SET
;;;209            GUI_SetColor(GUI_WHITE);
;;;210            GUI_SetFont(&GUI_FontHZ20S);
;;;211            GUI_UC_SetEncodeUTF8();
;;;212            GUI_SetTextMode(GUI_TM_TRANS);//ʨ׃τѾģʽΪ֗ɫ͸ķ
;;;213            GUI_DispStringAt("测量显示", 130, 3);//SET
;;;214            GUI_SetColor(GUI_WHITE);//ʨ׃ǰްɫΪїɫ
;;;215            GUI_SetFont(&GUI_Font24_1);
;;;216            
;;;217    
;;;218            GUI_SetFont(&GUI_FontEN40);
;;;219            GUI_SetColor(GUI_LIGHTGRAY);
00007a  f8df83a8          LDR      r8,|L9.1060|
00007e  280f              CMP      r0,#0xf               ;198
000080  d012              BEQ      |L9.168|
;;;220            GUI_DispStringAt("C:", 28, 190);
;;;221            GUI_SetColor(GUI_LIGHTGRAY);
;;;222            GUI_DispStringAt("m", 217, 196);
;;;223            GUI_DispStringAt("AH", 238, 187);
;;;224            
;;;225            GUI_SetColor(GUI_GREEN);
;;;226            GUI_SetFont(&GUI_Fontunit);
;;;227            GUI_DispStringAt("°",372, 2);
;;;228            GUI_SetFont(&GUI_Font24_1);
;;;229            GUI_DispStringAt("C",380, 2);
;;;230        
;;;231        
;;;232    	break;
;;;233    	case WM_TIMER://֨ʱģࠩлϢ
;;;234    	if(WM_GetTimerId(pMsg->Data.v) == ID_TimerTime4)
;;;235    	{
;;;236            if(mode_sw == mode_pow && cdc_sw == cdc_on){
;;;237                
;;;238                
;;;239                hItem = WM_GetDialogItem(pMsg->hWin, ID_TEXT_66);
;;;240                sprintf(buf,"%.2f",DISS_POW_Voltage);       
;;;241                TEXT_SetText(hItem,buf);
;;;242                
;;;243                hItem = WM_GetDialogItem(pMsg->hWin, ID_TEXT_67);
;;;244                sprintf(buf,"%.3f",DISS_POW_Current);
;;;245                TEXT_SetText(hItem,buf);
;;;246                
;;;247                hItem = WM_GetDialogItem(pMsg->hWin, ID_TEXT_77);
;;;248                TEXT_SetTextColor(hItem, GUI_GREEN);//设置字体颜色
;;;249                TEXT_SetFont(hItem,&GUI_Font24_1);//设定文本字体
;;;250                GUI_UC_SetEncodeUTF8();
;;;251                TEXT_SetText(hItem,"(");
;;;252                
;;;253                hItem = WM_GetDialogItem(pMsg->hWin, ID_TEXT_78);
;;;254                TEXT_SetTextColor(hItem, GUI_GREEN);//设置字体颜色
;;;255                TEXT_SetFont(hItem,&GUI_Font24_1);//设定文本字体
;;;256                GUI_UC_SetEncodeUTF8();
;;;257                TEXT_SetText(hItem,")");
;;;258                
;;;259                hItem = WM_GetDialogItem(pMsg->hWin, ID_TEXT_79);
;;;260                TEXT_SetTextColor(hItem, GUI_GREEN);//设置字体颜色
;;;261                sprintf(buf,"%2d",count);
;;;262                TEXT_SetFont(hItem,&GUI_Font24_1);//设定文本字体
;;;263                GUI_UC_SetEncodeUTF8();
;;;264                TEXT_SetText(hItem,buf);
;;;265                
;;;266                hItem = WM_GetDialogItem(pMsg->hWin, ID_TEXT_69);
;;;267                TEXT_SetTextColor(hItem, GUI_RED);//设置字体颜色
;;;268                
;;;269                hItem = WM_GetDialogItem(pMsg->hWin, ID_TEXT_70);
;;;270                TEXT_SetTextColor(hItem, GUI_WHITE);//设置字体颜色
;;;271                
;;;272                hItem = WM_GetDialogItem(pMsg->hWin, ID_TEXT_72);        
;;;273                TEXT_SetText(hItem,"");
;;;274    
;;;275                hItem = WM_GetDialogItem(pMsg->hWin, ID_TEXT_73);     
;;;276                TEXT_SetText(hItem,"");
;;;277                
;;;278                hItem = WM_GetDialogItem(pMsg->hWin, ID_TEXT_74);      
;;;279                TEXT_SetText(hItem,"");
;;;280                
;;;281                hItem = WM_GetDialogItem(pMsg->hWin, ID_TEXT_75);      
;;;282                TEXT_SetText(hItem,"");
;;;283                
;;;284                hItem = WM_GetDialogItem(pMsg->hWin, ID_TEXT_76);      
;;;285                TEXT_SetText(hItem,"");
;;;286                
;;;287                if(charge_step == 1)
;;;288                {
;;;289                    hItem = WM_GetDialogItem(pMsg->hWin, ID_TEXT_119);
;;;290                    TEXT_SetText(hItem,"步骤1");
;;;291                }else if(charge_step == 2){
;;;292                     hItem = WM_GetDialogItem(pMsg->hWin, ID_TEXT_119);
;;;293                    TEXT_SetText(hItem,"步骤2");
;;;294                }else if(charge_step == 3){
;;;295                     hItem = WM_GetDialogItem(pMsg->hWin, ID_TEXT_119);
;;;296                    TEXT_SetText(hItem,"步骤3");
;;;297                }
;;;298                
;;;299                if(status_flash == 0){
;;;300                    hItem = WM_GetDialogItem(pMsg->hWin, ID_TEXT_71);
;;;301                    TEXT_SetTextColor(hItem, GUI_RED);//设置字体颜色
;;;302                    TEXT_SetFont(hItem,&GUI_FontHZ16);//设定文本字体
;;;303                    GUI_UC_SetEncodeUTF8();
;;;304                    TEXT_SetText(hItem,"充电中");
;;;305                    status_flash = 1;
;;;306                }else{
;;;307                    hItem = WM_GetDialogItem(pMsg->hWin, ID_TEXT_71);
;;;308                    TEXT_SetText(hItem,"");
;;;309                    status_flash = 0;
;;;310                }
;;;311                if(opv2 == 0 && opv3 == 0 && opc2 == 0 && opc3 == 0)
;;;312                {
;;;313                    if(cov1 == 0 || coc1 == 0)
;;;314                    {
;;;315                        if(((DISS_POW_Voltage >= (float)cov1/100 && cov1 != 0) || DISS_POW_Current < (float)coc1/1000) && cutoff_flag == 0){//判断电流是否小于截止电流，并记录时间
;;;316                        cutoff_time = GUI_GetTime()/500;
;;;317                        cutoff_flag = 1;
;;;318                        }
;;;319                        if(((DISS_POW_Voltage >= (float)cov1/100 && cov1 != 0) || DISS_POW_Current < (float)coc1/1000) && (GUI_GetTime()/500 - cutoff_time) >= 10 )//若测量电流小于截止电流
;;;320                        {
;;;321                            if(mode_sw == mode_pow){
;;;322                                start_time = GUI_GetTime()/500;//记录开始时间
;;;323                            }
;;;324                            cutoff_flag = 0;
;;;325                            GPIO_ResetBits(GPIOC,GPIO_Pin_1);//关闭电源输出
;;;326                            GPIO_SetBits(GPIOC,GPIO_Pin_13);//关闭电源输出继电器                  
;;;327        //                     Mode_SW_CONT(0x02);//切换至负载模式
;;;328        //                     GPIO_ResetBits(GPIOC,GPIO_Pin_1);//开启负载
;;;329                            GPIO_ResetBits(GPIOC,GPIO_Pin_10);//CC
;;;330                             GPIO_ResetBits(GPIOA,GPIO_Pin_15);//电子负载On
;;;331                            mode_sw = mode_load;
;;;332                        }
;;;333                    }else{
;;;334                        if(((DISS_POW_Voltage >= (float)cov1/100 && cov1 != 0) && DISS_POW_Current < (float)coc1/1000) && cutoff_flag == 0){//判断电流是否小于截止电流，并记录时间
;;;335                        cutoff_time = GUI_GetTime()/500;
;;;336                        cutoff_flag = 1;
;;;337                        }
;;;338                        if(((DISS_POW_Voltage >= (float)cov1/100 && cov1 != 0) && DISS_POW_Current < (float)coc1/1000) && (GUI_GetTime()/500 - cutoff_time) >= 10 )//若测量电流小于截止电流
;;;339                        {
;;;340                            if(mode_sw == mode_pow){
;;;341                                start_time = GUI_GetTime()/500;//记录开始时间
;;;342                            }
;;;343                            cutoff_flag = 0;
;;;344                            GPIO_ResetBits(GPIOC,GPIO_Pin_1);//关闭电源输出
;;;345                            GPIO_SetBits(GPIOC,GPIO_Pin_13);//关闭电源输出继电器                   
;;;346        //                     Mode_SW_CONT(0x02);//切换至负载模式
;;;347        //                     GPIO_ResetBits(GPIOC,GPIO_Pin_1);//开启负载
;;;348                            GPIO_ResetBits(GPIOC,GPIO_Pin_10);//CC
;;;349                             GPIO_ResetBits(GPIOA,GPIO_Pin_15);//电子负载On
;;;350                            mode_sw = mode_load;
;;;351                        }
;;;352                    }
;;;353                    
;;;354                }else if(opv3 == 0 && opc3 == 0){
;;;355                    if(cov1 == 0 || coc1 == 0)
;;;356                    { 
;;;357                        if(((DISS_POW_Voltage >= (float)cov1/100 && cov1 != 0) || DISS_POW_Current < (float)coc1/1000) && cutoff_flag == 0 && charge_step == 1)
;;;358                        {//判断电流是否小于截止电流，并记录时间
;;;359                            SET_Voltage = opv2;
;;;360                            SET_Current = opc2;
;;;361                            charge_step = 2;
;;;362                        }
;;;363                    }else{
;;;364                        if(((DISS_POW_Voltage >= (float)cov1/100 && cov1 != 0) && DISS_POW_Current < (float)coc1/1000) && cutoff_flag == 0 && charge_step == 1)
;;;365                        {//判断电流是否小于截止电流，并记录时间
;;;366                            SET_Voltage = opv2;
;;;367                            SET_Current = opc2;
;;;368                            charge_step = 2;
;;;369                        }
;;;370                    }
;;;371                    
;;;372                    if(cov2 == 0 || coc2 == 0)
;;;373                    {
;;;374                        if(((DISS_POW_Voltage >= (float)cov2/100 && cov2 != 0) || DISS_POW_Current < (float)coc2/1000) && cutoff_flag == 0 && charge_step == 2){//判断电流是否小于截止电流，并记录时间
;;;375                        cutoff_time = GUI_GetTime()/500;
;;;376                        cutoff_flag = 1;
;;;377                        }
;;;378                        if(((DISS_POW_Voltage >= (float)cov2/100 && cov2 != 0) || DISS_POW_Current < (float)coc2/1000) && (GUI_GetTime()/500 - cutoff_time) >= 10 && charge_step == 2)//若测量电流小于截止电流
;;;379                        {
;;;380                            if(mode_sw == mode_pow){
;;;381                                start_time = GUI_GetTime()/500;//记录开始时间
;;;382                            }
;;;383                            cutoff_flag = 0;
;;;384                            GPIO_ResetBits(GPIOC,GPIO_Pin_1);//关闭电源输出
;;;385                            GPIO_SetBits(GPIOC,GPIO_Pin_13);//关闭电源输出继电器
;;;386        //                     Mode_SW_CONT(0x02);//切换至负载模式
;;;387        //                     GPIO_ResetBits(GPIOC,GPIO_Pin_1);//开启负载
;;;388                            GPIO_ResetBits(GPIOC,GPIO_Pin_10);//CC
;;;389                            GPIO_ResetBits(GPIOA,GPIO_Pin_15);//电子负载On
;;;390                            mode_sw = mode_load;
;;;391                        }
;;;392                    }else{
;;;393                        if(((DISS_POW_Voltage >= (float)cov2/100 && cov2 != 0) && DISS_POW_Current < (float)coc2/1000) && cutoff_flag == 0 && charge_step == 2){//判断电流是否小于截止电流，并记录时间
;;;394                        cutoff_time = GUI_GetTime()/500;
;;;395                        cutoff_flag = 1;
;;;396                        }
;;;397                        if(((DISS_POW_Voltage >= (float)cov2/100 && cov2 != 0) && DISS_POW_Current < (float)coc2/1000) && (GUI_GetTime()/500 - cutoff_time) >= 10 && charge_step == 2)//若测量电流小于截止电流
;;;398                        {
;;;399                            if(mode_sw == mode_pow){
;;;400                                start_time = GUI_GetTime()/500;//记录开始时间
;;;401                            }
;;;402                            cutoff_flag = 0;
;;;403                            GPIO_ResetBits(GPIOC,GPIO_Pin_1);//关闭电源输出
;;;404                            GPIO_SetBits(GPIOC,GPIO_Pin_13);//关闭电源输出继电器
;;;405        //                     Mode_SW_CONT(0x02);//切换至负载模式
;;;406        //                     GPIO_ResetBits(GPIOC,GPIO_Pin_1);//开启负载
;;;407                            GPIO_ResetBits(GPIOC,GPIO_Pin_12);//CC
;;;408                            GPIO_ResetBits(GPIOA,GPIO_Pin_15);//电子负载On
;;;409                            mode_sw = mode_load;
;;;410                        }
;;;411                    }
;;;412                    
;;;413                }else if((opv1 != 0 || opc1 != 0) && (opv2 != 0 || opc2 != 0) && (opv3 != 0 || opc3 != 0)){
;;;414                    if(cov1 == 0 || coc1 == 0)
;;;415                    { 
;;;416                        if(((DISS_POW_Voltage >= (float)cov1/100 && cov1 != 0) || DISS_POW_Current < (float)coc1/1000) && cutoff_flag == 0 && charge_step == 1)
;;;417                        {//判断电流是否小于截止电流，并记录时间
;;;418                            SET_Voltage = opv2;
;;;419                            SET_Current = opc2;
;;;420                            charge_step = 2;
;;;421                        }
;;;422                    }else{
;;;423                        if(((DISS_POW_Voltage >= (float)cov1/100 && cov1 != 0) && DISS_POW_Current < (float)coc1/1000) && cutoff_flag == 0 && charge_step == 1)
;;;424                        {//判断电流是否小于截止电流，并记录时间
;;;425                            SET_Voltage = opv2;
;;;426                            SET_Current = opc2;
;;;427                            charge_step = 2;
;;;428                        }
;;;429                    }
;;;430                    
;;;431                    if(cov2 == 0 || coc2 == 0)
;;;432                    {
;;;433                        if(((DISS_POW_Voltage > (float)cov2/100 && cov2 != 0) || DISS_POW_Current < (float)coc2/1000) && cutoff_flag == 0 && charge_step == 2)
;;;434                        {//判断电流是否小于截止电流，并记录时间
;;;435                            SET_Voltage = opv3;
;;;436                            SET_Current = opc3;
;;;437                            charge_step = 3;
;;;438                        }
;;;439                    }else{
;;;440                        if(((DISS_POW_Voltage > (float)cov2/100 && cov2 != 0) && DISS_POW_Current < (float)coc2/1000) && cutoff_flag == 0 && charge_step == 2)
;;;441                        {//判断电流是否小于截止电流，并记录时间
;;;442                            SET_Voltage = opv3;
;;;443                            SET_Current = opc3;
;;;444                            charge_step = 3;
;;;445                        }
;;;446                    }
;;;447                    
;;;448                    if(cov3 == 0 || coc3 == 0)
;;;449                    {
;;;450                        if(((DISS_POW_Voltage > (float)cov3/100 && cov3 != 0) || DISS_POW_Current < (float)coc3/1000) && cutoff_flag == 0 && charge_step == 3){//判断电流是否小于截止电流，并记录时间
;;;451                            cutoff_time = GUI_GetTime()/500;
;;;452                            cutoff_flag = 1;
;;;453                        }
;;;454                        if(((DISS_POW_Voltage > (float)cov3/100 && cov3 != 0) || DISS_POW_Current < (float)coc3/1000) && (GUI_GetTime()/500 - cutoff_time) >= 10 && charge_step == 3)//若测量电流小于截止电流
;;;455                        {
;;;456                            if(mode_sw == mode_pow){
;;;457                                start_time = GUI_GetTime()/500;//记录开始时间
;;;458                            }
;;;459                            cutoff_flag = 0;
;;;460                            GPIO_ResetBits(GPIOC,GPIO_Pin_1);//关闭电源输出
;;;461                            GPIO_SetBits(GPIOC,GPIO_Pin_13);//关闭电源输出继电器
;;;462        //                     Mode_SW_CONT(0x02);//切换至负载模式
;;;463        //                     GPIO_ResetBits(GPIOC,GPIO_Pin_1);//开启负载
;;;464                            GPIO_ResetBits(GPIOC,GPIO_Pin_10);//CC
;;;465                             GPIO_ResetBits(GPIOA,GPIO_Pin_15);//电子负载On
;;;466                            mode_sw = mode_load;
;;;467                        }
;;;468                    }else{
;;;469                        if(((DISS_POW_Voltage > (float)cov3/100 && cov3 != 0) && DISS_POW_Current < (float)coc3/1000) && cutoff_flag == 0 && charge_step == 3){//判断电流是否小于截止电流，并记录时间
;;;470                            cutoff_time = GUI_GetTime()/500;
;;;471                            cutoff_flag = 1;
;;;472                        }
;;;473                        if(((DISS_POW_Voltage > (float)cov3/100 && cov3 != 0) && DISS_POW_Current < (float)coc3/1000) && (GUI_GetTime()/500 - cutoff_time) >= 10 && charge_step == 3)//若测量电流小于截止电流
;;;474                        {
;;;475                            if(mode_sw == mode_pow){
;;;476                                start_time = GUI_GetTime()/500;//记录开始时间
;;;477                            }
;;;478                            cutoff_flag = 0;
;;;479                            GPIO_ResetBits(GPIOC,GPIO_Pin_1);//关闭电源输出
;;;480                            GPIO_SetBits(GPIOC,GPIO_Pin_13);//关闭电源输出继电器
;;;481        //                     Mode_SW_CONT(0x02);//切换至负载模式
;;;482        //                     GPIO_ResetBits(GPIOC,GPIO_Pin_1);//开启负载
;;;483                            GPIO_ResetBits(GPIOC,GPIO_Pin_10);//CC
;;;484                             GPIO_ResetBits(GPIOA,GPIO_Pin_15);//电子负载On
;;;485                            mode_sw = mode_load;
;;;486                        }
;;;487                    }
;;;488                }
;;;489                
;;;490    //             if(DISS_POW_Current < dis_c_cutoff_c && cutoff_flag == 0){//判断电流是否小于截止电流，并记录时间
;;;491    //                 cutoff_time = GUI_GetTime()/500;
;;;492    //                 cutoff_flag = 1;
;;;493    //             }
;;;494    //             if(((DISS_POW_Voltage >= dis_c_cutoff_v && dis_c_cutoff_v != 0) || DISS_POW_Current < dis_c_cutoff_c) && (GUI_GetTime()/500 - cutoff_time) >= 10 )//若测量电流小于截止电流
;;;495    //             {
;;;496    //                 if(mode_sw == mode_pow){
;;;497    //                     start_time = GUI_GetTime()/500;//记录开始时间
;;;498    //                 }
;;;499    //                 cutoff_flag = 0;
;;;500    //                 Mode_SW_CONT(0x02);//切换至负载模式
;;;501    //                 GPIO_ResetBits(GPIOC,GPIO_Pin_1);//开启负载
;;;502    //             }          
;;;503            }else if(mode_sw == mode_load && cdc_sw == cdc_on){
;;;504                charge_step = 1;
;;;505                hItem = WM_GetDialogItem(pMsg->hWin, ID_TEXT_119);
;;;506                TEXT_SetText(hItem,"");
;;;507                if(paused == 0){
;;;508                    second = (GUI_GetTime()/500-start_time)%60;//秒
;;;509                    minute = ((GUI_GetTime()/500-start_time)/60)%60;//分
;;;510                    hour   = (GUI_GetTime()/500-start_time)/3600;//时
;;;511                }else{
;;;512                    second = (GUI_GetTime()/500-restart_time + pause_time)%60;//秒 
;;;513                    minute = ((GUI_GetTime()/500-restart_time + pause_time)/60)%60;//分
;;;514                    hour = ((GUI_GetTime()/500-restart_time) + pause_time)/3600;//时
;;;515                }
;;;516                
;;;517                
;;;518                hItem = WM_GetDialogItem(pMsg->hWin, ID_TEXT_72);
;;;519                sprintf(buf,"%02d",hour);
;;;520                TEXT_SetTextColor(hItem, GUI_WHITE);//设置字体颜色
;;;521                TEXT_SetFont(hItem,&GUI_Font24_1);//设定文本字体
;;;522                GUI_UC_SetEncodeUTF8();        
;;;523                TEXT_SetText(hItem,buf);
;;;524    
;;;525                hItem = WM_GetDialogItem(pMsg->hWin, ID_TEXT_73);
;;;526                sprintf(buf,"%02d",minute);
;;;527                TEXT_SetTextColor(hItem, GUI_WHITE);//设置字体颜色
;;;528                TEXT_SetFont(hItem,&GUI_Font24_1);//设定文本字体
;;;529                GUI_UC_SetEncodeUTF8();        
;;;530                TEXT_SetText(hItem,buf);
;;;531                
;;;532                hItem = WM_GetDialogItem(pMsg->hWin, ID_TEXT_74);
;;;533                sprintf(buf,"%02d",second);
;;;534                TEXT_SetTextColor(hItem, GUI_WHITE);//设置字体颜色
;;;535                TEXT_SetFont(hItem,&GUI_Font24_1);//设定文本字体
;;;536                GUI_UC_SetEncodeUTF8();        
;;;537                TEXT_SetText(hItem,buf);
;;;538                
;;;539                hItem = WM_GetDialogItem(pMsg->hWin, ID_TEXT_75);
;;;540                TEXT_SetTextColor(hItem, GUI_WHITE);//设置字体颜色
;;;541                TEXT_SetFont(hItem,&GUI_Font24_1);//设定文本字体
;;;542                GUI_UC_SetEncodeUTF8();        
;;;543                TEXT_SetText(hItem,":");
;;;544                
;;;545                hItem = WM_GetDialogItem(pMsg->hWin, ID_TEXT_76);
;;;546                TEXT_SetTextColor(hItem, GUI_WHITE);//设置字体颜色
;;;547                TEXT_SetFont(hItem,&GUI_Font24_1);//设定文本字体
;;;548                GUI_UC_SetEncodeUTF8();        
;;;549                TEXT_SetText(hItem,":");
;;;550                
;;;551                
;;;552                
;;;553                
;;;554                hItem = WM_GetDialogItem(pMsg->hWin, ID_TEXT_66);
;;;555                sprintf(buf,"%.3f",DISS_Voltage);       
;;;556                TEXT_SetText(hItem,buf);
;;;557                
;;;558                hItem = WM_GetDialogItem(pMsg->hWin, ID_TEXT_67);
;;;559                sprintf(buf,"%.3f",DISS_Current);       
;;;560                TEXT_SetText(hItem,buf);
;;;561                
;;;562                battery_c = (int)(((float)(second + minute*60 + hour * 3600)/3600 * dis_load_c)*1000);
;;;563                hItem = WM_GetDialogItem(pMsg->hWin, ID_TEXT_68);
;;;564                sprintf(buf,"%05d",battery_c);
;;;565                TEXT_SetText(hItem,buf);
;;;566                
;;;567                hItem = WM_GetDialogItem(pMsg->hWin, ID_TEXT_69);
;;;568                TEXT_SetTextColor(hItem, GUI_WHITE);//设置字体颜色
;;;569                
;;;570                hItem = WM_GetDialogItem(pMsg->hWin, ID_TEXT_70);
;;;571                TEXT_SetTextColor(hItem, GUI_RED);//设置字体颜色
;;;572                
;;;573                if(status_flash == 0){
;;;574                    hItem = WM_GetDialogItem(pMsg->hWin, ID_TEXT_71);
;;;575                    TEXT_SetTextColor(hItem, GUI_RED);//设置字体颜色
;;;576                    TEXT_SetFont(hItem,&GUI_FontHZ16);//设定文本字体
;;;577                    GUI_UC_SetEncodeUTF8();        
;;;578                    TEXT_SetText(hItem,"放电中");
;;;579                    status_flash = 1;
;;;580                }else{
;;;581                    hItem = WM_GetDialogItem(pMsg->hWin, ID_TEXT_71);
;;;582                    TEXT_SetText(hItem,"");
;;;583                    status_flash = 0;
;;;584                }
;;;585                if(pause_flag == 1){
;;;586    //                GPIO_SetBits(GPIOC,GPIO_Pin_1);//关闭负载
;;;587                    GPIO_SetBits(GPIOA,GPIO_Pin_15);//电子负载OFF
;;;588                    cdc_sw = cdc_off;
;;;589                    paused = 1;
;;;590                    
;;;591                    pause_time = second + minute*60 + hour*3600;
;;;592                }
;;;593                
;;;594                if(DISS_Voltage < dis_dc_cutoff_v && cutoff_flag == 0)
;;;595                {
;;;596                    cutoff_time = GUI_GetTime()/500;
;;;597                    cutoff_flag = 1;
;;;598                }
;;;599                
;;;600                if(DISS_Voltage < dis_dc_cutoff_v && (GUI_GetTime()/500 - cutoff_time) >= 10)//若测量电压小于截止电压
;;;601                {
;;;602                    if(mode_sw == mode_load){
;;;603                        end_time = GUI_GetTime()/500;//记录结束时间
;;;604                        count++;
;;;605                    }
;;;606                            
;;;607    //                GPIO_SetBits(GPIOC,GPIO_Pin_1);//关闭负载
;;;608                    GPIO_SetBits(GPIOA,GPIO_Pin_15);//电子负载OFF
;;;609                    if(count > set_loop_count){
;;;610                        cdc_sw = cdc_off;//关闭充放电模式
;;;611                        battery_c = (c_sum + (int)(((float)(end_time - start_time)/3600 * dis_load_c)*1000))/set_loop_count;                    
;;;612                        count = 1;
;;;613                        
;;;614                        hItem = WM_GetDialogItem(pMsg->hWin, ID_TEXT_68);
;;;615                        sprintf(buf,"%05d",battery_c);
;;;616                        TEXT_SetText(hItem,buf);
;;;617                        
;;;618                        hItem = WM_GetDialogItem(pMsg->hWin, ID_TEXT_71);
;;;619                        TEXT_SetText(hItem,"");
;;;620                        
;;;621                        hItem = WM_GetDialogItem(pMsg->hWin, ID_TEXT_72);       
;;;622                        TEXT_SetText(hItem,"");
;;;623    
;;;624                        hItem = WM_GetDialogItem(pMsg->hWin, ID_TEXT_73);     
;;;625                        TEXT_SetText(hItem,"");
;;;626                        
;;;627                        hItem = WM_GetDialogItem(pMsg->hWin, ID_TEXT_74);      
;;;628                        TEXT_SetText(hItem,"");
;;;629                        
;;;630                        hItem = WM_GetDialogItem(pMsg->hWin, ID_TEXT_75);       
;;;631                        TEXT_SetText(hItem,"");
;;;632                        
;;;633                        hItem = WM_GetDialogItem(pMsg->hWin, ID_TEXT_76);       
;;;634                        TEXT_SetText(hItem,"");
;;;635                        
;;;636                        hItem = WM_GetDialogItem(pMsg->hWin, ID_TEXT_77);
;;;637                        TEXT_SetText(hItem,"");
;;;638                            
;;;639                        hItem = WM_GetDialogItem(pMsg->hWin, ID_TEXT_78);
;;;640                        TEXT_SetText(hItem,"");
;;;641                        
;;;642                        hItem = WM_GetDialogItem(pMsg->hWin, ID_TEXT_79);
;;;643                        TEXT_SetText(hItem,"");
;;;644                        
;;;645                    }else{
;;;646                        c_sum = c_sum + (int)(((float)(end_time - start_time)/3600 * dis_load_c)*1000);
;;;647    //                     Mode_SW_CONT(0x03);//切换至电源模式
;;;648                        GPIO_SetBits(GPIOA,GPIO_Pin_15);//电子负载OFF
;;;649                         hItem = WM_GetDialogItem(pMsg->hWin, ID_TEXT_68);
;;;650                         sprintf(buf,"%05d",battery_c);
;;;651                         TEXT_SetText(hItem,buf);
;;;652                       GPIO_ResetBits(GPIOC,GPIO_Pin_13);//打开电源输出继电器
;;;653                        GPIO_SetBits(GPIOC,GPIO_Pin_1);//打开电源输出
;;;654    //                    GPIO_SetBits(GPIOB,GPIO_Pin_13);//打开稳压电源输出
;;;655                        mode_sw = mode_pow;
;;;656                        cutoff_flag = 0;                           
;;;657                    }
;;;658                }
;;;659            }else if(pause_flag == 1 && battery_c != 0){
;;;660                hItem = WM_GetDialogItem(pMsg->hWin, ID_TEXT_66);
;;;661                sprintf(buf,"%.2f",0.00);       
000082  ed9fbbe9          VLDR     d11,|L9.1064|
000086  4eea              LDR      r6,|L9.1072|
000088  f44f75fa          MOV      r5,#0x1f4             ;316
00008c  281d              CMP      r0,#0x1d              ;198
00008e  d06e              BEQ      |L9.366|
000090  f5a07080          SUB      r0,r0,#0x100          ;198
000094  3813              SUBS     r0,r0,#0x13           ;198
000096  d06c              BEQ      |L9.370|
;;;662                TEXT_SetText(hItem,buf);
;;;663                    
;;;664                hItem = WM_GetDialogItem(pMsg->hWin, ID_TEXT_67);
;;;665                sprintf(buf,"%.3f",0.00);       
;;;666                TEXT_SetText(hItem,buf);
;;;667                
;;;668                hItem = WM_GetDialogItem(pMsg->hWin, ID_TEXT_69);
;;;669                TEXT_SetTextColor(hItem, GUI_WHITE);//设置字体颜色
;;;670                
;;;671                hItem = WM_GetDialogItem(pMsg->hWin, ID_TEXT_70);
;;;672                TEXT_SetTextColor(hItem, GUI_WHITE);//设置字体颜色   
;;;673                    
;;;674                hItem = WM_GetDialogItem(pMsg->hWin, ID_TEXT_71);
;;;675                TEXT_SetText(hItem,"");
;;;676                
;;;677            }else if(cdc_sw == cdc_off){
;;;678                hItem = WM_GetDialogItem(pMsg->hWin, ID_TEXT_66);
;;;679                sprintf(buf,"%.2f",0.00);       
;;;680                TEXT_SetText(hItem,buf);
;;;681                    
;;;682                hItem = WM_GetDialogItem(pMsg->hWin, ID_TEXT_67);
;;;683                sprintf(buf,"%.3f",0.000);       
;;;684                TEXT_SetText(hItem,buf);
;;;685                
;;;686                hItem = WM_GetDialogItem(pMsg->hWin, ID_TEXT_119);
;;;687                TEXT_SetText(hItem,"");
;;;688                
;;;689                hItem = WM_GetDialogItem(pMsg->hWin, ID_TEXT_69);
;;;690                TEXT_SetTextColor(hItem, GUI_WHITE);//设置字体颜色
;;;691                
;;;692                hItem = WM_GetDialogItem(pMsg->hWin, ID_TEXT_70);
;;;693                TEXT_SetTextColor(hItem, GUI_WHITE);//设置字体颜色
;;;694                
;;;695                hItem = WM_GetDialogItem(pMsg->hWin, ID_TEXT_71);
;;;696                TEXT_SetText(hItem,"");
;;;697            }   
;;;698            hItem = WM_GetDialogItem(pMsg->hWin, ID_TEXT_127);       
;;;699            sprintf(buf,"%.1f",temp);
;;;700            TEXT_SetText(hItem,buf);
;;;701            
;;;702    		WM_RestartTimer(pMsg->Data.v, 497);//شλ֨ʱǷ˽ֵԽճˢтʱݤԽ׌
;;;703    	}
;;;704    	break;
;;;705        
;;;706    		
;;;707      case WM_INIT_DIALOG:
;;;708        //
;;;709        // Initialization of 'R'
;;;710    	
;;;711        //
;;;712            hItem = pMsg->hWin;
;;;713            WINDOW_SetBkColor(hItem, GUI_BLACK);
;;;714    		WM_CreateTimer(hItem,ID_TimerTime4,500,0);//ԴݨѾ԰ࠚ֨ʱǷ
;;;715    
;;;716    
;;;717    		hItem = WM_GetDialogItem(pMsg->hWin, ID_BUTTON_25);
;;;718    //		BUTTON_SetTextColor(hItem,0,GUI_BLACK);//ʨ׃ؖͥҕɫΪۚɫ
;;;719    		BUTTON_SetFont      (hItem,    &GUI_FontHZ16);//ʨ֨дťτѾؖͥ
;;;720    		GUI_UC_SetEncodeUTF8();
;;;721    		BUTTON_SetText(hItem,"内阻测试");
;;;722    	
;;;723    		hItem = WM_GetDialogItem(pMsg->hWin, ID_BUTTON_26);
;;;724    //		BUTTON_SetTextColor(hItem,0,GUI_BLACK);//ʨ׃ؖͥҕɫΪۚɫ
;;;725    		BUTTON_SetFont      (hItem,    &GUI_FontHZ16);//ʨ֨дťτѾؖͥ
;;;726    		GUI_UC_SetEncodeUTF8();
;;;727    		BUTTON_SetText(hItem,"程控负载");
;;;728    		
;;;729    		hItem = WM_GetDialogItem(pMsg->hWin, ID_BUTTON_27);
;;;730    //		BUTTON_SetTextColor(hItem,0,GUI_BLACK);//ʨ׃ؖͥҕɫΪۚɫ
;;;731    		BUTTON_SetFont      (hItem,    &GUI_FontHZ16);//ʨ֨дťτѾؖͥ
;;;732    		GUI_UC_SetEncodeUTF8();
;;;733    		BUTTON_SetText(hItem,"程控电源");
;;;734    		
;;;735    		hItem = WM_GetDialogItem(pMsg->hWin, ID_BUTTON_28);
;;;736            BUTTON_SetPressed(hItem,1);
;;;737    //		BUTTON_SetTextColor(hItem,0,GUI_BLACK);//ʨ׃ؖͥҕɫΪۚɫ
;;;738    		BUTTON_SetFont      (hItem,    &GUI_FontHZ16);//ʨ֨дťτѾؖͥ
;;;739    		GUI_UC_SetEncodeUTF8();
;;;740    		BUTTON_SetText(hItem,"充放电");
;;;741    		
;;;742    		hItem = WM_GetDialogItem(pMsg->hWin, ID_BUTTON_29);
;;;743    //		BUTTON_SetTextColor(hItem,0,GUI_BLACK);//ʨ׃ؖͥҕɫΪۚɫ
;;;744    		BUTTON_SetFont      (hItem,&GUI_FontHZ16);//ʨ֨дťτѾؖͥ
;;;745    		GUI_UC_SetEncodeUTF8();
;;;746    		BUTTON_SetText(hItem,"曲线");
;;;747            
;;;748            hItem = WM_GetDialogItem(pMsg->hWin, ID_TEXT_17);
;;;749    		TEXT_SetTextColor(hItem, GUI_LIGHTGRAY);//设置字体颜色
;;;750            TEXT_SetFont(hItem,&GUI_FontEN40);//设定文本字体
;;;751    		GUI_UC_SetEncodeUTF8();
;;;752    		TEXT_SetText(hItem,"V:");
;;;753    		
;;;754    		hItem = WM_GetDialogItem(pMsg->hWin, ID_TEXT_18);
;;;755    		TEXT_SetTextColor(hItem, GUI_LIGHTGRAY);//设置字体颜色
;;;756            TEXT_SetFont(hItem,&GUI_FontEN40);//设定文本字体
;;;757    		GUI_UC_SetEncodeUTF8();
;;;758    		TEXT_SetText(hItem,"I:");
;;;759            
;;;760            hItem = WM_GetDialogItem(pMsg->hWin, ID_TEXT_19);
;;;761    		TEXT_SetTextColor(hItem, GUI_LIGHTGRAY);//设置字体颜色
;;;762            TEXT_SetFont(hItem,&GUI_FontEN40);//设定文本字体
;;;763    		GUI_UC_SetEncodeUTF8();
;;;764    		TEXT_SetText(hItem,"V");
;;;765    		
;;;766    		hItem = WM_GetDialogItem(pMsg->hWin, ID_TEXT_20);
;;;767    		TEXT_SetTextColor(hItem, GUI_LIGHTGRAY);//设置字体颜色
;;;768            TEXT_SetFont(hItem,&GUI_FontEN40);//设定文本字体
;;;769    		GUI_UC_SetEncodeUTF8();
;;;770    		TEXT_SetText(hItem,"A");
;;;771            
;;;772            hItem = WM_GetDialogItem(pMsg->hWin, ID_TEXT_50);
;;;773    		TEXT_SetTextColor(hItem, GUI_BLACK);//设置字体颜色
;;;774            TEXT_SetBkColor(hItem,0x00BFFFFF);
;;;775            TEXT_SetFont(hItem,&GUI_Fontset_font);//设定文本字体
;;;776    		GUI_UC_SetEncodeUTF8(); 
;;;777    		TEXT_SetText(hItem,"输出电压1");        
;;;778            
;;;779            hItem = WM_GetDialogItem(pMsg->hWin, ID_TEXT_51);
;;;780    		TEXT_SetTextColor(hItem, GUI_WHITE);//设置字体颜色
;;;781            TEXT_SetFont(hItem,&GUI_Fontset_font);//设定文本字体
;;;782    		GUI_UC_SetEncodeUTF8();
;;;783    		TEXT_SetText(hItem,"限制电流1");
;;;784            
;;;785            hItem = WM_GetDialogItem(pMsg->hWin, ID_TEXT_58);
;;;786    		TEXT_SetTextColor(hItem, GUI_WHITE);//设置字体颜色
;;;787            TEXT_SetFont(hItem,&GUI_Fontset_font);//设定文本字体
;;;788    		GUI_UC_SetEncodeUTF8();
;;;789    		TEXT_SetText(hItem,"截止电压1");
;;;790            
;;;791            hItem = WM_GetDialogItem(pMsg->hWin, ID_TEXT_59);
;;;792    		TEXT_SetTextColor(hItem, GUI_WHITE);//设置字体颜色
;;;793            TEXT_SetFont(hItem,&GUI_Fontset_font);//设定文本字体
;;;794    		GUI_UC_SetEncodeUTF8();
;;;795    		TEXT_SetText(hItem,"截止电流1");
;;;796            
;;;797            hItem = WM_GetDialogItem(pMsg->hWin, ID_TEXT_52);
;;;798    		TEXT_SetTextColor(hItem, GUI_WHITE);//设置字体颜色
;;;799            TEXT_SetFont(hItem,&GUI_Fontset_font);//设定文本字体
;;;800    		GUI_UC_SetEncodeUTF8();
;;;801    		TEXT_SetText(hItem,"负载电流");
;;;802    
;;;803            hItem = WM_GetDialogItem(pMsg->hWin, ID_TEXT_60);
;;;804    		TEXT_SetTextColor(hItem, GUI_WHITE);//设置字体颜色
;;;805            TEXT_SetFont(hItem,&GUI_Fontset_font);//设定文本字体
;;;806    		GUI_UC_SetEncodeUTF8();
;;;807    		TEXT_SetText(hItem,"截止电压");
;;;808            
;;;809    //         hItem = WM_GetDialogItem(pMsg->hWin, ID_TEXT_61);
;;;810    // 		TEXT_SetTextColor(hItem, GUI_WHITE);//设置字体颜色
;;;811    //         TEXT_SetFont(hItem,&GUI_Fontset_font);//设定文本字体
;;;812    // 		GUI_UC_SetEncodeUTF8();
;;;813    // 		TEXT_SetText(hItem,"截止电流");
;;;814            
;;;815            hItem = WM_GetDialogItem(pMsg->hWin, ID_TEXT_53);
;;;816    		TEXT_SetTextColor(hItem, GUI_WHITE);//设置字体颜色
;;;817            TEXT_SetFont(hItem,&GUI_Fontset_font);//设定文本字体
;;;818    		GUI_UC_SetEncodeUTF8();
;;;819    		TEXT_SetText(hItem,"循环次数");
;;;820            
;;;821            hItem = WM_GetDialogItem(pMsg->hWin, ID_TEXT_54);
;;;822            sprintf(buf,"%.2f",dis_output_v);
;;;823    		TEXT_SetTextColor(hItem, GUI_WHITE);//设置字体颜色
;;;824            TEXT_SetFont(hItem,&GUI_Font24_1);//设定文本字体
;;;825    		GUI_UC_SetEncodeUTF8();        
;;;826    		TEXT_SetText(hItem,buf);
;;;827            
;;;828            hItem = WM_GetDialogItem(pMsg->hWin, ID_TEXT_55);
;;;829            sprintf(buf,"%.3f",dis_output_c);
;;;830    		TEXT_SetTextColor(hItem, GUI_WHITE);//设置字体颜色
;;;831            TEXT_SetFont(hItem,&GUI_Font24_1);//设定文本字体
;;;832    		GUI_UC_SetEncodeUTF8();        
;;;833    		TEXT_SetText(hItem,buf);
;;;834            
;;;835            hItem = WM_GetDialogItem(pMsg->hWin, ID_TEXT_56);
;;;836            sprintf(buf,"%.3f",dis_load_c);
;;;837    		TEXT_SetTextColor(hItem, GUI_WHITE);//设置字体颜色
;;;838            TEXT_SetFont(hItem,&GUI_Font24_1);//设定文本字体
;;;839    		GUI_UC_SetEncodeUTF8();        
;;;840    		TEXT_SetText(hItem,buf);
;;;841            
;;;842            hItem = WM_GetDialogItem(pMsg->hWin, ID_TEXT_57);
;;;843            sprintf(buf,"%3d",set_loop_count);
;;;844            TEXT_SetTextColor(hItem, GUI_WHITE);//设置字体颜色
;;;845            TEXT_SetFont(hItem,&GUI_Font24_1);//设定文本字体
;;;846            GUI_UC_SetEncodeUTF8();        
;;;847            TEXT_SetText(hItem,buf);            
;;;848    
;;;849    
;;;850            
;;;851            hItem = WM_GetDialogItem(pMsg->hWin, ID_TEXT_62);
;;;852            sprintf(buf,"%.2f",dis_c_cutoff_v);
;;;853    		TEXT_SetTextColor(hItem, GUI_WHITE);//设置字体颜色
;;;854            TEXT_SetFont(hItem,&GUI_Font24_1);//设定文本字体
;;;855    		GUI_UC_SetEncodeUTF8();        
;;;856    		TEXT_SetText(hItem,buf);
;;;857            
;;;858            hItem = WM_GetDialogItem(pMsg->hWin, ID_TEXT_63);
;;;859            sprintf(buf,"%.3f",dis_c_cutoff_c);
;;;860    		TEXT_SetTextColor(hItem, GUI_WHITE);//设置字体颜色
;;;861            TEXT_SetFont(hItem,&GUI_Font24_1);//设定文本字体
;;;862    		GUI_UC_SetEncodeUTF8();        
;;;863    		TEXT_SetText(hItem,buf);
;;;864            
;;;865            hItem = WM_GetDialogItem(pMsg->hWin, ID_TEXT_64);
;;;866            sprintf(buf,"%.3f",dis_dc_cutoff_v);
;;;867    		TEXT_SetTextColor(hItem, GUI_WHITE);//设置字体颜色
;;;868            TEXT_SetFont(hItem,&GUI_Font24_1);//设定文本字体
;;;869    		GUI_UC_SetEncodeUTF8();        
;;;870    		TEXT_SetText(hItem,buf);
;;;871            
;;;872    //         hItem = WM_GetDialogItem(pMsg->hWin, ID_TEXT_65);
;;;873    //         sprintf(dc_cutoff_c,"%.2f",dis_dc_cutoff_c);
;;;874    // 		TEXT_SetTextColor(hItem, GUI_WHITE);//设置字体颜色
;;;875    //         TEXT_SetFont(hItem,&GUI_Font24_1);//设定文本字体
;;;876    // 		GUI_UC_SetEncodeUTF8();        
;;;877    // 		TEXT_SetText(hItem,dc_cutoff_c);
;;;878            
;;;879            hItem = WM_GetDialogItem(pMsg->hWin, ID_TEXT_66);
;;;880            sprintf(buf,"%.2f",0.00);
;;;881            TEXT_SetTextColor(hItem, GUI_GREEN);//设置字体颜色
;;;882            TEXT_SetFont(hItem,&GUI_FontD24x32);//设定文本字体
;;;883            GUI_UC_SetEncodeUTF8();        
;;;884            TEXT_SetText(hItem,buf);
;;;885                
;;;886            hItem = WM_GetDialogItem(pMsg->hWin, ID_TEXT_67);
;;;887            sprintf(buf,"%.3f",0.000);
;;;888            TEXT_SetTextColor(hItem, GUI_GREEN);//设置字体颜色
;;;889            TEXT_SetFont(hItem,&GUI_FontD24x32);//设定文本字体
;;;890            GUI_UC_SetEncodeUTF8();        
;;;891            TEXT_SetText(hItem,buf);    
;;;892                
;;;893            hItem = WM_GetDialogItem(pMsg->hWin, ID_TEXT_68);
;;;894            sprintf(buf,"%05d",0);
;;;895            TEXT_SetTextColor(hItem, GUI_GREEN);//设置字体颜色
;;;896            TEXT_SetFont(hItem,&GUI_FontD24x32);//设定文本字体
;;;897            GUI_UC_SetEncodeUTF8();        
;;;898            TEXT_SetText(hItem,buf);
;;;899            
;;;900            hItem = WM_GetDialogItem(pMsg->hWin, ID_TEXT_69);
;;;901            TEXT_SetTextColor(hItem, GUI_WHITE);//设置字体颜色
;;;902            TEXT_SetFont(hItem,&GUI_FontHZ16);//设定文本字体
;;;903            GUI_UC_SetEncodeUTF8();        
;;;904            TEXT_SetText(hItem,"充电");
;;;905            
;;;906            hItem = WM_GetDialogItem(pMsg->hWin, ID_TEXT_77);
;;;907            TEXT_SetTextColor(hItem, GUI_GREEN);//设置字体颜色
;;;908            TEXT_SetFont(hItem,&GUI_Font24_1);//设定文本字体
;;;909            GUI_UC_SetEncodeUTF8();
;;;910            TEXT_SetText(hItem,"");
;;;911                
;;;912            hItem = WM_GetDialogItem(pMsg->hWin, ID_TEXT_78);
;;;913            TEXT_SetTextColor(hItem, GUI_GREEN);//设置字体颜色
;;;914            TEXT_SetFont(hItem,&GUI_Font24_1);//设定文本字体
;;;915            GUI_UC_SetEncodeUTF8();
;;;916            TEXT_SetText(hItem,"");
;;;917                
;;;918            hItem = WM_GetDialogItem(pMsg->hWin, ID_TEXT_79);
;;;919            TEXT_SetTextColor(hItem, GUI_GREEN);//设置字体颜色
;;;920            TEXT_SetFont(hItem,&GUI_Font24_1);//设定文本字体
;;;921            GUI_UC_SetEncodeUTF8();
;;;922            TEXT_SetText(hItem,"");
;;;923            
;;;924            hItem = WM_GetDialogItem(pMsg->hWin, ID_TEXT_119);
;;;925            TEXT_SetTextColor(hItem, GUI_RED);//设置字体颜色
;;;926            TEXT_SetFont(hItem,&GUI_Fontset_font);//设定文本字体
;;;927            GUI_UC_SetEncodeUTF8();        
;;;928            TEXT_SetText(hItem,"");
;;;929            
;;;930            hItem = WM_GetDialogItem(pMsg->hWin, ID_TEXT_70);
;;;931            TEXT_SetTextColor(hItem, GUI_WHITE);//设置字体颜色
;;;932            TEXT_SetFont(hItem,&GUI_FontHZ16);//设定文本字体
;;;933            GUI_UC_SetEncodeUTF8();        
;;;934            TEXT_SetText(hItem,"放电");
;;;935            
;;;936            hItem = WM_GetDialogItem(pMsg->hWin, ID_TEXT_127);
;;;937            TEXT_SetTextColor(hItem, GUI_GREEN);//ʨ׃ؖͥҕɫ
;;;938            TEXT_SetFont(hItem,&GUI_Font24_1);//ʨ֨τѾؖͥ       
;;;939            sprintf(buf,"%.1f",temp);
;;;940            TEXT_SetText(hItem,buf);
;;;941            
;;;942            
;;;943        // USER START (Optionally insert additional code for further widget initialization)
;;;944        // USER END
;;;945            break;
;;;946      // USER START (Optionally insert additional message handling)
;;;947      // USER END
;;;948        default:
;;;949            WM_DefaultProc(pMsg);
000098  4620              MOV      r0,r4
00009a  f7fffffe          BL       WM_DefaultProc
                  |L9.158|
;;;950            break;
;;;951      }
;;;952    }
00009e  b003              ADD      sp,sp,#0xc
0000a0  ecbd8b0a          VPOP     {d8-d12}
0000a4  e8bd8ff0          POP      {r4-r11,pc}
                  |L9.168|
0000a8  f06f447f          MVN      r4,#0xff000000        ;202
0000ac  4620              MOV      r0,r4                 ;202
0000ae  f7fffffe          BL       GUI_SetColor
0000b2  231a              MOVS     r3,#0x1a              ;203
0000b4  f44f72f0          MOV      r2,#0x1e0             ;203
0000b8  2119              MOVS     r1,#0x19              ;203
0000ba  2000              MOVS     r0,#0                 ;203
0000bc  f7fffffe          BL       GUI_FillRect
0000c0  f24a50ff          MOV      r0,#0xa5ff            ;204
0000c4  f7fffffe          BL       GUI_SetColor
0000c8  48da              LDR      r0,|L9.1076|
0000ca  f7fffffe          BL       GUI_SetFont
0000ce  f7fffffe          BL       GUI_UC_SetEncodeUTF8
0000d2  2002              MOVS     r0,#2                 ;207
0000d4  f7fffffe          BL       GUI_SetTextMode
0000d8  2201              MOVS     r2,#1                 ;208
0000da  2105              MOVS     r1,#5                 ;208
0000dc  a0d6              ADR      r0,|L9.1080|
0000de  f7fffffe          BL       GUI_DispStringAt
0000e2  4620              MOV      r0,r4                 ;209
0000e4  f7fffffe          BL       GUI_SetColor
0000e8  48d5              LDR      r0,|L9.1088|
0000ea  f7fffffe          BL       GUI_SetFont
0000ee  f7fffffe          BL       GUI_UC_SetEncodeUTF8
0000f2  2002              MOVS     r0,#2                 ;212
0000f4  f7fffffe          BL       GUI_SetTextMode
0000f8  2203              MOVS     r2,#3                 ;213
0000fa  2182              MOVS     r1,#0x82              ;213
0000fc  a0d1              ADR      r0,|L9.1092|
0000fe  f7fffffe          BL       GUI_DispStringAt
000102  4620              MOV      r0,r4                 ;214
000104  f7fffffe          BL       GUI_SetColor
000108  48d2              LDR      r0,|L9.1108|
00010a  f7fffffe          BL       GUI_SetFont
00010e  48d2              LDR      r0,|L9.1112|
000110  f7fffffe          BL       GUI_SetFont
000114  4644              MOV      r4,r8                 ;219
000116  4640              MOV      r0,r8                 ;219
000118  f7fffffe          BL       GUI_SetColor
00011c  22be              MOVS     r2,#0xbe              ;220
00011e  211c              MOVS     r1,#0x1c              ;220
000120  a0ce              ADR      r0,|L9.1116|
000122  f7fffffe          BL       GUI_DispStringAt
000126  4620              MOV      r0,r4                 ;221
000128  f7fffffe          BL       GUI_SetColor
00012c  22c4              MOVS     r2,#0xc4              ;222
00012e  21d9              MOVS     r1,#0xd9              ;222
000130  a0cb              ADR      r0,|L9.1120|
000132  f7fffffe          BL       GUI_DispStringAt
000136  22bb              MOVS     r2,#0xbb              ;223
000138  21ee              MOVS     r1,#0xee              ;223
00013a  a0ca              ADR      r0,|L9.1124|
00013c  f7fffffe          BL       GUI_DispStringAt
000140  f44f407f          MOV      r0,#0xff00            ;225
000144  f7fffffe          BL       GUI_SetColor
000148  48c7              LDR      r0,|L9.1128|
00014a  f7fffffe          BL       GUI_SetFont
00014e  2202              MOVS     r2,#2                 ;227
000150  f44f71ba          MOV      r1,#0x174             ;227
000154  a0c5              ADR      r0,|L9.1132|
000156  f7fffffe          BL       GUI_DispStringAt
00015a  48be              LDR      r0,|L9.1108|
00015c  f7fffffe          BL       GUI_SetFont
000160  2202              MOVS     r2,#2                 ;229
000162  f44f71be          MOV      r1,#0x17c             ;229
000166  a0c2              ADR      r0,|L9.1136|
000168  f7fffffe          BL       GUI_DispStringAt
00016c  e797              B        |L9.158|
                  |L9.366|
00016e  e3e6              B        |L9.2366|
000170  e7ff              B        |L9.370|
                  |L9.370|
000172  68e0              LDR      r0,[r4,#0xc]          ;234
000174  f7fffffe          BL       WM_GetTimerId
000178  2805              CMP      r0,#5                 ;234
00017a  d190              BNE      |L9.158|
00017c  48bd              LDR      r0,|L9.1140|
00017e  7800              LDRB     r0,[r0,#0]            ;236  ; mode_sw
000180  f04f0a00          MOV      r10,#0                ;203
000184  2803              CMP      r0,#3                 ;236
000186  d102              BNE      |L9.398|
000188  7970              LDRB     r0,[r6,#5]            ;236  ; cdc_sw
00018a  2801              CMP      r0,#1                 ;236
00018c  d004              BEQ      |L9.408|
                  |L9.398|
00018e  48b9              LDR      r0,|L9.1140|
000190  7800              LDRB     r0,[r0,#0]            ;503  ; mode_sw
000192  2802              CMP      r0,#2                 ;503
000194  d07d              BEQ      |L9.658|
000196  e3fb              B        |L9.2448|
                  |L9.408|
000198  f640017f          MOV      r1,#0x87f             ;239
00019c  6860              LDR      r0,[r4,#4]            ;239
00019e  f7fffffe          BL       WM_GetDialogItem
0001a2  f8df92d4          LDR      r9,|L9.1144|
0001a6  4607              MOV      r7,r0                 ;239
0001a8  f8d90000          LDR      r0,[r9,#0]            ;240  ; DISS_POW_Voltage
0001ac  f7fffffe          BL       __aeabi_f2d
0001b0  ec410b10          VMOV     d0,r0,r1              ;240
0001b4  a1b1              ADR      r1,|L9.1148|
0001b6  ec532b10          VMOV     r2,r3,d0              ;240
0001ba  4668              MOV      r0,sp                 ;240
0001bc  f7fffffe          BL       __2sprintf
0001c0  4669              MOV      r1,sp                 ;241
0001c2  4638              MOV      r0,r7                 ;241
0001c4  f7fffffe          BL       TEXT_SetText
0001c8  f44f6108          MOV      r1,#0x880             ;243
0001cc  6860              LDR      r0,[r4,#4]            ;243
0001ce  f7fffffe          BL       WM_GetDialogItem
0001d2  4fac              LDR      r7,|L9.1156|
0001d4  4680              MOV      r8,r0                 ;243
0001d6  6838              LDR      r0,[r7,#0]            ;244  ; DISS_POW_Current
0001d8  f7fffffe          BL       __aeabi_f2d
0001dc  ec410b10          VMOV     d0,r0,r1              ;244
0001e0  a1a9              ADR      r1,|L9.1160|
0001e2  ec532b10          VMOV     r2,r3,d0              ;244
0001e6  4668              MOV      r0,sp                 ;244
0001e8  f7fffffe          BL       __2sprintf
0001ec  4669              MOV      r1,sp                 ;245
0001ee  4640              MOV      r0,r8                 ;245
0001f0  f7fffffe          BL       TEXT_SetText
0001f4  f640018a          MOV      r1,#0x88a             ;247
0001f8  6860              LDR      r0,[r4,#4]            ;247
0001fa  f7fffffe          BL       WM_GetDialogItem
0001fe  4680              MOV      r8,r0                 ;247
000200  f44f417f          MOV      r1,#0xff00            ;248
000204  f7fffffe          BL       TEXT_SetTextColor
000208  4992              LDR      r1,|L9.1108|
00020a  4640              MOV      r0,r8                 ;249
00020c  f7fffffe          BL       TEXT_SetFont
000210  f7fffffe          BL       GUI_UC_SetEncodeUTF8
000214  a19e              ADR      r1,|L9.1168|
000216  4640              MOV      r0,r8                 ;251
000218  f7fffffe          BL       TEXT_SetText
00021c  f640018b          MOV      r1,#0x88b             ;253
000220  6860              LDR      r0,[r4,#4]            ;253
000222  f7fffffe          BL       WM_GetDialogItem
000226  4680              MOV      r8,r0                 ;253
000228  f44f417f          MOV      r1,#0xff00            ;254
00022c  f7fffffe          BL       TEXT_SetTextColor
000230  4988              LDR      r1,|L9.1108|
000232  4640              MOV      r0,r8                 ;255
000234  f7fffffe          BL       TEXT_SetFont
000238  f7fffffe          BL       GUI_UC_SetEncodeUTF8
00023c  a195              ADR      r1,|L9.1172|
00023e  4640              MOV      r0,r8                 ;257
000240  f7fffffe          BL       TEXT_SetText
000244  f640018c          MOV      r1,#0x88c             ;259
000248  6860              LDR      r0,[r4,#4]            ;259
00024a  f7fffffe          BL       WM_GetDialogItem
00024e  4680              MOV      r8,r0                 ;259
000250  f44f417f          MOV      r1,#0xff00            ;260
000254  f7fffffe          BL       TEXT_SetTextColor
000258  79f2              LDRB     r2,[r6,#7]            ;261  ; count
00025a  a18f              ADR      r1,|L9.1176|
00025c  4668              MOV      r0,sp                 ;261
00025e  f7fffffe          BL       __2sprintf
000262  497c              LDR      r1,|L9.1108|
000264  4640              MOV      r0,r8                 ;262
000266  f7fffffe          BL       TEXT_SetFont
00026a  f7fffffe          BL       GUI_UC_SetEncodeUTF8
00026e  4669              MOV      r1,sp                 ;264
000270  4640              MOV      r0,r8                 ;264
000272  f7fffffe          BL       TEXT_SetText
000276  f6400182          MOV      r1,#0x882             ;266
00027a  6860              LDR      r0,[r4,#4]            ;266
00027c  f7fffffe          BL       WM_GetDialogItem
000280  21ff              MOVS     r1,#0xff              ;267
000282  f7fffffe          BL       TEXT_SetTextColor
000286  f6400183          MOV      r1,#0x883             ;269
00028a  6860              LDR      r0,[r4,#4]            ;269
00028c  f7fffffe          BL       WM_GetDialogItem
000290  e000              B        |L9.660|
                  |L9.658|
000292  e3fc              B        |L9.2702|
                  |L9.660|
000294  f06f417f          MVN      r1,#0xff000000        ;270
000298  f7fffffe          BL       TEXT_SetTextColor
00029c  f6400185          MOV      r1,#0x885             ;272
0002a0  6860              LDR      r0,[r4,#4]            ;272
0002a2  f7fffffe          BL       WM_GetDialogItem
0002a6  a16a              ADR      r1,|L9.1104|
0002a8  f7fffffe          BL       TEXT_SetText
0002ac  f6400186          MOV      r1,#0x886             ;275
0002b0  6860              LDR      r0,[r4,#4]            ;275
0002b2  f7fffffe          BL       WM_GetDialogItem
0002b6  a166              ADR      r1,|L9.1104|
0002b8  f7fffffe          BL       TEXT_SetText
0002bc  f6400187          MOV      r1,#0x887             ;278
0002c0  6860              LDR      r0,[r4,#4]            ;278
0002c2  f7fffffe          BL       WM_GetDialogItem
0002c6  a162              ADR      r1,|L9.1104|
0002c8  f7fffffe          BL       TEXT_SetText
0002cc  f6400188          MOV      r1,#0x888             ;281
0002d0  6860              LDR      r0,[r4,#4]            ;281
0002d2  f7fffffe          BL       WM_GetDialogItem
0002d6  a15e              ADR      r1,|L9.1104|
0002d8  f7fffffe          BL       TEXT_SetText
0002dc  f6400189          MOV      r1,#0x889             ;284
0002e0  6860              LDR      r0,[r4,#4]            ;284
0002e2  f7fffffe          BL       WM_GetDialogItem
0002e6  a15a              ADR      r1,|L9.1104|
0002e8  f7fffffe          BL       TEXT_SetText
0002ec  7bf0              LDRB     r0,[r6,#0xf]          ;287  ; charge_step
0002ee  2801              CMP      r0,#1                 ;287
0002f0  d006              BEQ      |L9.768|
0002f2  7bf0              LDRB     r0,[r6,#0xf]          ;291  ; charge_step
0002f4  2802              CMP      r0,#2                 ;291
0002f6  d00a              BEQ      |L9.782|
0002f8  7bf0              LDRB     r0,[r6,#0xf]          ;294  ; charge_step
0002fa  2803              CMP      r0,#3                 ;294
0002fc  d00e              BEQ      |L9.796|
0002fe  e015              B        |L9.812|
                  |L9.768|
000300  f6401113          MOV      r1,#0x913             ;289
000304  6860              LDR      r0,[r4,#4]            ;289
000306  f7fffffe          BL       WM_GetDialogItem
00030a  a164              ADR      r1,|L9.1180|
00030c  e00c              B        |L9.808|
                  |L9.782|
00030e  f6401113          MOV      r1,#0x913             ;292
000312  6860              LDR      r0,[r4,#4]            ;292
000314  f7fffffe          BL       WM_GetDialogItem
000318  a162              ADR      r1,|L9.1188|
00031a  e005              B        |L9.808|
                  |L9.796|
00031c  f6401113          MOV      r1,#0x913             ;295
000320  6860              LDR      r0,[r4,#4]            ;295
000322  f7fffffe          BL       WM_GetDialogItem
000326  a161              ADR      r1,|L9.1196|
                  |L9.808|
000328  f7fffffe          BL       TEXT_SetText
                  |L9.812|
00032c  7a30              LDRB     r0,[r6,#8]            ;299  ; status_flash
00032e  f6400184          MOV      r1,#0x884             ;307
000332  2800              CMP      r0,#0                 ;299
000334  6860              LDR      r0,[r4,#4]            ;299
000336  d00d              BEQ      |L9.852|
000338  f7fffffe          BL       WM_GetDialogItem
00033c  a144              ADR      r1,|L9.1104|
00033e  f7fffffe          BL       TEXT_SetText
000342  4650              MOV      r0,r10                ;309
                  |L9.836|
000344  7230              STRB     r0,[r6,#8]            ;309
000346  f8db1080          LDR      r1,[r11,#0x80]        ;311  ; Run_Control
00034a  4658              MOV      r0,r11                ;311
00034c  f04f0802          MOV      r8,#2                 ;207
000350  b191              CBZ      r1,|L9.888|
000352  e01b              B        |L9.908|
                  |L9.852|
000354  f7fffffe          BL       WM_GetDialogItem
000358  4680              MOV      r8,r0                 ;300
00035a  21ff              MOVS     r1,#0xff              ;301
00035c  f7fffffe          BL       TEXT_SetTextColor
000360  4954              LDR      r1,|L9.1204|
000362  4640              MOV      r0,r8                 ;302
000364  f7fffffe          BL       TEXT_SetFont
000368  f7fffffe          BL       GUI_UC_SetEncodeUTF8
00036c  a152              ADR      r1,|L9.1208|
00036e  4640              MOV      r0,r8                 ;304
000370  f7fffffe          BL       TEXT_SetText
000374  2001              MOVS     r0,#1                 ;305
000376  e7e5              B        |L9.836|
                  |L9.888|
000378  f8d01084          LDR      r1,[r0,#0x84]         ;311  ; Run_Control
00037c  b931              CBNZ     r1,|L9.908|
00037e  f8d0108c          LDR      r1,[r0,#0x8c]         ;311  ; Run_Control
000382  b919              CBNZ     r1,|L9.908|
000384  4823              LDR      r0,|L9.1044|
000386  f8d01090          LDR      r1,[r0,#0x90]         ;311  ; Run_Control
00038a  b121              CBZ      r1,|L9.918|
                  |L9.908|
00038c  f8d01084          LDR      r1,[r0,#0x84]         ;354  ; Run_Control
000390  2900              CMP      r1,#0                 ;354
000392  d03d              BEQ      |L9.1040|
000394  e124              B        |L9.1504|
                  |L9.918|
000396  4822              LDR      r0,|L9.1056|
000398  8801              LDRH     r1,[r0,#0]            ;313  ; coff
00039a  b329              CBZ      r1,|L9.1000|
00039c  88c1              LDRH     r1,[r0,#6]            ;313  ; coff
00039e  b319              CBZ      r1,|L9.1000|
0003a0  4683              MOV      r11,r0                ;334
0003a2  8800              LDRH     r0,[r0,#0]            ;334  ; coff
0003a4  ee000a10          VMOV     s0,r0                 ;334
0003a8  eef80a40          VCVT.F32.U32 s1,s0                 ;334
0003ac  ee800aac          VDIV.F32 s0,s1,s25             ;334
0003b0  edd90a00          VLDR     s1,[r9,#0]            ;334
0003b4  eeb40ae0          VCMPE.F32 s0,s1                 ;334
0003b8  eef1fa10          VMRS     APSR_nzcv,FPSCR       ;334
0003bc  d826              BHI      |L9.1036|
0003be  f8bb1000          LDRH     r1,[r11,#0]           ;334  ; coff
0003c2  4658              MOV      r0,r11                ;334
0003c4  b311              CBZ      r1,|L9.1036|
0003c6  88c0              LDRH     r0,[r0,#6]            ;334  ; coff
0003c8  ee000a10          VMOV     s0,r0                 ;334
0003cc  eeb80a40          VCVT.F32.U32 s0,s0                 ;334
0003d0  eec00a0c          VDIV.F32 s1,s0,s24             ;334
0003d4  ed970a00          VLDR     s0,[r7,#0]            ;334
0003d8  eef40ac0          VCMPE.F32 s1,s0                 ;334
0003dc  eef1fa10          VMRS     APSR_nzcv,FPSCR       ;334
0003e0  dd14              BLE      |L9.1036|
0003e2  7930              LDRB     r0,[r6,#4]            ;334  ; cutoff_flag
0003e4  b198              CBZ      r0,|L9.1038|
0003e6  e0b9              B        |L9.1372|
                  |L9.1000|
0003e8  4683              MOV      r11,r0                ;315
0003ea  8800              LDRH     r0,[r0,#0]            ;315  ; coff
0003ec  ee000a10          VMOV     s0,r0                 ;315
0003f0  eef80a40          VCVT.F32.U32 s1,s0                 ;315
0003f4  ee800aac          VDIV.F32 s0,s1,s25             ;315
0003f8  edd90a00          VLDR     s1,[r9,#0]            ;315
0003fc  eeb40ae0          VCMPE.F32 s0,s1                 ;315
000400  eef1fa10          VMRS     APSR_nzcv,FPSCR       ;315
000404  d85f              BHI      |L9.1222|
000406  f8bb0000          LDRH     r0,[r11,#0]           ;315  ; coff
00040a  e05b              B        |L9.1220|
                  |L9.1036|
00040c  e0a6              B        |L9.1372|
                  |L9.1038|
00040e  e09e              B        |L9.1358|
                  |L9.1040|
000410  e0e2              B        |L9.1496|
000412  0000              DCW      0x0000
                  |L9.1044|
                          DCD      Run_Control
                  |L9.1048|
000418  447a0000          DCFS     0x447a0000 ; 1000
                  |L9.1052|
00041c  42c80000          DCFS     0x42c80000 ; 100
                  |L9.1056|
                          DCD      ||.bss||
                  |L9.1060|
                          DCD      0x00d3d3d3
                  |L9.1064|
000428  00000000          DCFD     0x0000000000000000 ; 0
00042c  00000000
                  |L9.1072|
                          DCD      ||.data||
                  |L9.1076|
                          DCD      GUI_Fontsymbol
                  |L9.1080|
000438  4a696e6b          DCB      "Jinko",0
00043c  6f00    
00043e  00                DCB      0
00043f  00                DCB      0
                  |L9.1088|
                          DCD      GUI_FontHZ20S
                  |L9.1092|
000444  e6b58be9          DCB      230,181,139,233,135,143,230,152,190,231,164,186
000448  878fe698
00044c  bee7a4ba
                  |L9.1104|
000450  00                DCB      0
000451  00                DCB      0
000452  00                DCB      0
000453  00                DCB      0
                  |L9.1108|
                          DCD      GUI_Font24_1
                  |L9.1112|
                          DCD      GUI_FontEN40
                  |L9.1116|
00045c  433a00            DCB      "C:",0
00045f  00                DCB      0
                  |L9.1120|
000460  6d00              DCB      "m",0
000462  00                DCB      0
000463  00                DCB      0
                  |L9.1124|
000464  414800            DCB      "AH",0
000467  00                DCB      0
                  |L9.1128|
                          DCD      GUI_Fontunit
                  |L9.1132|
00046c  c2b000            DCB      194,176,0
00046f  00                DCB      0
                  |L9.1136|
000470  4300              DCB      "C",0
000472  00                DCB      0
000473  00                DCB      0
                  |L9.1140|
                          DCD      mode_sw
                  |L9.1144|
                          DCD      DISS_POW_Voltage
                  |L9.1148|
00047c  252e3266          DCB      "%.2f",0
000480  00      
000481  00                DCB      0
000482  00                DCB      0
000483  00                DCB      0
                  |L9.1156|
                          DCD      DISS_POW_Current
                  |L9.1160|
000488  252e3366          DCB      "%.3f",0
00048c  00      
00048d  00                DCB      0
00048e  00                DCB      0
00048f  00                DCB      0
                  |L9.1168|
000490  2800              DCB      "(",0
000492  00                DCB      0
000493  00                DCB      0
                  |L9.1172|
000494  2900              DCB      ")",0
000496  00                DCB      0
000497  00                DCB      0
                  |L9.1176|
000498  25326400          DCB      "%2d",0
                  |L9.1180|
00049c  e6ada5e9          DCB      230,173,165,233,170,164,"1",0
0004a0  aaa43100
                  |L9.1188|
0004a4  e6ada5e9          DCB      230,173,165,233,170,164,"2",0
0004a8  aaa43200
                  |L9.1196|
0004ac  e6ada5e9          DCB      230,173,165,233,170,164,"3",0
0004b0  aaa43300
                  |L9.1204|
                          DCD      GUI_FontHZ16
                  |L9.1208|
0004b8  e58585e7          DCB      229,133,133,231,148,181,228,184,173,0
0004bc  94b5e4b8
0004c0  ad00    
0004c2  00                DCB      0
0004c3  00                DCB      0
                  |L9.1220|
0004c4  b970              CBNZ     r0,|L9.1252|
                  |L9.1222|
0004c6  f8bb0006          LDRH     r0,[r11,#6]           ;315  ; coff
0004ca  ee000a10          VMOV     s0,r0                 ;315
0004ce  eeb80a40          VCVT.F32.U32 s0,s0                 ;315
0004d2  eec00a0c          VDIV.F32 s1,s0,s24             ;315
0004d6  ed970a00          VLDR     s0,[r7,#0]            ;315
0004da  eef40ac0          VCMPE.F32 s1,s0                 ;315
0004de  eef1fa10          VMRS     APSR_nzcv,FPSCR       ;315
0004e2  dd08              BLE      |L9.1270|
                  |L9.1252|
0004e4  7930              LDRB     r0,[r6,#4]            ;315  ; cutoff_flag
0004e6  b930              CBNZ     r0,|L9.1270|
0004e8  f7fffffe          BL       GUI_GetTime
0004ec  fb90f0f5          SDIV     r0,r0,r5              ;316
0004f0  8230              STRH     r0,[r6,#0x10]         ;316
0004f2  2001              MOVS     r0,#1                 ;317
0004f4  7130              STRB     r0,[r6,#4]            ;317
                  |L9.1270|
0004f6  f8bb1000          LDRH     r1,[r11,#0]           ;319  ; coff
0004fa  4658              MOV      r0,r11                ;319
0004fc  ee001a10          VMOV     s0,r1                 ;319
000500  eef80a40          VCVT.F32.U32 s1,s0                 ;319
000504  ee800aac          VDIV.F32 s0,s1,s25             ;319
000508  edd90a00          VLDR     s1,[r9,#0]            ;319
00050c  eeb40ae0          VCMPE.F32 s0,s1                 ;319
000510  eef1fa10          VMRS     APSR_nzcv,FPSCR       ;319
000514  d801              BHI      |L9.1306|
000516  8801              LDRH     r1,[r0,#0]            ;319  ; coff
000518  b969              CBNZ     r1,|L9.1334|
                  |L9.1306|
00051a  88c0              LDRH     r0,[r0,#6]            ;319  ; coff
00051c  ee000a10          VMOV     s0,r0                 ;319
000520  eeb80a40          VCVT.F32.U32 s0,s0                 ;319
000524  eec00a0c          VDIV.F32 s1,s0,s24             ;319
000528  ed970a00          VLDR     s0,[r7,#0]            ;319
00052c  eef40ac0          VCMPE.F32 s1,s0                 ;319
000530  eef1fa10          VMRS     APSR_nzcv,FPSCR       ;319
                  |L9.1332|
000534  dd3b              BLE      |L9.1454|
                  |L9.1334|
000536  f7fffffe          BL       GUI_GetTime
00053a  fb90f1f5          SDIV     r1,r0,r5              ;319
00053e  8a30              LDRH     r0,[r6,#0x10]         ;319  ; cutoff_time
000540  1a08              SUBS     r0,r1,r0              ;319
000542  e032              B        |L9.1450|
                  |L9.1348|
000544  4ffe              LDR      r7,|L9.2368|
000546  7838              LDRB     r0,[r7,#0]            ;321  ; mode_sw
000548  2803              CMP      r0,#3                 ;321
00054a  d031              BEQ      |L9.1456|
                  |L9.1356|
00054c  e036              B        |L9.1468|
                  |L9.1358|
00054e  f7fffffe          BL       GUI_GetTime
000552  fb90f0f5          SDIV     r0,r0,r5              ;335
000556  8230              STRH     r0,[r6,#0x10]         ;335
000558  2001              MOVS     r0,#1                 ;336
00055a  7130              STRB     r0,[r6,#4]            ;336
                  |L9.1372|
00055c  f8bb1000          LDRH     r1,[r11,#0]           ;338  ; coff
000560  4658              MOV      r0,r11                ;338
000562  ee001a10          VMOV     s0,r1                 ;338
000566  eeb80a40          VCVT.F32.U32 s0,s0                 ;338
00056a  eec00a2c          VDIV.F32 s1,s0,s25             ;338
00056e  ed990a00          VLDR     s0,[r9,#0]            ;338
000572  eef40ac0          VCMPE.F32 s1,s0                 ;338
000576  eef1fa10          VMRS     APSR_nzcv,FPSCR       ;338
00057a  d818              BHI      |L9.1454|
00057c  8801              LDRH     r1,[r0,#0]            ;338  ; coff
00057e  2900              CMP      r1,#0                 ;338
000580  d015              BEQ      |L9.1454|
000582  88c0              LDRH     r0,[r0,#6]            ;338  ; coff
000584  ee000a10          VMOV     s0,r0                 ;338
000588  eeb80a40          VCVT.F32.U32 s0,s0                 ;338
00058c  eec00a0c          VDIV.F32 s1,s0,s24             ;338
000590  ed970a00          VLDR     s0,[r7,#0]            ;338
000594  eef40ac0          VCMPE.F32 s1,s0                 ;338
000598  eef1fa10          VMRS     APSR_nzcv,FPSCR       ;338
00059c  ddca              BLE      |L9.1332|
00059e  f7fffffe          BL       GUI_GetTime
0005a2  fb90f0f5          SDIV     r0,r0,r5              ;338
0005a6  8a31              LDRH     r1,[r6,#0x10]         ;338  ; cutoff_time
0005a8  1a40              SUBS     r0,r0,r1              ;338
                  |L9.1450|
0005aa  280a              CMP      r0,#0xa               ;319
0005ac  daca              BGE      |L9.1348|
                  |L9.1454|
0005ae  e145              B        |L9.2108|
                  |L9.1456|
0005b0  f7fffffe          BL       GUI_GetTime
0005b4  fb90f1f5          SDIV     r1,r0,r5              ;341
0005b8  48e2              LDR      r0,|L9.2372|
0005ba  e0e7              B        |L9.1932|
                  |L9.1468|
0005bc  f886a004          STRB     r10,[r6,#4]           ;343
0005c0  4de1              LDR      r5,|L9.2376|
0005c2  2102              MOVS     r1,#2                 ;344
0005c4  4628              MOV      r0,r5                 ;344
0005c6  f7fffffe          BL       GPIO_ResetBits
0005ca  f44f5100          MOV      r1,#0x2000            ;345
0005ce  4628              MOV      r0,r5                 ;345
0005d0  f7fffffe          BL       GPIO_SetBits
0005d4  1529              ASRS     r1,r5,#20             ;348
0005d6  e127              B        |L9.2088|
                  |L9.1496|
0005d8  f8d01090          LDR      r1,[r0,#0x90]         ;354  ; Run_Control
0005dc  4683              MOV      r11,r0                ;354
0005de  b119              CBZ      r1,|L9.1512|
                  |L9.1504|
0005e0  6fc1              LDR      r1,[r0,#0x7c]         ;413  ; Run_Control
0005e2  2900              CMP      r1,#0                 ;413
0005e4  d17e              BNE      |L9.1764|
0005e6  e12a              B        |L9.2110|
                  |L9.1512|
0005e8  48d8              LDR      r0,|L9.2380|
0005ea  8801              LDRH     r1,[r0,#0]            ;355  ; coff
0005ec  b311              CBZ      r1,|L9.1588|
0005ee  88c1              LDRH     r1,[r0,#6]            ;355  ; coff
0005f0  b301              CBZ      r1,|L9.1588|
0005f2  8801              LDRH     r1,[r0,#0]            ;364  ; coff
0005f4  ee001a10          VMOV     s0,r1                 ;364
0005f8  eef80a40          VCVT.F32.U32 s1,s0                 ;364
0005fc  ee800aac          VDIV.F32 s0,s1,s25             ;364
000600  edd90a00          VLDR     s1,[r9,#0]            ;364
000604  eeb40ae0          VCMPE.F32 s0,s1                 ;364
000608  eef1fa10          VMRS     APSR_nzcv,FPSCR       ;364
00060c  d831              BHI      |L9.1650|
00060e  8801              LDRH     r1,[r0,#0]            ;364  ; coff
000610  b379              CBZ      r1,|L9.1650|
                  |L9.1554|
000612  88c1              LDRH     r1,[r0,#6]            ;364  ; coff
000614  ee001a10          VMOV     s0,r1                 ;364
000618  eef80a40          VCVT.F32.U32 s1,s0                 ;364
00061c  ee800a8c          VDIV.F32 s0,s1,s24             ;364
000620  edd70a00          VLDR     s1,[r7,#0]            ;364
000624  eeb40ae0          VCMPE.F32 s0,s1                 ;364
000628  eef1fa10          VMRS     APSR_nzcv,FPSCR       ;364
00062c  dd21              BLE      |L9.1650|
                  |L9.1582|
00062e  7931              LDRB     r1,[r6,#4]            ;364  ; cutoff_flag
000630  b191              CBZ      r1,|L9.1624|
000632  e01e              B        |L9.1650|
                  |L9.1588|
000634  8801              LDRH     r1,[r0,#0]            ;357  ; coff
000636  ee001a10          VMOV     s0,r1                 ;357
00063a  eef80a40          VCVT.F32.U32 s1,s0                 ;357
00063e  ee800aac          VDIV.F32 s0,s1,s25             ;357
000642  edd90a00          VLDR     s1,[r9,#0]            ;357
000646  eeb40ae0          VCMPE.F32 s0,s1                 ;357
00064a  eef1fa10          VMRS     APSR_nzcv,FPSCR       ;357
00064e  d8e0              BHI      |L9.1554|
000650  8801              LDRH     r1,[r0,#0]            ;357  ; coff
000652  2900              CMP      r1,#0                 ;357
000654  d1eb              BNE      |L9.1582|
000656  e7dc              B        |L9.1554|
                  |L9.1624|
000658  7bf1              LDRB     r1,[r6,#0xf]          ;364  ; charge_step
00065a  2901              CMP      r1,#1                 ;364
00065c  d109              BNE      |L9.1650|
00065e  f8db2080          LDR      r2,[r11,#0x80]        ;366  ; Run_Control
000662  f8cb2004          STR      r2,[r11,#4]           ;366  ; Run_Control
000666  f8db208c          LDR      r2,[r11,#0x8c]        ;367  ; Run_Control
00066a  f8cb2008          STR      r2,[r11,#8]           ;367  ; Run_Control
00066e  f886800f          STRB     r8,[r6,#0xf]          ;368
                  |L9.1650|
000672  8841              LDRH     r1,[r0,#2]            ;372  ; coff
000674  b321              CBZ      r1,|L9.1728|
000676  8901              LDRH     r1,[r0,#8]            ;372  ; coff
000678  b311              CBZ      r1,|L9.1728|
00067a  48b4              LDR      r0,|L9.2380|
00067c  8840              LDRH     r0,[r0,#2]            ;393  ; coff
00067e  ee000a10          VMOV     s0,r0                 ;393
000682  eef80a40          VCVT.F32.U32 s1,s0                 ;393
000686  ee800aac          VDIV.F32 s0,s1,s25             ;393
00068a  edd90a00          VLDR     s1,[r9,#0]            ;393
00068e  eeb40ae0          VCMPE.F32 s0,s1                 ;393
000692  eef1fa10          VMRS     APSR_nzcv,FPSCR       ;393
000696  d841              BHI      |L9.1820|
000698  48ac              LDR      r0,|L9.2380|
00069a  8841              LDRH     r1,[r0,#2]            ;393  ; coff
00069c  b3f1              CBZ      r1,|L9.1820|
00069e  8900              LDRH     r0,[r0,#8]            ;393  ; coff
0006a0  ee000a10          VMOV     s0,r0                 ;393
0006a4  eeb80a40          VCVT.F32.U32 s0,s0                 ;393
0006a8  eec00a0c          VDIV.F32 s1,s0,s24             ;393
0006ac  ed970a00          VLDR     s0,[r7,#0]            ;393
0006b0  eef40ac0          VCMPE.F32 s1,s0                 ;393
0006b4  eef1fa10          VMRS     APSR_nzcv,FPSCR       ;393
0006b8  dd74              BLE      |L9.1956|
0006ba  7930              LDRB     r0,[r6,#4]            ;393  ; cutoff_flag
0006bc  b378              CBZ      r0,|L9.1822|
0006be  e071              B        |L9.1956|
                  |L9.1728|
0006c0  48a2              LDR      r0,|L9.2380|
0006c2  8840              LDRH     r0,[r0,#2]            ;374  ; coff
0006c4  ee000a10          VMOV     s0,r0                 ;374
0006c8  eef80a40          VCVT.F32.U32 s1,s0                 ;374
0006cc  ee800aac          VDIV.F32 s0,s1,s25             ;374
0006d0  edd90a00          VLDR     s1,[r9,#0]            ;374
0006d4  eeb40ae0          VCMPE.F32 s0,s1                 ;374
0006d8  eef1fa10          VMRS     APSR_nzcv,FPSCR       ;374
0006dc  d804              BHI      |L9.1768|
0006de  489b              LDR      r0,|L9.2380|
0006e0  8840              LDRH     r0,[r0,#2]            ;374  ; coff
0006e2  e000              B        |L9.1766|
                  |L9.1764|
0006e4  e0af              B        |L9.2118|
                  |L9.1766|
0006e6  b970              CBNZ     r0,|L9.1798|
                  |L9.1768|
0006e8  4898              LDR      r0,|L9.2380|
0006ea  8900              LDRH     r0,[r0,#8]            ;374  ; coff
0006ec  ee000a10          VMOV     s0,r0                 ;374
0006f0  eeb80a40          VCVT.F32.U32 s0,s0                 ;374
0006f4  eec00a0c          VDIV.F32 s1,s0,s24             ;374
0006f8  ed970a00          VLDR     s0,[r7,#0]            ;374
0006fc  eef40ac0          VCMPE.F32 s1,s0                 ;374
000700  eef1fa10          VMRS     APSR_nzcv,FPSCR       ;374
000704  dd0e              BLE      |L9.1828|
                  |L9.1798|
000706  7930              LDRB     r0,[r6,#4]            ;374  ; cutoff_flag
000708  b960              CBNZ     r0,|L9.1828|
00070a  7bf0              LDRB     r0,[r6,#0xf]          ;374  ; charge_step
00070c  2802              CMP      r0,#2                 ;374
00070e  d109              BNE      |L9.1828|
000710  f7fffffe          BL       GUI_GetTime
000714  fb90f0f5          SDIV     r0,r0,r5              ;375
000718  8230              STRH     r0,[r6,#0x10]         ;375
00071a  e001              B        |L9.1824|
                  |L9.1820|
00071c  e042              B        |L9.1956|
                  |L9.1822|
00071e  e037              B        |L9.1936|
                  |L9.1824|
000720  2001              MOVS     r0,#1                 ;376
000722  7130              STRB     r0,[r6,#4]            ;376
                  |L9.1828|
000724  4889              LDR      r0,|L9.2380|
000726  8841              LDRH     r1,[r0,#2]            ;378  ; coff
000728  ee001a10          VMOV     s0,r1                 ;378
00072c  eeb80a40          VCVT.F32.U32 s0,s0                 ;378
000730  eec00a2c          VDIV.F32 s1,s0,s25             ;378
000734  ed990a00          VLDR     s0,[r9,#0]            ;378
000738  eef40ac0          VCMPE.F32 s1,s0                 ;378
00073c  eef1fa10          VMRS     APSR_nzcv,FPSCR       ;378
000740  d801              BHI      |L9.1862|
000742  8841              LDRH     r1,[r0,#2]            ;378  ; coff
000744  b969              CBNZ     r1,|L9.1890|
                  |L9.1862|
000746  8900              LDRH     r0,[r0,#8]            ;378  ; coff
000748  ee000a10          VMOV     s0,r0                 ;378
00074c  eeb80a40          VCVT.F32.U32 s0,s0                 ;378
000750  eec00a0c          VDIV.F32 s1,s0,s24             ;378
000754  ed970a00          VLDR     s0,[r7,#0]            ;378
000758  eef40ac0          VCMPE.F32 s1,s0                 ;378
00075c  eef1fa10          VMRS     APSR_nzcv,FPSCR       ;378
                  |L9.1888|
000760  dd6c              BLE      |L9.2108|
                  |L9.1890|
000762  f7fffffe          BL       GUI_GetTime
000766  fb90f0f5          SDIV     r0,r0,r5              ;378
00076a  8a31              LDRH     r1,[r6,#0x10]         ;378  ; cutoff_time
00076c  1a40              SUBS     r0,r0,r1              ;378
00076e  280a              CMP      r0,#0xa               ;378
                  |L9.1904|
000770  db64              BLT      |L9.2108|
000772  7bf0              LDRB     r0,[r6,#0xf]          ;378  ; charge_step
000774  2802              CMP      r0,#2                 ;378
                  |L9.1910|
000776  d161              BNE      |L9.2108|
                  |L9.1912|
000778  4f71              LDR      r7,|L9.2368|
00077a  7838              LDRB     r0,[r7,#0]            ;380  ; mode_sw
00077c  2803              CMP      r0,#3                 ;380
00077e  f47faee5          BNE      |L9.1356|
000782  f7fffffe          BL       GUI_GetTime
000786  fb90f1f5          SDIV     r1,r0,r5              ;381
00078a  4658              MOV      r0,r11                ;381
                  |L9.1932|
00078c  6741              STR      r1,[r0,#0x74]         ;381  ; Run_Control
00078e  e715              B        |L9.1468|
                  |L9.1936|
000790  7bf0              LDRB     r0,[r6,#0xf]          ;393  ; charge_step
000792  2802              CMP      r0,#2                 ;393
000794  d106              BNE      |L9.1956|
000796  f7fffffe          BL       GUI_GetTime
00079a  fb90f0f5          SDIV     r0,r0,r5              ;394
00079e  8230              STRH     r0,[r6,#0x10]         ;394
0007a0  2001              MOVS     r0,#1                 ;395
0007a2  7130              STRB     r0,[r6,#4]            ;395
                  |L9.1956|
0007a4  4869              LDR      r0,|L9.2380|
0007a6  8841              LDRH     r1,[r0,#2]            ;397  ; coff
0007a8  ee001a10          VMOV     s0,r1                 ;397
0007ac  eeb80a40          VCVT.F32.U32 s0,s0                 ;397
0007b0  eec00a2c          VDIV.F32 s1,s0,s25             ;397
0007b4  ed990a00          VLDR     s0,[r9,#0]            ;397
0007b8  eef40ac0          VCMPE.F32 s1,s0                 ;397
0007bc  eef1fa10          VMRS     APSR_nzcv,FPSCR       ;397
0007c0  d83c              BHI      |L9.2108|
0007c2  8841              LDRH     r1,[r0,#2]            ;397  ; coff
0007c4  2900              CMP      r1,#0                 ;397
0007c6  d039              BEQ      |L9.2108|
0007c8  8900              LDRH     r0,[r0,#8]            ;397  ; coff
0007ca  ee000a10          VMOV     s0,r0                 ;397
0007ce  eeb80a40          VCVT.F32.U32 s0,s0                 ;397
0007d2  eec00a0c          VDIV.F32 s1,s0,s24             ;397
0007d6  ed970a00          VLDR     s0,[r7,#0]            ;397
0007da  eef40ac0          VCMPE.F32 s1,s0                 ;397
0007de  eef1fa10          VMRS     APSR_nzcv,FPSCR       ;397
0007e2  ddbd              BLE      |L9.1888|
0007e4  f7fffffe          BL       GUI_GetTime
0007e8  fb90f0f5          SDIV     r0,r0,r5              ;397
0007ec  8a31              LDRH     r1,[r6,#0x10]         ;397  ; cutoff_time
0007ee  1a40              SUBS     r0,r0,r1              ;397
0007f0  280a              CMP      r0,#0xa               ;397
0007f2  dbbd              BLT      |L9.1904|
0007f4  7bf0              LDRB     r0,[r6,#0xf]          ;397  ; charge_step
0007f6  2802              CMP      r0,#2                 ;397
0007f8  d1bd              BNE      |L9.1910|
0007fa  4f51              LDR      r7,|L9.2368|
0007fc  7838              LDRB     r0,[r7,#0]            ;399  ; mode_sw
0007fe  2803              CMP      r0,#3                 ;399
000800  d105              BNE      |L9.2062|
000802  f7fffffe          BL       GUI_GetTime
000806  fb90f1f5          SDIV     r1,r0,r5              ;400
00080a  f8cb1074          STR      r1,[r11,#0x74]        ;400  ; Run_Control
                  |L9.2062|
00080e  f886a004          STRB     r10,[r6,#4]           ;402
000812  4d4d              LDR      r5,|L9.2376|
000814  2102              MOVS     r1,#2                 ;403
000816  4628              MOV      r0,r5                 ;403
000818  f7fffffe          BL       GPIO_ResetBits
00081c  f44f5100          MOV      r1,#0x2000            ;404
000820  4628              MOV      r0,r5                 ;404
000822  f7fffffe          BL       GPIO_SetBits
000826  14a9              ASRS     r1,r5,#18             ;407
                  |L9.2088|
000828  4628              MOV      r0,r5                 ;483
00082a  f7fffffe          BL       GPIO_ResetBits
00082e  f44f4100          MOV      r1,#0x8000            ;484
000832  4847              LDR      r0,|L9.2384|
000834  f7fffffe          BL       GPIO_ResetBits
000838  f8878000          STRB     r8,[r7,#0]            ;485
                  |L9.2108|
00083c  e16c              B        |L9.2840|
                  |L9.2110|
00083e  f8d01088          LDR      r1,[r0,#0x88]         ;413  ; Run_Control
000842  2900              CMP      r1,#0                 ;413
000844  d0fa              BEQ      |L9.2108|
                  |L9.2118|
000846  f8d01080          LDR      r1,[r0,#0x80]         ;413  ; Run_Control
00084a  b919              CBNZ     r1,|L9.2132|
00084c  f8d0108c          LDR      r1,[r0,#0x8c]         ;413  ; Run_Control
000850  2900              CMP      r1,#0                 ;413
000852  d0f3              BEQ      |L9.2108|
                  |L9.2132|
000854  4683              MOV      r11,r0                ;413
000856  f8d00084          LDR      r0,[r0,#0x84]         ;413  ; Run_Control
00085a  b918              CBNZ     r0,|L9.2148|
00085c  f8db0090          LDR      r0,[r11,#0x90]        ;413  ; Run_Control
000860  2800              CMP      r0,#0                 ;413
000862  d0eb              BEQ      |L9.2108|
                  |L9.2148|
000864  4839              LDR      r0,|L9.2380|
000866  8801              LDRH     r1,[r0,#0]            ;414  ; coff
000868  b311              CBZ      r1,|L9.2224|
00086a  88c1              LDRH     r1,[r0,#6]            ;414  ; coff
00086c  b301              CBZ      r1,|L9.2224|
00086e  8801              LDRH     r1,[r0,#0]            ;423  ; coff
000870  ee001a10          VMOV     s0,r1                 ;423
000874  eeb80a40          VCVT.F32.U32 s0,s0                 ;423
000878  eec00a2c          VDIV.F32 s1,s0,s25             ;423
00087c  ed990a00          VLDR     s0,[r9,#0]            ;423
000880  eef40ac0          VCMPE.F32 s1,s0                 ;423
000884  eef1fa10          VMRS     APSR_nzcv,FPSCR       ;423
000888  d83f              BHI      |L9.2314|
00088a  8801              LDRH     r1,[r0,#0]            ;423  ; coff
00088c  b379              CBZ      r1,|L9.2286|
00088e  88c1              LDRH     r1,[r0,#6]            ;423  ; coff
000890  ee001a10          VMOV     s0,r1                 ;423
000894  eef80a40          VCVT.F32.U32 s1,s0                 ;423
000898  ee800a8c          VDIV.F32 s0,s1,s24             ;423
00089c  edd70a00          VLDR     s1,[r7,#0]            ;423
0008a0  eeb40ae0          VCMPE.F32 s0,s1                 ;423
0008a4  eef1fa10          VMRS     APSR_nzcv,FPSCR       ;423
0008a8  dd2f              BLE      |L9.2314|
                  |L9.2218|
0008aa  7931              LDRB     r1,[r6,#4]            ;423  ; cutoff_flag
0008ac  b301              CBZ      r1,|L9.2288|
0008ae  e02c              B        |L9.2314|
                  |L9.2224|
0008b0  8801              LDRH     r1,[r0,#0]            ;416  ; coff
0008b2  ee001a10          VMOV     s0,r1                 ;416
0008b6  eef80a40          VCVT.F32.U32 s1,s0                 ;416
0008ba  ee800aac          VDIV.F32 s0,s1,s25             ;416
0008be  edd90a00          VLDR     s1,[r9,#0]            ;416
0008c2  eeb40ae0          VCMPE.F32 s0,s1                 ;416
0008c6  eef1fa10          VMRS     APSR_nzcv,FPSCR       ;416
0008ca  d802              BHI      |L9.2258|
0008cc  8801              LDRH     r1,[r0,#0]            ;416  ; coff
0008ce  2900              CMP      r1,#0                 ;416
0008d0  d1eb              BNE      |L9.2218|
                  |L9.2258|
0008d2  88c1              LDRH     r1,[r0,#6]            ;416  ; coff
0008d4  ee001a10          VMOV     s0,r1                 ;416
0008d8  eeb80a40          VCVT.F32.U32 s0,s0                 ;416
0008dc  eec00a0c          VDIV.F32 s1,s0,s24             ;416
0008e0  ed970a00          VLDR     s0,[r7,#0]            ;416
0008e4  eef40ac0          VCMPE.F32 s1,s0                 ;416
0008e8  eef1fa10          VMRS     APSR_nzcv,FPSCR       ;416
0008ec  dcdd              BGT      |L9.2218|
                  |L9.2286|
0008ee  e00c              B        |L9.2314|
                  |L9.2288|
0008f0  7bf1              LDRB     r1,[r6,#0xf]          ;423  ; charge_step
0008f2  2901              CMP      r1,#1                 ;423
0008f4  d109              BNE      |L9.2314|
0008f6  f8db2080          LDR      r2,[r11,#0x80]        ;425  ; Run_Control
0008fa  f8cb2004          STR      r2,[r11,#4]           ;425  ; Run_Control
0008fe  f8db208c          LDR      r2,[r11,#0x8c]        ;426  ; Run_Control
000902  f8cb2008          STR      r2,[r11,#8]           ;426  ; Run_Control
000906  f886800f          STRB     r8,[r6,#0xf]          ;427
                  |L9.2314|
00090a  8841              LDRH     r1,[r0,#2]            ;431  ; coff
00090c  b371              CBZ      r1,|L9.2412|
00090e  8901              LDRH     r1,[r0,#8]            ;431  ; coff
000910  b361              CBZ      r1,|L9.2412|
000912  8841              LDRH     r1,[r0,#2]            ;440  ; coff
000914  ee001a10          VMOV     s0,r1                 ;440
000918  eef80a40          VCVT.F32.U32 s1,s0                 ;440
00091c  ee800aac          VDIV.F32 s0,s1,s25             ;440
000920  edd90a00          VLDR     s1,[r9,#0]            ;440
000924  eeb40ae0          VCMPE.F32 s0,s1                 ;440
000928  eef1fa10          VMRS     APSR_nzcv,FPSCR       ;440
00092c  d23f              BCS      |L9.2478|
00092e  8841              LDRH     r1,[r0,#2]            ;440  ; coff
000930  b379              CBZ      r1,|L9.2450|
                  |L9.2354|
000932  8901              LDRH     r1,[r0,#8]            ;440  ; coff
000934  ee001a10          VMOV     s0,r1                 ;440
000938  eef80a40          VCVT.F32.U32 s1,s0                 ;440
00093c  e00a              B        |L9.2388|
                  |L9.2366|
00093e  e3fc              B        |L9.4410|
                  |L9.2368|
                          DCD      mode_sw
                  |L9.2372|
                          DCD      Run_Control
                  |L9.2376|
                          DCD      0x40020800
                  |L9.2380|
                          DCD      ||.bss||
                  |L9.2384|
                          DCD      0x40020000
                  |L9.2388|
000954  ee800a8c          VDIV.F32 s0,s1,s24             ;440
000958  edd70a00          VLDR     s1,[r7,#0]            ;440
00095c  eeb40ae0          VCMPE.F32 s0,s1                 ;440
000960  eef1fa10          VMRS     APSR_nzcv,FPSCR       ;440
000964  dd23              BLE      |L9.2478|
                  |L9.2406|
000966  7931              LDRB     r1,[r6,#4]            ;440  ; cutoff_flag
000968  b1a1              CBZ      r1,|L9.2452|
00096a  e020              B        |L9.2478|
                  |L9.2412|
00096c  8841              LDRH     r1,[r0,#2]            ;433  ; coff
00096e  ee001a10          VMOV     s0,r1                 ;433
000972  eef80a40          VCVT.F32.U32 s1,s0                 ;433
000976  ee800aac          VDIV.F32 s0,s1,s25             ;433
00097a  edd90a00          VLDR     s1,[r9,#0]            ;433
00097e  eeb40ae0          VCMPE.F32 s0,s1                 ;433
000982  eef1fa10          VMRS     APSR_nzcv,FPSCR       ;433
000986  d2d4              BCS      |L9.2354|
000988  8841              LDRH     r1,[r0,#2]            ;433  ; coff
00098a  2900              CMP      r1,#0                 ;433
00098c  d1eb              BNE      |L9.2406|
00098e  e7d0              B        |L9.2354|
                  |L9.2448|
000990  e0c6              B        |L9.2848|
                  |L9.2450|
000992  e00c              B        |L9.2478|
                  |L9.2452|
000994  7bf1              LDRB     r1,[r6,#0xf]          ;440  ; charge_step
000996  2902              CMP      r1,#2                 ;440
000998  d109              BNE      |L9.2478|
00099a  f8db2084          LDR      r2,[r11,#0x84]        ;442  ; Run_Control
00099e  f8cb2004          STR      r2,[r11,#4]           ;442  ; Run_Control
0009a2  f8db2090          LDR      r2,[r11,#0x90]        ;443  ; Run_Control
0009a6  f8cb2008          STR      r2,[r11,#8]           ;443  ; Run_Control
0009aa  2103              MOVS     r1,#3                 ;444
0009ac  73f1              STRB     r1,[r6,#0xf]          ;444
                  |L9.2478|
0009ae  8881              LDRH     r1,[r0,#4]            ;448  ; coff
0009b0  b321              CBZ      r1,|L9.2556|
0009b2  8941              LDRH     r1,[r0,#0xa]          ;448  ; coff
0009b4  b311              CBZ      r1,|L9.2556|
0009b6  48fe              LDR      r0,|L9.3504|
0009b8  8880              LDRH     r0,[r0,#4]            ;469  ; coff
0009ba  ee000a10          VMOV     s0,r0                 ;469
0009be  eeb80a40          VCVT.F32.U32 s0,s0                 ;469
0009c2  eec00a2c          VDIV.F32 s1,s0,s25             ;469
0009c6  ed990a00          VLDR     s0,[r9,#0]            ;469
0009ca  eef40ac0          VCMPE.F32 s1,s0                 ;469
0009ce  eef1fa10          VMRS     APSR_nzcv,FPSCR       ;469
0009d2  d275              BCS      |L9.2752|
0009d4  48f6              LDR      r0,|L9.3504|
0009d6  8881              LDRH     r1,[r0,#4]            ;469  ; coff
0009d8  b3f1              CBZ      r1,|L9.2648|
0009da  8940              LDRH     r0,[r0,#0xa]          ;469  ; coff
0009dc  ee000a10          VMOV     s0,r0                 ;469
0009e0  eeb80a40          VCVT.F32.U32 s0,s0                 ;469
0009e4  eec00a0c          VDIV.F32 s1,s0,s24             ;469
0009e8  ed970a00          VLDR     s0,[r7,#0]            ;469
0009ec  eef40ac0          VCMPE.F32 s1,s0                 ;469
0009f0  eef1fa10          VMRS     APSR_nzcv,FPSCR       ;469
0009f4  dd64              BLE      |L9.2752|
0009f6  7930              LDRB     r0,[r6,#4]            ;469  ; cutoff_flag
0009f8  b378              CBZ      r0,|L9.2650|
0009fa  e061              B        |L9.2752|
                  |L9.2556|
0009fc  48ec              LDR      r0,|L9.3504|
0009fe  8880              LDRH     r0,[r0,#4]            ;450  ; coff
000a00  ee000a10          VMOV     s0,r0                 ;450
000a04  eef80a40          VCVT.F32.U32 s1,s0                 ;450
000a08  ee800aac          VDIV.F32 s0,s1,s25             ;450
000a0c  edd90a00          VLDR     s1,[r9,#0]            ;450
000a10  eeb40ae0          VCMPE.F32 s0,s1                 ;450
000a14  eef1fa10          VMRS     APSR_nzcv,FPSCR       ;450
000a18  d202              BCS      |L9.2592|
000a1a  48e5              LDR      r0,|L9.3504|
000a1c  8880              LDRH     r0,[r0,#4]            ;450  ; coff
000a1e  b970              CBNZ     r0,|L9.2622|
                  |L9.2592|
000a20  48e3              LDR      r0,|L9.3504|
000a22  8940              LDRH     r0,[r0,#0xa]          ;450  ; coff
000a24  ee000a10          VMOV     s0,r0                 ;450
000a28  eef80a40          VCVT.F32.U32 s1,s0                 ;450
000a2c  ee800a8c          VDIV.F32 s0,s1,s24             ;450
000a30  edd70a00          VLDR     s1,[r7,#0]            ;450
000a34  eeb40ae0          VCMPE.F32 s0,s1                 ;450
000a38  eef1fa10          VMRS     APSR_nzcv,FPSCR       ;450
000a3c  dd0b              BLE      |L9.2646|
                  |L9.2622|
000a3e  7930              LDRB     r0,[r6,#4]            ;450  ; cutoff_flag
000a40  b948              CBNZ     r0,|L9.2646|
000a42  7bf0              LDRB     r0,[r6,#0xf]          ;450  ; charge_step
000a44  2803              CMP      r0,#3                 ;450
000a46  d106              BNE      |L9.2646|
000a48  f7fffffe          BL       GUI_GetTime
000a4c  fb90f0f5          SDIV     r0,r0,r5              ;451
000a50  8230              STRH     r0,[r6,#0x10]         ;451
000a52  2001              MOVS     r0,#1                 ;452
000a54  7130              STRB     r0,[r6,#4]            ;452
                  |L9.2646|
000a56  e001              B        |L9.2652|
                  |L9.2648|
000a58  e032              B        |L9.2752|
                  |L9.2650|
000a5a  e027              B        |L9.2732|
                  |L9.2652|
000a5c  48d4              LDR      r0,|L9.3504|
000a5e  8881              LDRH     r1,[r0,#4]            ;454  ; coff
000a60  ee001a10          VMOV     s0,r1                 ;454
000a64  eeb80a40          VCVT.F32.U32 s0,s0                 ;454
000a68  eec00a2c          VDIV.F32 s1,s0,s25             ;454
000a6c  ed990a00          VLDR     s0,[r9,#0]            ;454
000a70  eef40ac0          VCMPE.F32 s1,s0                 ;454
000a74  eef1fa10          VMRS     APSR_nzcv,FPSCR       ;454
000a78  d201              BCS      |L9.2686|
000a7a  8881              LDRH     r1,[r0,#4]            ;454  ; coff
000a7c  b979              CBNZ     r1,|L9.2718|
                  |L9.2686|
000a7e  8940              LDRH     r0,[r0,#0xa]          ;454  ; coff
000a80  ee000a10          VMOV     s0,r0                 ;454
000a84  eeb80a40          VCVT.F32.U32 s0,s0                 ;454
000a88  eec00a0c          VDIV.F32 s1,s0,s24             ;454
000a8c  e000              B        |L9.2704|
                  |L9.2702|
000a8e  e044              B        |L9.2842|
                  |L9.2704|
000a90  ed970a00          VLDR     s0,[r7,#0]            ;454
000a94  eef40ac0          VCMPE.F32 s1,s0                 ;454
000a98  eef1fa10          VMRS     APSR_nzcv,FPSCR       ;454
                  |L9.2716|
000a9c  dd3c              BLE      |L9.2840|
                  |L9.2718|
000a9e  f7fffffe          BL       GUI_GetTime
000aa2  fb90f1f5          SDIV     r1,r0,r5              ;454
000aa6  8a30              LDRH     r0,[r6,#0x10]         ;454  ; cutoff_time
000aa8  1a08              SUBS     r0,r1,r0              ;454
000aaa  e02f              B        |L9.2828|
                  |L9.2732|
000aac  7bf0              LDRB     r0,[r6,#0xf]          ;469  ; charge_step
000aae  2803              CMP      r0,#3                 ;469
000ab0  d106              BNE      |L9.2752|
000ab2  f7fffffe          BL       GUI_GetTime
000ab6  fb90f0f5          SDIV     r0,r0,r5              ;470
000aba  8230              STRH     r0,[r6,#0x10]         ;470
000abc  2001              MOVS     r0,#1                 ;471
000abe  7130              STRB     r0,[r6,#4]            ;471
                  |L9.2752|
000ac0  48bb              LDR      r0,|L9.3504|
000ac2  8881              LDRH     r1,[r0,#4]            ;473  ; coff
000ac4  ee001a10          VMOV     s0,r1                 ;473
000ac8  eeb80a40          VCVT.F32.U32 s0,s0                 ;473
000acc  eec00a2c          VDIV.F32 s1,s0,s25             ;473
000ad0  ed990a00          VLDR     s0,[r9,#0]            ;473
000ad4  eef40ac0          VCMPE.F32 s1,s0                 ;473
000ad8  eef1fa10          VMRS     APSR_nzcv,FPSCR       ;473
000adc  d21c              BCS      |L9.2840|
000ade  8881              LDRH     r1,[r0,#4]            ;473  ; coff
000ae0  2900              CMP      r1,#0                 ;473
000ae2  d019              BEQ      |L9.2840|
000ae4  8940              LDRH     r0,[r0,#0xa]          ;473  ; coff
000ae6  ee000a10          VMOV     s0,r0                 ;473
000aea  eeb80a40          VCVT.F32.U32 s0,s0                 ;473
000aee  eec00a0c          VDIV.F32 s1,s0,s24             ;473
000af2  ed970a00          VLDR     s0,[r7,#0]            ;473
000af6  eef40ac0          VCMPE.F32 s1,s0                 ;473
000afa  eef1fa10          VMRS     APSR_nzcv,FPSCR       ;473
000afe  ddcd              BLE      |L9.2716|
000b00  f7fffffe          BL       GUI_GetTime
000b04  fb90f0f5          SDIV     r0,r0,r5              ;473
000b08  8a31              LDRH     r1,[r6,#0x10]         ;473  ; cutoff_time
000b0a  1a40              SUBS     r0,r0,r1              ;473
                  |L9.2828|
000b0c  280a              CMP      r0,#0xa               ;473
000b0e  db03              BLT      |L9.2840|
000b10  7bf0              LDRB     r0,[r6,#0xf]          ;473  ; charge_step
000b12  2803              CMP      r0,#3                 ;473
000b14  f43fae30          BEQ      |L9.1912|
                  |L9.2840|
000b18  e2f8              B        |L9.4364|
                  |L9.2842|
000b1a  7970              LDRB     r0,[r6,#5]            ;503  ; cdc_sw
000b1c  2801              CMP      r0,#1                 ;503
000b1e  d003              BEQ      |L9.2856|
                  |L9.2848|
000b20  7a70              LDRB     r0,[r6,#9]            ;659  ; pause_flag
000b22  2801              CMP      r0,#1                 ;659
000b24  d07d              BEQ      |L9.3106|
000b26  e2a7              B        |L9.4216|
                  |L9.2856|
000b28  f04f0901          MOV      r9,#1                 ;504
000b2c  f886900f          STRB     r9,[r6,#0xf]          ;504
000b30  f6401113          MOV      r1,#0x913             ;505
000b34  6860              LDR      r0,[r4,#4]            ;505
000b36  f7fffffe          BL       WM_GetDialogItem
000b3a  f2af61ec          ADR      r1,|L9.1104|
000b3e  f7fffffe          BL       TEXT_SetText
000b42  7ab0              LDRB     r0,[r6,#0xa]          ;507  ; paused
000b44  273c              MOVS     r7,#0x3c              ;508
000b46  f44f6861          MOV      r8,#0xe10             ;510
000b4a  2800              CMP      r0,#0                 ;507
000b4c  d06a              BEQ      |L9.3108|
000b4e  f7fffffe          BL       GUI_GetTime
000b52  fb90f0f5          SDIV     r0,r0,r5              ;512
000b56  8ab1              LDRH     r1,[r6,#0x14]         ;512  ; restart_time
000b58  1a40              SUBS     r0,r0,r1              ;512
000b5a  8a71              LDRH     r1,[r6,#0x12]         ;512  ; pause_time
000b5c  4408              ADD      r0,r0,r1              ;512
000b5e  fb90f1f7          SDIV     r1,r0,r7              ;512
000b62  fb070011          MLS      r0,r7,r1,r0           ;512
000b66  7070              STRB     r0,[r6,#1]            ;512
000b68  f7fffffe          BL       GUI_GetTime
000b6c  fb90f0f5          SDIV     r0,r0,r5              ;513
000b70  8ab1              LDRH     r1,[r6,#0x14]         ;513  ; restart_time
000b72  1a40              SUBS     r0,r0,r1              ;513
000b74  8a71              LDRH     r1,[r6,#0x12]         ;513  ; pause_time
000b76  4408              ADD      r0,r0,r1              ;513
000b78  fb90f0f7          SDIV     r0,r0,r7              ;513
000b7c  fb90f1f7          SDIV     r1,r0,r7              ;513
000b80  fb070011          MLS      r0,r7,r1,r0           ;513
000b84  70b0              STRB     r0,[r6,#2]            ;513
000b86  f7fffffe          BL       GUI_GetTime
000b8a  fb90f0f5          SDIV     r0,r0,r5              ;514
000b8e  8ab1              LDRH     r1,[r6,#0x14]         ;514  ; restart_time
000b90  1a40              SUBS     r0,r0,r1              ;514
000b92  8a71              LDRH     r1,[r6,#0x12]         ;514  ; pause_time
000b94  4401              ADD      r1,r1,r0              ;514
000b96  fb91f0f8          SDIV     r0,r1,r8              ;514
                  |L9.2970|
000b9a  70f0              STRB     r0,[r6,#3]            ;514
000b9c  f6400185          MOV      r1,#0x885             ;518
000ba0  6860              LDR      r0,[r4,#4]            ;518
000ba2  f7fffffe          BL       WM_GetDialogItem
000ba6  78f2              LDRB     r2,[r6,#3]            ;519  ; hour
000ba8  4607              MOV      r7,r0                 ;518
000baa  a182              ADR      r1,|L9.3508|
000bac  4668              MOV      r0,sp                 ;519
000bae  f7fffffe          BL       __2sprintf
000bb2  f06f417f          MVN      r1,#0xff000000        ;520
000bb6  4638              MOV      r0,r7                 ;520
000bb8  f7fffffe          BL       TEXT_SetTextColor
000bbc  497f              LDR      r1,|L9.3516|
000bbe  4638              MOV      r0,r7                 ;521
000bc0  f7fffffe          BL       TEXT_SetFont
000bc4  f7fffffe          BL       GUI_UC_SetEncodeUTF8
000bc8  4669              MOV      r1,sp                 ;523
000bca  4638              MOV      r0,r7                 ;523
000bcc  f7fffffe          BL       TEXT_SetText
000bd0  f6400186          MOV      r1,#0x886             ;525
000bd4  6860              LDR      r0,[r4,#4]            ;525
000bd6  f7fffffe          BL       WM_GetDialogItem
000bda  78b2              LDRB     r2,[r6,#2]            ;526  ; minute
000bdc  4607              MOV      r7,r0                 ;525
000bde  a175              ADR      r1,|L9.3508|
000be0  4668              MOV      r0,sp                 ;526
000be2  f7fffffe          BL       __2sprintf
000be6  f06f417f          MVN      r1,#0xff000000        ;527
000bea  4638              MOV      r0,r7                 ;527
000bec  f7fffffe          BL       TEXT_SetTextColor
000bf0  4972              LDR      r1,|L9.3516|
000bf2  4638              MOV      r0,r7                 ;528
000bf4  f7fffffe          BL       TEXT_SetFont
000bf8  f7fffffe          BL       GUI_UC_SetEncodeUTF8
000bfc  4669              MOV      r1,sp                 ;530
000bfe  4638              MOV      r0,r7                 ;530
000c00  f7fffffe          BL       TEXT_SetText
000c04  f6400187          MOV      r1,#0x887             ;532
000c08  6860              LDR      r0,[r4,#4]            ;532
000c0a  f7fffffe          BL       WM_GetDialogItem
000c0e  7872              LDRB     r2,[r6,#1]            ;533  ; second
000c10  4607              MOV      r7,r0                 ;532
000c12  a168              ADR      r1,|L9.3508|
000c14  4668              MOV      r0,sp                 ;533
000c16  f7fffffe          BL       __2sprintf
000c1a  f06f417f          MVN      r1,#0xff000000        ;534
000c1e  4638              MOV      r0,r7                 ;534
000c20  e001              B        |L9.3110|
                  |L9.3106|
000c22  e205              B        |L9.4144|
                  |L9.3108|
000c24  e0b1              B        |L9.3466|
                  |L9.3110|
000c26  f7fffffe          BL       TEXT_SetTextColor
000c2a  4964              LDR      r1,|L9.3516|
000c2c  4638              MOV      r0,r7                 ;535
000c2e  f7fffffe          BL       TEXT_SetFont
000c32  f7fffffe          BL       GUI_UC_SetEncodeUTF8
000c36  4669              MOV      r1,sp                 ;537
000c38  4638              MOV      r0,r7                 ;537
000c3a  f7fffffe          BL       TEXT_SetText
000c3e  f6400188          MOV      r1,#0x888             ;539
000c42  6860              LDR      r0,[r4,#4]            ;539
000c44  f7fffffe          BL       WM_GetDialogItem
000c48  4607              MOV      r7,r0                 ;539
000c4a  f06f417f          MVN      r1,#0xff000000        ;540
000c4e  f7fffffe          BL       TEXT_SetTextColor
000c52  495a              LDR      r1,|L9.3516|
000c54  4638              MOV      r0,r7                 ;541
000c56  f7fffffe          BL       TEXT_SetFont
000c5a  f7fffffe          BL       GUI_UC_SetEncodeUTF8
000c5e  a158              ADR      r1,|L9.3520|
000c60  4638              MOV      r0,r7                 ;543
000c62  f7fffffe          BL       TEXT_SetText
000c66  f6400189          MOV      r1,#0x889             ;545
000c6a  6860              LDR      r0,[r4,#4]            ;545
000c6c  f7fffffe          BL       WM_GetDialogItem
000c70  4607              MOV      r7,r0                 ;545
000c72  f06f417f          MVN      r1,#0xff000000        ;546
000c76  f7fffffe          BL       TEXT_SetTextColor
000c7a  4950              LDR      r1,|L9.3516|
000c7c  4638              MOV      r0,r7                 ;547
000c7e  f7fffffe          BL       TEXT_SetFont
000c82  f7fffffe          BL       GUI_UC_SetEncodeUTF8
000c86  a14e              ADR      r1,|L9.3520|
000c88  4638              MOV      r0,r7                 ;549
000c8a  f7fffffe          BL       TEXT_SetText
000c8e  f640017f          MOV      r1,#0x87f             ;554
000c92  6860              LDR      r0,[r4,#4]            ;554
000c94  f7fffffe          BL       WM_GetDialogItem
000c98  4607              MOV      r7,r0                 ;554
000c9a  484a              LDR      r0,|L9.3524|
000c9c  6800              LDR      r0,[r0,#0]            ;555  ; DISS_Voltage
000c9e  f7fffffe          BL       __aeabi_f2d
000ca2  ec410b10          VMOV     d0,r0,r1              ;555
000ca6  ec532b10          VMOV     r2,r3,d0              ;555
000caa  f6af0124          ADR      r1,|L9.1160|
000cae  4668              MOV      r0,sp                 ;555
000cb0  f7fffffe          BL       __2sprintf
000cb4  4669              MOV      r1,sp                 ;556
000cb6  4638              MOV      r0,r7                 ;556
000cb8  f7fffffe          BL       TEXT_SetText
000cbc  f44f6108          MOV      r1,#0x880             ;558
000cc0  6860              LDR      r0,[r4,#4]            ;558
000cc2  f7fffffe          BL       WM_GetDialogItem
000cc6  4607              MOV      r7,r0                 ;558
000cc8  483f              LDR      r0,|L9.3528|
000cca  6800              LDR      r0,[r0,#0]            ;559  ; DISS_Current
000ccc  f7fffffe          BL       __aeabi_f2d
000cd0  ec410b10          VMOV     d0,r0,r1              ;559
000cd4  ec532b10          VMOV     r2,r3,d0              ;559
000cd8  f6af0154          ADR      r1,|L9.1160|
000cdc  4668              MOV      r0,sp                 ;559
000cde  f7fffffe          BL       __2sprintf
000ce2  4669              MOV      r1,sp                 ;560
000ce4  4638              MOV      r0,r7                 ;560
000ce6  f7fffffe          BL       TEXT_SetText
000cea  78b0              LDRB     r0,[r6,#2]            ;562  ; minute
000cec  7871              LDRB     r1,[r6,#1]            ;562  ; second
000cee  ebc01000          RSB      r0,r0,r0,LSL #4       ;562
000cf2  eb010180          ADD      r1,r1,r0,LSL #2       ;562
000cf6  78f0              LDRB     r0,[r6,#3]            ;562  ; hour
000cf8  ed9f9a34          VLDR     s18,|L9.3532|
000cfc  ebc01240          RSB      r2,r0,r0,LSL #5       ;562
000d00  ebc22000          RSB      r0,r2,r0,LSL #8       ;562
000d04  eb011000          ADD      r0,r1,r0,LSL #4       ;562
000d08  ee000a10          VMOV     s0,r0                 ;562
000d0c  4f30              LDR      r7,|L9.3536|
000d0e  eef80a40          VCVT.F32.U32 s1,s0                 ;562
000d12  ee800a89          VDIV.F32 s0,s1,s18             ;562
000d16  ee200a08          VMUL.F32 s0,s0,s16             ;562
000d1a  ee200a0c          VMUL.F32 s0,s0,s24             ;562
000d1e  eebd0ac0          VCVT.S32.F32 s0,s0                 ;562
000d22  ee100a10          VMOV     r0,s0                 ;562
000d26  8038              STRH     r0,[r7,#0]            ;562
000d28  f6400181          MOV      r1,#0x881             ;563
000d2c  6860              LDR      r0,[r4,#4]            ;563
000d2e  f7fffffe          BL       WM_GetDialogItem
000d32  883a              LDRH     r2,[r7,#0]            ;564  ; battery_c
000d34  4680              MOV      r8,r0                 ;563
000d36  a127              ADR      r1,|L9.3540|
000d38  4668              MOV      r0,sp                 ;564
000d3a  f7fffffe          BL       __2sprintf
000d3e  4669              MOV      r1,sp                 ;565
000d40  4640              MOV      r0,r8                 ;565
000d42  f7fffffe          BL       TEXT_SetText
000d46  f6400182          MOV      r1,#0x882             ;567
000d4a  6860              LDR      r0,[r4,#4]            ;567
000d4c  f7fffffe          BL       WM_GetDialogItem
000d50  f06f417f          MVN      r1,#0xff000000        ;568
000d54  f7fffffe          BL       TEXT_SetTextColor
000d58  f6400183          MOV      r1,#0x883             ;570
000d5c  6860              LDR      r0,[r4,#4]            ;570
000d5e  f7fffffe          BL       WM_GetDialogItem
000d62  21ff              MOVS     r1,#0xff              ;571
000d64  f7fffffe          BL       TEXT_SetTextColor
000d68  7a30              LDRB     r0,[r6,#8]            ;573  ; status_flash
000d6a  f6400184          MOV      r1,#0x884             ;581
000d6e  2800              CMP      r0,#0                 ;573
000d70  6860              LDR      r0,[r4,#4]            ;573
000d72  d045              BEQ      |L9.3584|
000d74  f7fffffe          BL       WM_GetDialogItem
000d78  a10f              ADR      r1,|L9.3512|
000d7a  f7fffffe          BL       TEXT_SetText
000d7e  4650              MOV      r0,r10                ;583
                  |L9.3456|
000d80  7230              STRB     r0,[r6,#8]            ;583
000d82  7a70              LDRB     r0,[r6,#9]            ;585  ; pause_flag
000d84  2801              CMP      r0,#1                 ;585
000d86  d04d              BEQ      |L9.3620|
000d88  e063              B        |L9.3666|
                  |L9.3466|
000d8a  f7fffffe          BL       GUI_GetTime
000d8e  fb90f1f5          SDIV     r1,r0,r5              ;508
000d92  f8db0074          LDR      r0,[r11,#0x74]        ;508  ; Run_Control
000d96  1a08              SUBS     r0,r1,r0              ;508
000d98  fbb0f1f7          UDIV     r1,r0,r7              ;508
000d9c  fb070011          MLS      r0,r7,r1,r0           ;508
000da0  7070              STRB     r0,[r6,#1]            ;508
000da2  f7fffffe          BL       GUI_GetTime
000da6  fb90f1f5          SDIV     r1,r0,r5              ;509
000daa  f8db0074          LDR      r0,[r11,#0x74]        ;509  ; Run_Control
000dae  e015              B        |L9.3548|
                  |L9.3504|
                          DCD      ||.bss||
                  |L9.3508|
000db4  25303264          DCB      "%02d"
                  |L9.3512|
000db8  00                DCB      0
000db9  00                DCB      0
000dba  00                DCB      0
000dbb  00                DCB      0
                  |L9.3516|
                          DCD      GUI_Font24_1
                  |L9.3520|
000dc0  3a00              DCB      ":",0
000dc2  00                DCB      0
000dc3  00                DCB      0
                  |L9.3524|
                          DCD      DISS_Voltage
                  |L9.3528|
                          DCD      DISS_Current
                  |L9.3532|
000dcc  45610000          DCFS     0x45610000 ; 3600
                  |L9.3536|
                          DCD      battery_c
                  |L9.3540|
000dd4  25303564          DCB      "%05d",0
000dd8  00      
000dd9  00                DCB      0
000dda  00                DCB      0
000ddb  00                DCB      0
                  |L9.3548|
000ddc  1a08              SUBS     r0,r1,r0              ;509
000dde  fbb0f0f7          UDIV     r0,r0,r7              ;509
000de2  fbb0f1f7          UDIV     r1,r0,r7              ;509
000de6  fb070011          MLS      r0,r7,r1,r0           ;509
000dea  70b0              STRB     r0,[r6,#2]            ;509
000dec  f7fffffe          BL       GUI_GetTime
000df0  fb90f1f5          SDIV     r1,r0,r5              ;510
000df4  f8db0074          LDR      r0,[r11,#0x74]        ;510  ; Run_Control
000df8  1a09              SUBS     r1,r1,r0              ;510
000dfa  fbb1f0f8          UDIV     r0,r1,r8              ;510
000dfe  e6cc              B        |L9.2970|
                  |L9.3584|
000e00  f7fffffe          BL       WM_GetDialogItem
000e04  4607              MOV      r7,r0                 ;574
000e06  21ff              MOVS     r1,#0xff              ;575
000e08  f7fffffe          BL       TEXT_SetTextColor
000e0c  49fe              LDR      r1,|L9.4616|
000e0e  4638              MOV      r0,r7                 ;576
000e10  f7fffffe          BL       TEXT_SetFont
000e14  f7fffffe          BL       GUI_UC_SetEncodeUTF8
000e18  a1fc              ADR      r1,|L9.4620|
000e1a  4638              MOV      r0,r7                 ;578
000e1c  f7fffffe          BL       TEXT_SetText
000e20  4648              MOV      r0,r9                 ;579
000e22  e7ad              B        |L9.3456|
                  |L9.3620|
000e24  f44f4100          MOV      r1,#0x8000            ;587
000e28  48fb              LDR      r0,|L9.4632|
000e2a  f7fffffe          BL       GPIO_SetBits
000e2e  f886a005          STRB     r10,[r6,#5]           ;588
000e32  f886900a          STRB     r9,[r6,#0xa]          ;589
000e36  78b0              LDRB     r0,[r6,#2]            ;591  ; minute
000e38  7871              LDRB     r1,[r6,#1]            ;591  ; second
000e3a  ebc01000          RSB      r0,r0,r0,LSL #4       ;591
000e3e  eb010180          ADD      r1,r1,r0,LSL #2       ;591
000e42  78f0              LDRB     r0,[r6,#3]            ;591  ; hour
000e44  ebc01240          RSB      r2,r0,r0,LSL #5       ;591
000e48  ebc22000          RSB      r0,r2,r0,LSL #8       ;591
000e4c  eb011000          ADD      r0,r1,r0,LSL #4       ;591
000e50  8270              STRH     r0,[r6,#0x12]         ;591
                  |L9.3666|
000e52  4ff2              LDR      r7,|L9.4636|
000e54  ed970a00          VLDR     s0,[r7,#0]            ;594
000e58  eeb40ae8          VCMPE.F32 s0,s17                ;594
000e5c  eef1fa10          VMRS     APSR_nzcv,FPSCR       ;594
000e60  d208              BCS      |L9.3700|
000e62  7930              LDRB     r0,[r6,#4]            ;594  ; cutoff_flag
000e64  b930              CBNZ     r0,|L9.3700|
000e66  f7fffffe          BL       GUI_GetTime
000e6a  fb90f0f5          SDIV     r0,r0,r5              ;596
000e6e  8230              STRH     r0,[r6,#0x10]         ;596
000e70  f8869004          STRB     r9,[r6,#4]            ;597
                  |L9.3700|
000e74  ed970a00          VLDR     s0,[r7,#0]            ;600
000e78  eeb40ae8          VCMPE.F32 s0,s17                ;600
000e7c  eef1fa10          VMRS     APSR_nzcv,FPSCR       ;600
000e80  d27e              BCS      |L9.3968|
000e82  f7fffffe          BL       GUI_GetTime
000e86  fb90f0f5          SDIV     r0,r0,r5              ;600
000e8a  8a31              LDRH     r1,[r6,#0x10]         ;600  ; cutoff_time
000e8c  1a40              SUBS     r0,r0,r1              ;600
000e8e  280a              CMP      r0,#0xa               ;600
000e90  db76              BLT      |L9.3968|
000e92  4fe3              LDR      r7,|L9.4640|
000e94  7838              LDRB     r0,[r7,#0]            ;602  ; mode_sw
000e96  2802              CMP      r0,#2                 ;602
000e98  d108              BNE      |L9.3756|
000e9a  f7fffffe          BL       GUI_GetTime
000e9e  fb90f1f5          SDIV     r1,r0,r5              ;603
000ea2  f8cb1078          STR      r1,[r11,#0x78]        ;603  ; Run_Control
000ea6  79f0              LDRB     r0,[r6,#7]            ;604  ; count
000ea8  1c40              ADDS     r0,r0,#1              ;604
000eaa  71f0              STRB     r0,[r6,#7]            ;604
                  |L9.3756|
000eac  4dda              LDR      r5,|L9.4632|
000eae  f44f4800          MOV      r8,#0x8000            ;608
000eb2  4641              MOV      r1,r8                 ;608
000eb4  4628              MOV      r0,r5                 ;608
000eb6  f7fffffe          BL       GPIO_SetBits
000eba  79f0              LDRB     r0,[r6,#7]            ;609  ; count
000ebc  7831              LDRB     r1,[r6,#0]            ;609  ; set_loop_count
000ebe  4288              CMP      r0,r1                 ;609
000ec0  d97c              BLS      |L9.4028|
000ec2  f886a005          STRB     r10,[r6,#5]           ;610
000ec6  f8db1078          LDR      r1,[r11,#0x78]        ;611  ; Run_Control
000eca  f8db0074          LDR      r0,[r11,#0x74]        ;611  ; Run_Control
000ece  1a08              SUBS     r0,r1,r0              ;611
000ed0  ee000a10          VMOV     s0,r0                 ;611
000ed4  79b1              LDRB     r1,[r6,#6]            ;611  ; c_sum
000ed6  eeb80a40          VCVT.F32.U32 s0,s0                 ;611
000eda  eec00a09          VDIV.F32 s1,s0,s18             ;611
000ede  ee200a88          VMUL.F32 s0,s1,s16             ;611
000ee2  ee200a0c          VMUL.F32 s0,s0,s24             ;611
000ee6  eebd0ac0          VCVT.S32.F32 s0,s0                 ;611
000eea  ee100a10          VMOV     r0,s0                 ;611
000eee  4401              ADD      r1,r1,r0              ;611
000ef0  7830              LDRB     r0,[r6,#0]            ;611  ; set_loop_count
000ef2  4fcc              LDR      r7,|L9.4644|
000ef4  fb91f0f0          SDIV     r0,r1,r0              ;611
000ef8  8038              STRH     r0,[r7,#0]            ;611
000efa  f8869007          STRB     r9,[r6,#7]            ;612
000efe  f6400181          MOV      r1,#0x881             ;614
000f02  6860              LDR      r0,[r4,#4]            ;614
000f04  f7fffffe          BL       WM_GetDialogItem
000f08  883a              LDRH     r2,[r7,#0]            ;615  ; battery_c
000f0a  4605              MOV      r5,r0                 ;614
000f0c  f2af113c          ADR      r1,|L9.3540|
000f10  4668              MOV      r0,sp                 ;615
000f12  f7fffffe          BL       __2sprintf
000f16  4669              MOV      r1,sp                 ;616
000f18  4628              MOV      r0,r5                 ;616
000f1a  f7fffffe          BL       TEXT_SetText
000f1e  f6400184          MOV      r1,#0x884             ;618
000f22  6860              LDR      r0,[r4,#4]            ;618
000f24  f7fffffe          BL       WM_GetDialogItem
000f28  f2af1174          ADR      r1,|L9.3512|
000f2c  f7fffffe          BL       TEXT_SetText
000f30  f6400185          MOV      r1,#0x885             ;621
000f34  6860              LDR      r0,[r4,#4]            ;621
000f36  f7fffffe          BL       WM_GetDialogItem
000f3a  f2af1184          ADR      r1,|L9.3512|
000f3e  f7fffffe          BL       TEXT_SetText
000f42  f6400186          MOV      r1,#0x886             ;624
000f46  6860              LDR      r0,[r4,#4]            ;624
000f48  f7fffffe          BL       WM_GetDialogItem
000f4c  f2af1198          ADR      r1,|L9.3512|
000f50  f7fffffe          BL       TEXT_SetText
000f54  f6400187          MOV      r1,#0x887             ;627
000f58  6860              LDR      r0,[r4,#4]            ;627
000f5a  f7fffffe          BL       WM_GetDialogItem
000f5e  f2af11a8          ADR      r1,|L9.3512|
000f62  f7fffffe          BL       TEXT_SetText
000f66  f6400188          MOV      r1,#0x888             ;630
000f6a  6860              LDR      r0,[r4,#4]            ;630
000f6c  f7fffffe          BL       WM_GetDialogItem
000f70  f2af11bc          ADR      r1,|L9.3512|
000f74  f7fffffe          BL       TEXT_SetText
000f78  f6400189          MOV      r1,#0x889             ;633
000f7c  6860              LDR      r0,[r4,#4]            ;633
000f7e  e000              B        |L9.3970|
                  |L9.3968|
000f80  e0ba              B        |L9.4344|
                  |L9.3970|
000f82  f7fffffe          BL       WM_GetDialogItem
000f86  f2af11d0          ADR      r1,|L9.3512|
000f8a  f7fffffe          BL       TEXT_SetText
000f8e  f640018a          MOV      r1,#0x88a             ;636
000f92  6860              LDR      r0,[r4,#4]            ;636
000f94  f7fffffe          BL       WM_GetDialogItem
000f98  f2af11e4          ADR      r1,|L9.3512|
000f9c  f7fffffe          BL       TEXT_SetText
000fa0  f640018b          MOV      r1,#0x88b             ;639
000fa4  6860              LDR      r0,[r4,#4]            ;639
000fa6  f7fffffe          BL       WM_GetDialogItem
000faa  f2af11f4          ADR      r1,|L9.3512|
000fae  f7fffffe          BL       TEXT_SetText
000fb2  f640018c          MOV      r1,#0x88c             ;642
000fb6  6860              LDR      r0,[r4,#4]            ;643
000fb8  e0a2              B        |L9.4352|
000fba  e7ff              B        |L9.4028|
                  |L9.4028|
000fbc  f8db1078          LDR      r1,[r11,#0x78]        ;646  ; Run_Control
000fc0  f8db0074          LDR      r0,[r11,#0x74]        ;646  ; Run_Control
000fc4  1a08              SUBS     r0,r1,r0              ;646
000fc6  ee000a10          VMOV     s0,r0                 ;646
000fca  79b1              LDRB     r1,[r6,#6]            ;646  ; c_sum
000fcc  eeb80a40          VCVT.F32.U32 s0,s0                 ;646
000fd0  eec00a09          VDIV.F32 s1,s0,s18             ;646
000fd4  ee200a88          VMUL.F32 s0,s1,s16             ;646
000fd8  ee200a0c          VMUL.F32 s0,s0,s24             ;646
000fdc  eebd0ac0          VCVT.S32.F32 s0,s0                 ;646
000fe0  ee100a10          VMOV     r0,s0                 ;646
000fe4  4408              ADD      r0,r0,r1              ;646
000fe6  71b0              STRB     r0,[r6,#6]            ;646
000fe8  4641              MOV      r1,r8                 ;648
000fea  4628              MOV      r0,r5                 ;648
000fec  f7fffffe          BL       GPIO_SetBits
000ff0  f6400181          MOV      r1,#0x881             ;649
000ff4  6860              LDR      r0,[r4,#4]            ;649
000ff6  f7fffffe          BL       WM_GetDialogItem
000ffa  4605              MOV      r5,r0                 ;649
000ffc  4889              LDR      r0,|L9.4644|
000ffe  8802              LDRH     r2,[r0,#0]            ;650  ; battery_c
001000  f2af2130          ADR      r1,|L9.3540|
001004  4668              MOV      r0,sp                 ;650
001006  f7fffffe          BL       __2sprintf
00100a  4669              MOV      r1,sp                 ;651
00100c  4628              MOV      r0,r5                 ;651
00100e  f7fffffe          BL       TEXT_SetText
001012  4d85              LDR      r5,|L9.4648|
001014  f44f5100          MOV      r1,#0x2000            ;652
001018  4628              MOV      r0,r5                 ;652
00101a  f7fffffe          BL       GPIO_ResetBits
00101e  2102              MOVS     r1,#2                 ;653
001020  4628              MOV      r0,r5                 ;653
001022  f7fffffe          BL       GPIO_SetBits
001026  2003              MOVS     r0,#3                 ;655
001028  7038              STRB     r0,[r7,#0]            ;655
00102a  f886a004          STRB     r10,[r6,#4]           ;656
00102e  e06d              B        |L9.4364|
                  |L9.4144|
001030  487c              LDR      r0,|L9.4644|
001032  8800              LDRH     r0,[r0,#0]            ;659  ; battery_c
001034  b300              CBZ      r0,|L9.4216|
001036  f640017f          MOV      r1,#0x87f             ;660
00103a  6860              LDR      r0,[r4,#4]            ;660
00103c  f7fffffe          BL       WM_GetDialogItem
001040  ec532b1b          VMOV     r2,r3,d11             ;661
001044  4605              MOV      r5,r0                 ;660
001046  f6af31cc          ADR      r1,|L9.1148|
00104a  4668              MOV      r0,sp                 ;661
00104c  f7fffffe          BL       __2sprintf
001050  4669              MOV      r1,sp                 ;662
001052  4628              MOV      r0,r5                 ;662
001054  f7fffffe          BL       TEXT_SetText
001058  f44f6108          MOV      r1,#0x880             ;664
00105c  6860              LDR      r0,[r4,#4]            ;664
00105e  f7fffffe          BL       WM_GetDialogItem
001062  ec532b1b          VMOV     r2,r3,d11             ;665
001066  4605              MOV      r5,r0                 ;664
001068  f6af31e4          ADR      r1,|L9.1160|
00106c  4668              MOV      r0,sp                 ;665
00106e  f7fffffe          BL       __2sprintf
001072  4669              MOV      r1,sp                 ;666
001074  4628              MOV      r0,r5                 ;666
001076  e02a              B        |L9.4302|
                  |L9.4216|
001078  7970              LDRB     r0,[r6,#5]            ;677  ; cdc_sw
00107a  bbe8              CBNZ     r0,|L9.4344|
00107c  f640017f          MOV      r1,#0x87f             ;678
001080  6860              LDR      r0,[r4,#4]            ;678
001082  f7fffffe          BL       WM_GetDialogItem
001086  ec532b1b          VMOV     r2,r3,d11             ;679
00108a  4605              MOV      r5,r0                 ;678
00108c  f6af4114          ADR      r1,|L9.1148|
001090  4668              MOV      r0,sp                 ;679
001092  f7fffffe          BL       __2sprintf
001096  4669              MOV      r1,sp                 ;680
001098  4628              MOV      r0,r5                 ;680
00109a  f7fffffe          BL       TEXT_SetText
00109e  f44f6108          MOV      r1,#0x880             ;682
0010a2  6860              LDR      r0,[r4,#4]            ;682
0010a4  f7fffffe          BL       WM_GetDialogItem
0010a8  ec532b1b          VMOV     r2,r3,d11             ;683
0010ac  4605              MOV      r5,r0                 ;682
0010ae  f6af4128          ADR      r1,|L9.1160|
0010b2  4668              MOV      r0,sp                 ;683
0010b4  f7fffffe          BL       __2sprintf
0010b8  4669              MOV      r1,sp                 ;684
0010ba  4628              MOV      r0,r5                 ;684
0010bc  f7fffffe          BL       TEXT_SetText
0010c0  f6401113          MOV      r1,#0x913             ;686
0010c4  6860              LDR      r0,[r4,#4]            ;686
0010c6  f7fffffe          BL       WM_GetDialogItem
0010ca  f2af3114          ADR      r1,|L9.3512|
                  |L9.4302|
0010ce  f7fffffe          BL       TEXT_SetText
0010d2  f6400182          MOV      r1,#0x882             ;689
0010d6  6860              LDR      r0,[r4,#4]            ;689
0010d8  f7fffffe          BL       WM_GetDialogItem
0010dc  f06f457f          MVN      r5,#0xff000000        ;690
0010e0  4629              MOV      r1,r5                 ;690
0010e2  f7fffffe          BL       TEXT_SetTextColor
0010e6  f6400183          MOV      r1,#0x883             ;692
0010ea  6860              LDR      r0,[r4,#4]            ;692
0010ec  f7fffffe          BL       WM_GetDialogItem
0010f0  4629              MOV      r1,r5                 ;693
0010f2  f7fffffe          BL       TEXT_SetTextColor
0010f6  e000              B        |L9.4346|
                  |L9.4344|
0010f8  e008              B        |L9.4364|
                  |L9.4346|
0010fa  f6400184          MOV      r1,#0x884             ;695
0010fe  6860              LDR      r0,[r4,#4]            ;695
                  |L9.4352|
001100  f7fffffe          BL       WM_GetDialogItem
001104  f2af3150          ADR      r1,|L9.3512|
001108  f7fffffe          BL       TEXT_SetText
                  |L9.4364|
00110c  f6401114          MOV      r1,#0x914             ;698
001110  6860              LDR      r0,[r4,#4]            ;698
001112  f7fffffe          BL       WM_GetDialogItem
001116  4605              MOV      r5,r0                 ;698
001118  4844              LDR      r0,|L9.4652|
00111a  6800              LDR      r0,[r0,#0]            ;699  ; temp
00111c  f7fffffe          BL       __aeabi_f2d
001120  ec410b10          VMOV     d0,r0,r1              ;699
001124  a142              ADR      r1,|L9.4656|
001126  ec532b10          VMOV     r2,r3,d0              ;699
00112a  4668              MOV      r0,sp                 ;699
00112c  f7fffffe          BL       __2sprintf
001130  4669              MOV      r1,sp                 ;700
001132  4628              MOV      r0,r5                 ;700
001134  f7fffffe          BL       TEXT_SetText
001138  e000              B        |L9.4412|
                  |L9.4410|
00113a  e009              B        |L9.4432|
                  |L9.4412|
00113c  f24011f1          MOV      r1,#0x1f1             ;702
001140  68e0              LDR      r0,[r4,#0xc]          ;702
001142  f7fffffe          BL       WM_RestartTimer
                  |L9.4422|
001146  b003              ADD      sp,sp,#0xc
001148  ecbd8b0a          VPOP     {d8-d12}
00114c  e8bd8ff0          POP      {r4-r11,pc}
                  |L9.4432|
001150  6867              LDR      r7,[r4,#4]            ;713
001152  2100              MOVS     r1,#0                 ;713
001154  4638              MOV      r0,r7                 ;713
001156  f7fffffe          BL       WINDOW_SetBkColor
00115a  2300              MOVS     r3,#0                 ;714
00115c  462a              MOV      r2,r5                 ;714
00115e  2105              MOVS     r1,#5                 ;714
001160  4638              MOV      r0,r7                 ;714
001162  f7fffffe          BL       WM_CreateTimer
001166  f640012c          MOV      r1,#0x82c             ;717
00116a  6860              LDR      r0,[r4,#4]            ;717
00116c  f7fffffe          BL       WM_GetDialogItem
001170  4605              MOV      r5,r0                 ;717
001172  4925              LDR      r1,|L9.4616|
001174  f7fffffe          BL       BUTTON_SetFont
001178  f7fffffe          BL       GUI_UC_SetEncodeUTF8
00117c  a12e              ADR      r1,|L9.4664|
00117e  4628              MOV      r0,r5                 ;721
001180  f7fffffe          BL       BUTTON_SetText
001184  f640012d          MOV      r1,#0x82d             ;723
001188  6860              LDR      r0,[r4,#4]            ;723
00118a  f7fffffe          BL       WM_GetDialogItem
00118e  4605              MOV      r5,r0                 ;723
001190  491d              LDR      r1,|L9.4616|
001192  f7fffffe          BL       BUTTON_SetFont
001196  f7fffffe          BL       GUI_UC_SetEncodeUTF8
00119a  a12b              ADR      r1,|L9.4680|
00119c  4628              MOV      r0,r5                 ;727
00119e  f7fffffe          BL       BUTTON_SetText
0011a2  f640012e          MOV      r1,#0x82e             ;729
0011a6  6860              LDR      r0,[r4,#4]            ;729
0011a8  f7fffffe          BL       WM_GetDialogItem
0011ac  4605              MOV      r5,r0                 ;729
0011ae  4916              LDR      r1,|L9.4616|
0011b0  f7fffffe          BL       BUTTON_SetFont
0011b4  f7fffffe          BL       GUI_UC_SetEncodeUTF8
0011b8  a127              ADR      r1,|L9.4696|
0011ba  4628              MOV      r0,r5                 ;733
0011bc  f7fffffe          BL       BUTTON_SetText
0011c0  f640012f          MOV      r1,#0x82f             ;735
0011c4  6860              LDR      r0,[r4,#4]            ;735
0011c6  f7fffffe          BL       WM_GetDialogItem
0011ca  4605              MOV      r5,r0                 ;735
0011cc  2101              MOVS     r1,#1                 ;736
0011ce  f7fffffe          BL       BUTTON_SetPressed
0011d2  490d              LDR      r1,|L9.4616|
0011d4  4628              MOV      r0,r5                 ;738
0011d6  f7fffffe          BL       BUTTON_SetFont
0011da  f7fffffe          BL       GUI_UC_SetEncodeUTF8
0011de  a122              ADR      r1,|L9.4712|
0011e0  4628              MOV      r0,r5                 ;740
0011e2  f7fffffe          BL       BUTTON_SetText
0011e6  f44f6103          MOV      r1,#0x830             ;742
0011ea  6860              LDR      r0,[r4,#4]            ;742
0011ec  f7fffffe          BL       WM_GetDialogItem
0011f0  4605              MOV      r5,r0                 ;742
0011f2  4905              LDR      r1,|L9.4616|
0011f4  f7fffffe          BL       BUTTON_SetFont
0011f8  f7fffffe          BL       GUI_UC_SetEncodeUTF8
0011fc  a11d              ADR      r1,|L9.4724|
0011fe  4628              MOV      r0,r5                 ;746
001200  f7fffffe          BL       BUTTON_SetText
001204  e03a              B        |L9.4732|
001206  0000              DCW      0x0000
                  |L9.4616|
                          DCD      GUI_FontHZ16
                  |L9.4620|
00120c  e694bee7          DCB      230,148,190,231,148,181,228,184,173,0
001210  94b5e4b8
001214  ad00    
001216  00                DCB      0
001217  00                DCB      0
                  |L9.4632|
                          DCD      0x40020000
                  |L9.4636|
                          DCD      DISS_Voltage
                  |L9.4640|
                          DCD      mode_sw
                  |L9.4644|
                          DCD      battery_c
                  |L9.4648|
                          DCD      0x40020800
                  |L9.4652|
                          DCD      temp
                  |L9.4656|
001230  252e3166          DCB      "%.1f",0
001234  00      
001235  00                DCB      0
001236  00                DCB      0
001237  00                DCB      0
                  |L9.4664|
001238  e58685e9          DCB      229,134,133,233,152,187,230,181,139,232,175,149,0
00123c  98bbe6b5
001240  8be8af95
001244  00      
001245  00                DCB      0
001246  00                DCB      0
001247  00                DCB      0
                  |L9.4680|
001248  e7a88be6          DCB      231,168,139,230,142,167,232,180,159,232,189,189,0
00124c  8ea7e8b4
001250  9fe8bdbd
001254  00      
001255  00                DCB      0
001256  00                DCB      0
001257  00                DCB      0
                  |L9.4696|
001258  e7a88be6          DCB      231,168,139,230,142,167,231,148,181,230,186,144,0
00125c  8ea7e794
001260  b5e6ba90
001264  00      
001265  00                DCB      0
001266  00                DCB      0
001267  00                DCB      0
                  |L9.4712|
001268  e58585e6          DCB      229,133,133,230,148,190,231,148,181,0
00126c  94bee794
001270  b500    
001272  00                DCB      0
001273  00                DCB      0
                  |L9.4724|
001274  e69bb2e7          DCB      230,155,178,231,186,191,0
001278  babf00  
00127b  00                DCB      0
                  |L9.4732|
00127c  f6400131          MOV      r1,#0x831             ;748
001280  6860              LDR      r0,[r4,#4]            ;748
001282  f7fffffe          BL       WM_GetDialogItem
001286  4607              MOV      r7,r0                 ;748
001288  4645              MOV      r5,r8                 ;749
00128a  4641              MOV      r1,r8                 ;749
00128c  f7fffffe          BL       TEXT_SetTextColor
001290  49fe              LDR      r1,|L9.5772|
001292  4638              MOV      r0,r7                 ;750
001294  f7fffffe          BL       TEXT_SetFont
001298  f7fffffe          BL       GUI_UC_SetEncodeUTF8
00129c  a1fc              ADR      r1,|L9.5776|
00129e  4638              MOV      r0,r7                 ;752
0012a0  f7fffffe          BL       TEXT_SetText
0012a4  f6400132          MOV      r1,#0x832             ;754
0012a8  6860              LDR      r0,[r4,#4]            ;754
0012aa  f7fffffe          BL       WM_GetDialogItem
0012ae  4607              MOV      r7,r0                 ;754
0012b0  4629              MOV      r1,r5                 ;755
0012b2  f7fffffe          BL       TEXT_SetTextColor
0012b6  49f5              LDR      r1,|L9.5772|
0012b8  4638              MOV      r0,r7                 ;756
0012ba  f7fffffe          BL       TEXT_SetFont
0012be  f7fffffe          BL       GUI_UC_SetEncodeUTF8
0012c2  a1f4              ADR      r1,|L9.5780|
0012c4  4638              MOV      r0,r7                 ;758
0012c6  f7fffffe          BL       TEXT_SetText
0012ca  f6400133          MOV      r1,#0x833             ;760
0012ce  6860              LDR      r0,[r4,#4]            ;760
0012d0  f7fffffe          BL       WM_GetDialogItem
0012d4  4607              MOV      r7,r0                 ;760
0012d6  4629              MOV      r1,r5                 ;761
0012d8  f7fffffe          BL       TEXT_SetTextColor
0012dc  49eb              LDR      r1,|L9.5772|
0012de  4638              MOV      r0,r7                 ;762
0012e0  f7fffffe          BL       TEXT_SetFont
0012e4  f7fffffe          BL       GUI_UC_SetEncodeUTF8
0012e8  a1eb              ADR      r1,|L9.5784|
0012ea  4638              MOV      r0,r7                 ;764
0012ec  f7fffffe          BL       TEXT_SetText
0012f0  f6400134          MOV      r1,#0x834             ;766
0012f4  6860              LDR      r0,[r4,#4]            ;766
0012f6  f7fffffe          BL       WM_GetDialogItem
0012fa  4607              MOV      r7,r0                 ;766
0012fc  4629              MOV      r1,r5                 ;767
0012fe  f7fffffe          BL       TEXT_SetTextColor
001302  49e2              LDR      r1,|L9.5772|
001304  4638              MOV      r0,r7                 ;768
001306  f7fffffe          BL       TEXT_SetFont
00130a  f7fffffe          BL       GUI_UC_SetEncodeUTF8
00130e  a1e3              ADR      r1,|L9.5788|
001310  4638              MOV      r0,r7                 ;770
001312  f7fffffe          BL       TEXT_SetText
001316  f640016f          MOV      r1,#0x86f             ;772
00131a  6860              LDR      r0,[r4,#4]            ;772
00131c  f7fffffe          BL       WM_GetDialogItem
001320  4605              MOV      r5,r0                 ;772
001322  2100              MOVS     r1,#0                 ;773
001324  f7fffffe          BL       TEXT_SetTextColor
001328  49dd              LDR      r1,|L9.5792|
00132a  4628              MOV      r0,r5                 ;774
00132c  f7fffffe          BL       TEXT_SetBkColor
001330  49dc              LDR      r1,|L9.5796|
001332  4628              MOV      r0,r5                 ;775
001334  f7fffffe          BL       TEXT_SetFont
001338  f7fffffe          BL       GUI_UC_SetEncodeUTF8
00133c  a1da              ADR      r1,|L9.5800|
00133e  4628              MOV      r0,r5                 ;777
001340  f7fffffe          BL       TEXT_SetText
001344  f44f6107          MOV      r1,#0x870             ;779
001348  6860              LDR      r0,[r4,#4]            ;779
00134a  f7fffffe          BL       WM_GetDialogItem
00134e  f06f457f          MVN      r5,#0xff000000        ;780
001352  4607              MOV      r7,r0                 ;779
001354  4629              MOV      r1,r5                 ;780
001356  f7fffffe          BL       TEXT_SetTextColor
00135a  49d2              LDR      r1,|L9.5796|
00135c  4638              MOV      r0,r7                 ;781
00135e  f7fffffe          BL       TEXT_SetFont
001362  f7fffffe          BL       GUI_UC_SetEncodeUTF8
001366  a1d4              ADR      r1,|L9.5816|
001368  4638              MOV      r0,r7                 ;783
00136a  f7fffffe          BL       TEXT_SetText
00136e  f6400177          MOV      r1,#0x877             ;785
001372  6860              LDR      r0,[r4,#4]            ;785
001374  f7fffffe          BL       WM_GetDialogItem
001378  4607              MOV      r7,r0                 ;785
00137a  4629              MOV      r1,r5                 ;786
00137c  f7fffffe          BL       TEXT_SetTextColor
001380  49c8              LDR      r1,|L9.5796|
001382  4638              MOV      r0,r7                 ;787
001384  f7fffffe          BL       TEXT_SetFont
001388  f7fffffe          BL       GUI_UC_SetEncodeUTF8
00138c  a1ce              ADR      r1,|L9.5832|
00138e  4638              MOV      r0,r7                 ;789
001390  f7fffffe          BL       TEXT_SetText
001394  f6400178          MOV      r1,#0x878             ;791
001398  6860              LDR      r0,[r4,#4]            ;791
00139a  f7fffffe          BL       WM_GetDialogItem
00139e  4607              MOV      r7,r0                 ;791
0013a0  4629              MOV      r1,r5                 ;792
0013a2  f7fffffe          BL       TEXT_SetTextColor
0013a6  49bf              LDR      r1,|L9.5796|
0013a8  4638              MOV      r0,r7                 ;793
0013aa  f7fffffe          BL       TEXT_SetFont
0013ae  f7fffffe          BL       GUI_UC_SetEncodeUTF8
0013b2  a1c9              ADR      r1,|L9.5848|
0013b4  4638              MOV      r0,r7                 ;795
0013b6  f7fffffe          BL       TEXT_SetText
0013ba  f6400171          MOV      r1,#0x871             ;797
0013be  6860              LDR      r0,[r4,#4]            ;797
0013c0  f7fffffe          BL       WM_GetDialogItem
0013c4  4607              MOV      r7,r0                 ;797
0013c6  4629              MOV      r1,r5                 ;798
0013c8  f7fffffe          BL       TEXT_SetTextColor
0013cc  49b5              LDR      r1,|L9.5796|
0013ce  4638              MOV      r0,r7                 ;799
0013d0  f7fffffe          BL       TEXT_SetFont
0013d4  f7fffffe          BL       GUI_UC_SetEncodeUTF8
0013d8  a1c3              ADR      r1,|L9.5864|
0013da  4638              MOV      r0,r7                 ;801
0013dc  f7fffffe          BL       TEXT_SetText
0013e0  f6400179          MOV      r1,#0x879             ;803
0013e4  6860              LDR      r0,[r4,#4]            ;803
0013e6  f7fffffe          BL       WM_GetDialogItem
0013ea  4607              MOV      r7,r0                 ;803
0013ec  4629              MOV      r1,r5                 ;804
0013ee  f7fffffe          BL       TEXT_SetTextColor
0013f2  49ac              LDR      r1,|L9.5796|
0013f4  4638              MOV      r0,r7                 ;805
0013f6  f7fffffe          BL       TEXT_SetFont
0013fa  f7fffffe          BL       GUI_UC_SetEncodeUTF8
0013fe  a1be              ADR      r1,|L9.5880|
001400  4638              MOV      r0,r7                 ;807
001402  f7fffffe          BL       TEXT_SetText
001406  f6400172          MOV      r1,#0x872             ;815
00140a  6860              LDR      r0,[r4,#4]            ;815
00140c  f7fffffe          BL       WM_GetDialogItem
001410  4607              MOV      r7,r0                 ;815
001412  4629              MOV      r1,r5                 ;816
001414  f7fffffe          BL       TEXT_SetTextColor
001418  49a2              LDR      r1,|L9.5796|
00141a  4638              MOV      r0,r7                 ;817
00141c  f7fffffe          BL       TEXT_SetFont
001420  f7fffffe          BL       GUI_UC_SetEncodeUTF8
001424  a1b8              ADR      r1,|L9.5896|
001426  4638              MOV      r0,r7                 ;819
001428  f7fffffe          BL       TEXT_SetText
00142c  f6400173          MOV      r1,#0x873             ;821
001430  6860              LDR      r0,[r4,#4]            ;821
001432  f7fffffe          BL       WM_GetDialogItem
001436  4607              MOV      r7,r0                 ;821
001438  ee190a10          VMOV     r0,s18                ;822
00143c  f7fffffe          BL       __aeabi_f2d
001440  ec410b10          VMOV     d0,r0,r1              ;822
001444  ec532b10          VMOV     r2,r3,d0              ;822
001448  f6af71d0          ADR      r1,|L9.1148|
00144c  4668              MOV      r0,sp                 ;822
00144e  f7fffffe          BL       __2sprintf
001452  4629              MOV      r1,r5                 ;823
001454  4638              MOV      r0,r7                 ;823
001456  f7fffffe          BL       TEXT_SetTextColor
00145a  49af              LDR      r1,|L9.5912|
00145c  4638              MOV      r0,r7                 ;824
00145e  f7fffffe          BL       TEXT_SetFont
001462  f7fffffe          BL       GUI_UC_SetEncodeUTF8
001466  4669              MOV      r1,sp                 ;826
001468  4638              MOV      r0,r7                 ;826
00146a  f7fffffe          BL       TEXT_SetText
00146e  f6400174          MOV      r1,#0x874             ;828
001472  6860              LDR      r0,[r4,#4]            ;828
001474  f7fffffe          BL       WM_GetDialogItem
001478  4607              MOV      r7,r0                 ;828
00147a  ee190a90          VMOV     r0,s19                ;829
00147e  f7fffffe          BL       __aeabi_f2d
001482  ec410b10          VMOV     d0,r0,r1              ;829
001486  49a5              LDR      r1,|L9.5916|
001488  ec532b10          VMOV     r2,r3,d0              ;829
00148c  4668              MOV      r0,sp                 ;829
00148e  f7fffffe          BL       __2sprintf
001492  4629              MOV      r1,r5                 ;830
001494  4638              MOV      r0,r7                 ;830
001496  f7fffffe          BL       TEXT_SetTextColor
00149a  499f              LDR      r1,|L9.5912|
00149c  4638              MOV      r0,r7                 ;831
00149e  f7fffffe          BL       TEXT_SetFont
0014a2  f7fffffe          BL       GUI_UC_SetEncodeUTF8
0014a6  4669              MOV      r1,sp                 ;833
0014a8  4638              MOV      r0,r7                 ;833
0014aa  f7fffffe          BL       TEXT_SetText
0014ae  f6400175          MOV      r1,#0x875             ;835
0014b2  6860              LDR      r0,[r4,#4]            ;835
0014b4  f7fffffe          BL       WM_GetDialogItem
0014b8  4607              MOV      r7,r0                 ;835
0014ba  ee180a10          VMOV     r0,s16                ;836
0014be  f7fffffe          BL       __aeabi_f2d
0014c2  ec410b10          VMOV     d0,r0,r1              ;836
0014c6  4995              LDR      r1,|L9.5916|
0014c8  ec532b10          VMOV     r2,r3,d0              ;836
0014cc  4668              MOV      r0,sp                 ;836
0014ce  f7fffffe          BL       __2sprintf
0014d2  4629              MOV      r1,r5                 ;837
0014d4  4638              MOV      r0,r7                 ;837
0014d6  f7fffffe          BL       TEXT_SetTextColor
0014da  498f              LDR      r1,|L9.5912|
0014dc  4638              MOV      r0,r7                 ;838
0014de  f7fffffe          BL       TEXT_SetFont
0014e2  f7fffffe          BL       GUI_UC_SetEncodeUTF8
0014e6  4669              MOV      r1,sp                 ;840
0014e8  4638              MOV      r0,r7                 ;840
0014ea  f7fffffe          BL       TEXT_SetText
0014ee  f6400176          MOV      r1,#0x876             ;842
0014f2  6860              LDR      r0,[r4,#4]            ;842
0014f4  f7fffffe          BL       WM_GetDialogItem
0014f8  7832              LDRB     r2,[r6,#0]            ;843  ; set_loop_count
0014fa  4607              MOV      r7,r0                 ;842
0014fc  a188              ADR      r1,|L9.5920|
0014fe  4668              MOV      r0,sp                 ;843
001500  f7fffffe          BL       __2sprintf
001504  4629              MOV      r1,r5                 ;844
001506  4638              MOV      r0,r7                 ;844
001508  f7fffffe          BL       TEXT_SetTextColor
00150c  4982              LDR      r1,|L9.5912|
00150e  4638              MOV      r0,r7                 ;845
001510  f7fffffe          BL       TEXT_SetFont
001514  f7fffffe          BL       GUI_UC_SetEncodeUTF8
001518  4669              MOV      r1,sp                 ;847
00151a  4638              MOV      r0,r7                 ;847
00151c  f7fffffe          BL       TEXT_SetText
001520  f640017b          MOV      r1,#0x87b             ;851
001524  6860              LDR      r0,[r4,#4]            ;851
001526  f7fffffe          BL       WM_GetDialogItem
00152a  4606              MOV      r6,r0                 ;851
00152c  ee1a0a10          VMOV     r0,s20                ;852
001530  f7fffffe          BL       __aeabi_f2d
001534  ec410b10          VMOV     d0,r0,r1              ;852
001538  4978              LDR      r1,|L9.5916|
00153a  ec532b10          VMOV     r2,r3,d0              ;852
00153e  390c              SUBS     r1,r1,#0xc            ;852
001540  4668              MOV      r0,sp                 ;852
001542  f7fffffe          BL       __2sprintf
001546  4629              MOV      r1,r5                 ;853
001548  4630              MOV      r0,r6                 ;853
00154a  f7fffffe          BL       TEXT_SetTextColor
00154e  4972              LDR      r1,|L9.5912|
001550  4630              MOV      r0,r6                 ;854
001552  f7fffffe          BL       TEXT_SetFont
001556  f7fffffe          BL       GUI_UC_SetEncodeUTF8
00155a  4669              MOV      r1,sp                 ;856
00155c  4630              MOV      r0,r6                 ;856
00155e  f7fffffe          BL       TEXT_SetText
001562  f640017c          MOV      r1,#0x87c             ;858
001566  6860              LDR      r0,[r4,#4]            ;858
001568  f7fffffe          BL       WM_GetDialogItem
00156c  4606              MOV      r6,r0                 ;858
00156e  ee1a0a90          VMOV     r0,s21                ;859
001572  f7fffffe          BL       __aeabi_f2d
001576  ec410b10          VMOV     d0,r0,r1              ;859
00157a  4968              LDR      r1,|L9.5916|
00157c  ec532b10          VMOV     r2,r3,d0              ;859
001580  4668              MOV      r0,sp                 ;859
001582  f7fffffe          BL       __2sprintf
001586  4629              MOV      r1,r5                 ;860
001588  4630              MOV      r0,r6                 ;860
00158a  f7fffffe          BL       TEXT_SetTextColor
00158e  4962              LDR      r1,|L9.5912|
001590  4630              MOV      r0,r6                 ;861
001592  f7fffffe          BL       TEXT_SetFont
001596  f7fffffe          BL       GUI_UC_SetEncodeUTF8
00159a  4669              MOV      r1,sp                 ;863
00159c  4630              MOV      r0,r6                 ;863
00159e  f7fffffe          BL       TEXT_SetText
0015a2  f640017d          MOV      r1,#0x87d             ;865
0015a6  6860              LDR      r0,[r4,#4]            ;865
0015a8  f7fffffe          BL       WM_GetDialogItem
0015ac  4606              MOV      r6,r0                 ;865
0015ae  ee180a90          VMOV     r0,s17                ;866
0015b2  f7fffffe          BL       __aeabi_f2d
0015b6  ec410b10          VMOV     d0,r0,r1              ;866
0015ba  4958              LDR      r1,|L9.5916|
0015bc  ec532b10          VMOV     r2,r3,d0              ;866
0015c0  4668              MOV      r0,sp                 ;866
0015c2  f7fffffe          BL       __2sprintf
0015c6  4629              MOV      r1,r5                 ;867
0015c8  4630              MOV      r0,r6                 ;867
0015ca  f7fffffe          BL       TEXT_SetTextColor
0015ce  4952              LDR      r1,|L9.5912|
0015d0  4630              MOV      r0,r6                 ;868
0015d2  f7fffffe          BL       TEXT_SetFont
0015d6  f7fffffe          BL       GUI_UC_SetEncodeUTF8
0015da  4669              MOV      r1,sp                 ;870
0015dc  4630              MOV      r0,r6                 ;870
0015de  f7fffffe          BL       TEXT_SetText
0015e2  f640017f          MOV      r1,#0x87f             ;879
0015e6  6860              LDR      r0,[r4,#4]            ;879
0015e8  f7fffffe          BL       WM_GetDialogItem
0015ec  494b              LDR      r1,|L9.5916|
0015ee  4606              MOV      r6,r0                 ;879
0015f0  ec532b1b          VMOV     r2,r3,d11             ;880
0015f4  390c              SUBS     r1,r1,#0xc            ;880
0015f6  4668              MOV      r0,sp                 ;880
0015f8  f7fffffe          BL       __2sprintf
0015fc  f44f477f          MOV      r7,#0xff00            ;881
001600  4639              MOV      r1,r7                 ;881
001602  4630              MOV      r0,r6                 ;881
001604  f7fffffe          BL       TEXT_SetTextColor
001608  4946              LDR      r1,|L9.5924|
00160a  4630              MOV      r0,r6                 ;882
00160c  f7fffffe          BL       TEXT_SetFont
001610  f7fffffe          BL       GUI_UC_SetEncodeUTF8
001614  4669              MOV      r1,sp                 ;884
001616  4630              MOV      r0,r6                 ;884
001618  f7fffffe          BL       TEXT_SetText
00161c  f44f6108          MOV      r1,#0x880             ;886
001620  6860              LDR      r0,[r4,#4]            ;886
001622  f7fffffe          BL       WM_GetDialogItem
001626  4606              MOV      r6,r0                 ;886
001628  ec532b1b          VMOV     r2,r3,d11             ;887
00162c  493b              LDR      r1,|L9.5916|
00162e  4668              MOV      r0,sp                 ;887
001630  f7fffffe          BL       __2sprintf
001634  4639              MOV      r1,r7                 ;888
001636  4630              MOV      r0,r6                 ;888
001638  f7fffffe          BL       TEXT_SetTextColor
00163c  4939              LDR      r1,|L9.5924|
00163e  4630              MOV      r0,r6                 ;889
001640  f7fffffe          BL       TEXT_SetFont
001644  f7fffffe          BL       GUI_UC_SetEncodeUTF8
001648  4669              MOV      r1,sp                 ;891
00164a  4630              MOV      r0,r6                 ;891
00164c  f7fffffe          BL       TEXT_SetText
001650  f6400181          MOV      r1,#0x881             ;893
001654  6860              LDR      r0,[r4,#4]            ;893
001656  f7fffffe          BL       WM_GetDialogItem
00165a  4606              MOV      r6,r0                 ;893
00165c  2200              MOVS     r2,#0                 ;894
00165e  f6af018c          ADR      r1,|L9.3540|
001662  4668              MOV      r0,sp                 ;894
001664  f7fffffe          BL       __2sprintf
001668  4639              MOV      r1,r7                 ;895
00166a  4630              MOV      r0,r6                 ;895
00166c  f7fffffe          BL       TEXT_SetTextColor
001670  492c              LDR      r1,|L9.5924|
001672  4630              MOV      r0,r6                 ;896
001674  f7fffffe          BL       TEXT_SetFont
001678  f7fffffe          BL       GUI_UC_SetEncodeUTF8
00167c  4669              MOV      r1,sp                 ;898
00167e  4630              MOV      r0,r6                 ;898
001680  f7fffffe          BL       TEXT_SetText
001684  f6400182          MOV      r1,#0x882             ;900
001688  6860              LDR      r0,[r4,#4]            ;900
00168a  e04d              B        |L9.5928|
                  |L9.5772|
                          DCD      GUI_FontEN40
                  |L9.5776|
001690  563a00            DCB      "V:",0
001693  00                DCB      0
                  |L9.5780|
001694  493a00            DCB      "I:",0
001697  00                DCB      0
                  |L9.5784|
001698  5600              DCB      "V",0
00169a  00                DCB      0
00169b  00                DCB      0
                  |L9.5788|
00169c  4100              DCB      "A",0
00169e  00                DCB      0
00169f  00                DCB      0
                  |L9.5792|
                          DCD      0x00bfffff
                  |L9.5796|
                          DCD      GUI_Fontset_font
                  |L9.5800|
0016a8  e8be93e5          DCB      232,190,147,229,135,186,231,148,181,229,142,139,"1",0
0016ac  87bae794
0016b0  b5e58e8b
0016b4  3100    
0016b6  00                DCB      0
0016b7  00                DCB      0
                  |L9.5816|
0016b8  e99990e5          DCB      233,153,144,229,136,182,231,148,181,230,181,129,"1",0
0016bc  88b6e794
0016c0  b5e6b581
0016c4  3100    
0016c6  00                DCB      0
0016c7  00                DCB      0
                  |L9.5832|
0016c8  e688aae6          DCB      230,136,170,230,173,162,231,148,181,229,142,139,"1",0
0016cc  ada2e794
0016d0  b5e58e8b
0016d4  3100    
0016d6  00                DCB      0
0016d7  00                DCB      0
                  |L9.5848|
0016d8  e688aae6          DCB      230,136,170,230,173,162,231,148,181,230,181,129,"1",0
0016dc  ada2e794
0016e0  b5e6b581
0016e4  3100    
0016e6  00                DCB      0
0016e7  00                DCB      0
                  |L9.5864|
0016e8  e8b49fe8          DCB      232,180,159,232,189,189,231,148,181,230,181,129
0016ec  bdbde794
0016f0  b5e6b581
                  |L9.5876|
0016f4  00                DCB      0
0016f5  00                DCB      0
0016f6  00                DCB      0
0016f7  00                DCB      0
                  |L9.5880|
0016f8  e688aae6          DCB      230,136,170,230,173,162,231,148,181,229,142,139,0
0016fc  ada2e794
001700  b5e58e8b
001704  00      
001705  00                DCB      0
001706  00                DCB      0
001707  00                DCB      0
                  |L9.5896|
001708  e5beaae7          DCB      229,190,170,231,142,175,230,172,161,230,149,176,0
00170c  8eafe6ac
001710  a1e695b0
001714  00      
001715  00                DCB      0
001716  00                DCB      0
001717  00                DCB      0
                  |L9.5912|
                          DCD      GUI_Font24_1
                  |L9.5916|
                          DCD      ||i._cbDialog||+0x488
                  |L9.5920|
001720  25336400          DCB      "%3d",0
                  |L9.5924|
                          DCD      GUI_FontD24x32
                  |L9.5928|
001728  f7fffffe          BL       WM_GetDialogItem
00172c  4606              MOV      r6,r0                 ;900
00172e  4629              MOV      r1,r5                 ;901
001730  f7fffffe          BL       TEXT_SetTextColor
001734  4945              LDR      r1,|L9.6220|
001736  4630              MOV      r0,r6                 ;902
001738  f7fffffe          BL       TEXT_SetFont
00173c  f7fffffe          BL       GUI_UC_SetEncodeUTF8
001740  a143              ADR      r1,|L9.6224|
001742  4630              MOV      r0,r6                 ;904
001744  f7fffffe          BL       TEXT_SetText
001748  f640018a          MOV      r1,#0x88a             ;906
00174c  6860              LDR      r0,[r4,#4]            ;906
00174e  f7fffffe          BL       WM_GetDialogItem
001752  4606              MOV      r6,r0                 ;906
001754  4639              MOV      r1,r7                 ;907
001756  f7fffffe          BL       TEXT_SetTextColor
00175a  493f              LDR      r1,|L9.6232|
00175c  4630              MOV      r0,r6                 ;908
00175e  f7fffffe          BL       TEXT_SetFont
001762  f7fffffe          BL       GUI_UC_SetEncodeUTF8
001766  f2af0174          ADR      r1,|L9.5876|
00176a  4630              MOV      r0,r6                 ;910
00176c  f7fffffe          BL       TEXT_SetText
001770  f640018b          MOV      r1,#0x88b             ;912
001774  6860              LDR      r0,[r4,#4]            ;912
001776  f7fffffe          BL       WM_GetDialogItem
00177a  4606              MOV      r6,r0                 ;912
00177c  4639              MOV      r1,r7                 ;913
00177e  f7fffffe          BL       TEXT_SetTextColor
001782  4935              LDR      r1,|L9.6232|
001784  4630              MOV      r0,r6                 ;914
001786  f7fffffe          BL       TEXT_SetFont
00178a  f7fffffe          BL       GUI_UC_SetEncodeUTF8
00178e  f2af019c          ADR      r1,|L9.5876|
001792  4630              MOV      r0,r6                 ;916
001794  f7fffffe          BL       TEXT_SetText
001798  f640018c          MOV      r1,#0x88c             ;918
00179c  6860              LDR      r0,[r4,#4]            ;918
00179e  f7fffffe          BL       WM_GetDialogItem
0017a2  4606              MOV      r6,r0                 ;918
0017a4  4639              MOV      r1,r7                 ;919
0017a6  f7fffffe          BL       TEXT_SetTextColor
0017aa  492b              LDR      r1,|L9.6232|
0017ac  4630              MOV      r0,r6                 ;920
0017ae  f7fffffe          BL       TEXT_SetFont
0017b2  f7fffffe          BL       GUI_UC_SetEncodeUTF8
0017b6  f2af01c4          ADR      r1,|L9.5876|
0017ba  4630              MOV      r0,r6                 ;922
0017bc  f7fffffe          BL       TEXT_SetText
0017c0  f6401113          MOV      r1,#0x913             ;924
0017c4  6860              LDR      r0,[r4,#4]            ;924
0017c6  f7fffffe          BL       WM_GetDialogItem
0017ca  4606              MOV      r6,r0                 ;924
0017cc  21ff              MOVS     r1,#0xff              ;925
0017ce  f7fffffe          BL       TEXT_SetTextColor
0017d2  4922              LDR      r1,|L9.6236|
0017d4  4630              MOV      r0,r6                 ;926
0017d6  f7fffffe          BL       TEXT_SetFont
0017da  f7fffffe          BL       GUI_UC_SetEncodeUTF8
0017de  f2af01ec          ADR      r1,|L9.5876|
0017e2  4630              MOV      r0,r6                 ;928
0017e4  f7fffffe          BL       TEXT_SetText
0017e8  f6400183          MOV      r1,#0x883             ;930
0017ec  6860              LDR      r0,[r4,#4]            ;930
0017ee  f7fffffe          BL       WM_GetDialogItem
0017f2  4606              MOV      r6,r0                 ;930
0017f4  4629              MOV      r1,r5                 ;931
0017f6  f7fffffe          BL       TEXT_SetTextColor
0017fa  4914              LDR      r1,|L9.6220|
0017fc  4630              MOV      r0,r6                 ;932
0017fe  f7fffffe          BL       TEXT_SetFont
001802  f7fffffe          BL       GUI_UC_SetEncodeUTF8
001806  a116              ADR      r1,|L9.6240|
001808  4630              MOV      r0,r6                 ;934
00180a  f7fffffe          BL       TEXT_SetText
00180e  f6401114          MOV      r1,#0x914             ;936
001812  6860              LDR      r0,[r4,#4]            ;936
001814  f7fffffe          BL       WM_GetDialogItem
001818  4604              MOV      r4,r0                 ;936
00181a  4639              MOV      r1,r7                 ;937
00181c  f7fffffe          BL       TEXT_SetTextColor
001820  490d              LDR      r1,|L9.6232|
001822  4620              MOV      r0,r4                 ;938
001824  f7fffffe          BL       TEXT_SetFont
001828  480f              LDR      r0,|L9.6248|
00182a  6800              LDR      r0,[r0,#0]            ;939  ; temp
00182c  f7fffffe          BL       __aeabi_f2d
001830  ec410b10          VMOV     d0,r0,r1              ;939
001834  ec532b10          VMOV     r2,r3,d0              ;939
001838  f2af610c          ADR      r1,|L9.4656|
00183c  4668              MOV      r0,sp                 ;939
00183e  f7fffffe          BL       __2sprintf
001842  4669              MOV      r1,sp                 ;940
001844  4620              MOV      r0,r4                 ;940
001846  f7fffffe          BL       TEXT_SetText
00184a  e47c              B        |L9.4422|
;;;953    
                          ENDP

                  |L9.6220|
                          DCD      GUI_FontHZ16
                  |L9.6224|
001850  e58585e7          DCB      229,133,133,231,148,181,0
001854  94b500  
001857  00                DCB      0
                  |L9.6232|
                          DCD      GUI_Font24_1
                  |L9.6236|
                          DCD      GUI_Fontset_font
                  |L9.6240|
001860  e694bee7          DCB      230,148,190,231,148,181,0
001864  94b500  
001867  00                DCB      0
                  |L9.6248|
                          DCD      temp

                          AREA ||i.count_num||, CODE, READONLY, ALIGN=1

                  count_num PROC
;;;2855   
;;;2856   int count_num(int data)
000000  2100              MOVS     r1,#0
;;;2857   {
;;;2858       int count = 0;
;;;2859       while(data != 0){
;;;2860           data/=10;
000002  220a              MOVS     r2,#0xa
;;;2861           count++;
000004  e002              B        |L10.12|
                  |L10.6|
000006  fb90f0f2          SDIV     r0,r0,r2              ;2860
00000a  1c49              ADDS     r1,r1,#1
                  |L10.12|
00000c  2800              CMP      r0,#0                 ;2859
00000e  d1fa              BNE      |L10.6|
;;;2862       }
;;;2863       return count;
000010  4608              MOV      r0,r1
;;;2864   }
000012  4770              BX       lr
;;;2865   
                          ENDP


                          AREA ||.bss||, DATA, NOINIT, ALIGN=1

                  coff
                          %        12

                          AREA ||.constdata||, DATA, READONLY, ALIGN=2

                  _aDialogCreate4
                          DCD      WINDOW_CreateIndirect
                          DCD      ||.conststring||
000008  082a0000          DCW      0x082a,0x0000
00000c  000001e0          DCW      0x0000,0x01e0
000010  01100000          DCW      0x0110,0x0000
                          DCD      0x00000000
                          DCD      0x00000000
                          DCD      BUTTON_CreateIndirect
                          DCD      ||.conststring||+0x2
000024  082c0053          DCW      0x082c,0x0053
000028  00e2004d          DCW      0x00e2,0x004d
00002c  002d0000          DCW      0x002d,0x0000
                          DCD      0x00000000
                          DCD      0x00000000
                          DCD      BUTTON_CreateIndirect
                          DCD      ||.conststring||+0x2
000040  082d00a3          DCW      0x082d,0x00a3
000044  00e2004d          DCW      0x00e2,0x004d
000048  002d0000          DCW      0x002d,0x0000
                          DCD      0x00000000
                          DCD      0x00000000
                          DCD      BUTTON_CreateIndirect
                          DCD      ||.conststring||+0x2
00005c  082e00f3          DCW      0x082e,0x00f3
000060  00e2004d          DCW      0x00e2,0x004d
000064  002d0000          DCW      0x002d,0x0000
                          DCD      0x00000000
                          DCD      0x00000000
                          DCD      BUTTON_CreateIndirect
                          DCD      ||.conststring||+0x2
000078  082f0143          DCW      0x082f,0x0143
00007c  00e2004d          DCW      0x00e2,0x004d
000080  002d0000          DCW      0x002d,0x0000
                          DCD      0x00000000
                          DCD      0x00000000
                          DCD      BUTTON_CreateIndirect
                          DCD      ||.conststring||+0x2
000094  08300193          DCW      0x0830,0x0193
000098  00e2004d          DCW      0x00e2,0x004d
00009c  002d0000          DCW      0x002d,0x0000
                          DCD      0x00000000
                          DCD      0x00000000
                          DCD      TEXT_CreateIndirect
                          DCD      ||.conststring||+0x9
0000b0  0831001c          DCW      0x0831,0x001c
0000b4  00320040          DCW      0x0032,0x0040
0000b8  00200000          DCW      0x0020,0x0000
                          DCD      0x00000064
                          DCD      0x00000000
                          DCD      TEXT_CreateIndirect
                          DCD      ||.conststring||+0x9
0000cc  0832001c          DCW      0x0832,0x001c
0000d0  00780040          DCW      0x0078,0x0040
0000d4  00200000          DCW      0x0020,0x0000
                          DCD      0x00000064
                          DCD      0x00000000
                          DCD      TEXT_CreateIndirect
                          DCD      ||.conststring||+0x9
0000e8  083300f0          DCW      0x0833,0x00f0
0000ec  00320020          DCW      0x0032,0x0020
0000f0  001e0000          DCW      0x001e,0x0000
                          DCD      0x00000000
                          DCD      0x00000000
                          DCD      TEXT_CreateIndirect
                          DCD      ||.conststring||+0x9
000104  083400f0          DCW      0x0834,0x00f0
000108  00790020          DCW      0x0079,0x0020
00010c  001e0000          DCW      0x001e,0x0000
                          DCD      0x00000000
                          DCD      0x00000000
                          DCD      TEXT_CreateIndirect
                          DCD      ||.conststring||+0x9
000120  086f0140          DCW      0x086f,0x0140
000124  001e005a          DCW      0x001e,0x005a
000128  00140000          DCW      0x0014,0x0000
                          DCD      0x00000000
                          DCD      0x00000000
                          DCD      TEXT_CreateIndirect
                          DCD      ||.conststring||+0x9
00013c  08700140          DCW      0x0870,0x0140
000140  0037005a          DCW      0x0037,0x005a
000144  00140000          DCW      0x0014,0x0000
                          DCD      0x00000000
                          DCD      0x00000000
                          DCD      TEXT_CreateIndirect
                          DCD      ||.conststring||+0x9
000158  08770140          DCW      0x0877,0x0140
00015c  0050005a          DCW      0x0050,0x005a
000160  00140000          DCW      0x0014,0x0000
                          DCD      0x00000000
                          DCD      0x00000000
                          DCD      TEXT_CreateIndirect
                          DCD      ||.conststring||+0x9
000174  08780140          DCW      0x0878,0x0140
000178  0069005a          DCW      0x0069,0x005a
00017c  00140000          DCW      0x0014,0x0000
                          DCD      0x00000000
                          DCD      0x00000000
                          DCD      TEXT_CreateIndirect
                          DCD      ||.conststring||+0x9
000190  08710140          DCW      0x0871,0x0140
000194  008e0050          DCW      0x008e,0x0050
000198  00140000          DCW      0x0014,0x0000
                          DCD      0x00000000
                          DCD      0x00000000
                          DCD      TEXT_CreateIndirect
                          DCD      ||.conststring||+0x9
0001ac  08790140          DCW      0x0879,0x0140
0001b0  00a70050          DCW      0x00a7,0x0050
0001b4  00140000          DCW      0x0014,0x0000
                          DCD      0x00000000
                          DCD      0x00000000
                          DCD      TEXT_CreateIndirect
                          DCD      ||.conststring||+0x9
0001c8  08720140          DCW      0x0872,0x0140
0001cc  00cd0050          DCW      0x00cd,0x0050
0001d0  00140000          DCW      0x0014,0x0000
                          DCD      0x00000000
                          DCD      0x00000000
                          DCD      TEXT_CreateIndirect
                          DCD      ||.conststring||+0x9
0001e4  0873019f          DCW      0x0873,0x019f
0001e8  001e0041          DCW      0x001e,0x0041
0001ec  00140000          DCW      0x0014,0x0000
                          DCD      0x00000000
                          DCD      0x00000000
                          DCD      TEXT_CreateIndirect
                          DCD      ||.conststring||+0x9
000200  0874019f          DCW      0x0874,0x019f
000204  00370041          DCW      0x0037,0x0041
000208  00140000          DCW      0x0014,0x0000
                          DCD      0x00000000
                          DCD      0x00000000
                          DCD      TEXT_CreateIndirect
                          DCD      ||.conststring||+0x9
00021c  0875019f          DCW      0x0875,0x019f
000220  008e0041          DCW      0x008e,0x0041
000224  00140000          DCW      0x0014,0x0000
                          DCD      0x00000000
                          DCD      0x00000000
                          DCD      TEXT_CreateIndirect
                          DCD      ||.conststring||+0x9
000238  0876019f          DCW      0x0876,0x019f
00023c  00cd001a          DCW      0x00cd,0x001a
000240  00140000          DCW      0x0014,0x0000
                          DCD      0x00000000
                          DCD      0x00000000
                          DCD      TEXT_CreateIndirect
                          DCD      ||.conststring||+0x9
000254  087b019f          DCW      0x087b,0x019f
000258  00500041          DCW      0x0050,0x0041
00025c  00140000          DCW      0x0014,0x0000
                          DCD      0x00000000
                          DCD      0x00000000
                          DCD      TEXT_CreateIndirect
                          DCD      ||.conststring||+0x9
000270  087c019f          DCW      0x087c,0x019f
000274  00690041          DCW      0x0069,0x0041
000278  00140000          DCW      0x0014,0x0000
                          DCD      0x00000000
                          DCD      0x00000000
                          DCD      TEXT_CreateIndirect
                          DCD      ||.conststring||+0x9
00028c  087d019f          DCW      0x087d,0x019f
000290  00a70041          DCW      0x00a7,0x0041
000294  00140000          DCW      0x0014,0x0000
                          DCD      0x00000000
                          DCD      0x00000000
                          DCD      TEXT_CreateIndirect
                          DCD      ||.conststring||+0x9
0002a8  087f005f          DCW      0x087f,0x005f
0002ac  00300096          DCW      0x0030,0x0096
0002b0  00280000          DCW      0x0028,0x0000
                          DCD      0x00000000
                          DCD      0x00000000
                          DCD      TEXT_CreateIndirect
                          DCD      ||.conststring||+0x9
0002c4  0880005f          DCW      0x0880,0x005f
0002c8  00740096          DCW      0x0074,0x0096
0002cc  00280000          DCW      0x0028,0x0000
                          DCD      0x00000000
                          DCD      0x00000000
                          DCD      TEXT_CreateIndirect
                          DCD      ||.conststring||+0x9
0002e0  0881005f          DCW      0x0881,0x005f
0002e4  00b80096          DCW      0x00b8,0x0096
0002e8  00280000          DCW      0x0028,0x0000
                          DCD      0x00000000
                          DCD      0x00000000
                          DCD      TEXT_CreateIndirect
                          DCD      ||.conststring||+0x9
0002fc  0882010e          DCW      0x0882,0x010e
000300  00200021          DCW      0x0020,0x0021
000304  00140000          DCW      0x0014,0x0000
                          DCD      0x00000000
                          DCD      0x00000000
                          DCD      TEXT_CreateIndirect
                          DCD      ||.conststring||+0x9
000318  09130104          DCW      0x0913,0x0104
00031c  00380032          DCW      0x0038,0x0032
000320  00140000          DCW      0x0014,0x0000
                          DCD      0x00000000
                          DCD      0x00000000
                          DCD      TEXT_CreateIndirect
                          DCD      ||.conststring||+0x9
000334  0883010e          DCW      0x0883,0x010e
000338  008e0021          DCW      0x008e,0x0021
00033c  00140000          DCW      0x0014,0x0000
                          DCD      0x00000000
                          DCD      0x00000000
                          DCD      TEXT_CreateIndirect
                          DCD      ||.conststring||+0x9
000350  08840190          DCW      0x0884,0x0190
000354  00040032          DCW      0x0004,0x0032
000358  00140000          DCW      0x0014,0x0000
                          DCD      0x00000000
                          DCD      0x00000000
                          DCD      TEXT_CreateIndirect
                          DCD      ||.conststring||+0x9
00036c  088500dc          DCW      0x0885,0x00dc
000370  00040021          DCW      0x0004,0x0021
000374  00140000          DCW      0x0014,0x0000
                          DCD      0x00000000
                          DCD      0x00000000
                          DCD      TEXT_CreateIndirect
                          DCD      ||.conststring||+0x9
000388  088600fa          DCW      0x0886,0x00fa
00038c  00040021          DCW      0x0004,0x0021
000390  00140000          DCW      0x0014,0x0000
                          DCD      0x00000000
                          DCD      0x00000000
                          DCD      TEXT_CreateIndirect
                          DCD      ||.conststring||+0x9
0003a4  08870118          DCW      0x0887,0x0118
0003a8  00040021          DCW      0x0004,0x0021
0003ac  00140000          DCW      0x0014,0x0000
                          DCD      0x00000000
                          DCD      0x00000000
                          DCD      TEXT_CreateIndirect
                          DCD      ||.conststring||+0x9
0003c0  088800f5          DCW      0x0888,0x00f5
0003c4  0003000a          DCW      0x0003,0x000a
0003c8  00140000          DCW      0x0014,0x0000
                          DCD      0x00000000
                          DCD      0x00000000
                          DCD      TEXT_CreateIndirect
                          DCD      ||.conststring||+0x9
0003dc  08890113          DCW      0x0889,0x0113
0003e0  0003000a          DCW      0x0003,0x000a
0003e4  00140000          DCW      0x0014,0x0000
                          DCD      0x00000000
                          DCD      0x00000000
                          DCD      TEXT_CreateIndirect
                          DCD      ||.conststring||+0x9
0003f8  088a01b8          DCW      0x088a,0x01b8
0003fc  00cb0014          DCW      0x00cb,0x0014
000400  00170000          DCW      0x0017,0x0000
                          DCD      0x00000000
                          DCD      0x00000000
                          DCD      TEXT_CreateIndirect
                          DCD      ||.conststring||+0x9
000414  088b01d1          DCW      0x088b,0x01d1
000418  00cb0014          DCW      0x00cb,0x0014
00041c  00170000          DCW      0x0017,0x0000
                          DCD      0x00000000
                          DCD      0x00000000
                          DCD      TEXT_CreateIndirect
                          DCD      ||.conststring||+0x9
000430  088c01bc          DCW      0x088c,0x01bc
000434  00cd0028          DCW      0x00cd,0x0028
000438  00140000          DCW      0x0014,0x0000
                          DCD      0x00000000
                          DCD      0x00000000
                          DCD      TEXT_CreateIndirect
                          DCD      ||.conststring||+0x9
00044c  0914014a          DCW      0x0914,0x014a
000450  00020050          DCW      0x0002,0x0050
000454  00140000          DCW      0x0014,0x0000
                          DCD      0x00000000
                          DCD      0x00000000
                          DCD      TEXT_CreateIndirect
                          DCD      ||.conststring||+0x9
000468  09200005          DCW      0x0920,0x0005
00046c  00e10050          DCW      0x00e1,0x0050
000470  001e0000          DCW      0x001e,0x0000
                          DCD      0x00000000
                          DCD      0x00000000

                          AREA ||.conststring||, DATA, READONLY, MERGE=1, STRINGS, ALIGN=0

000000  4700              DCB      "G",0
000002  42757474          DCB      "Button",0
000006  6f6e00  
000009  54657874          DCB      "Text",0
00000d  00      

                          AREA ||.data||, DATA, ALIGN=2

                  set_loop_count
000000  01                DCB      0x01
                  second
000001  00                DCB      0x00
                  minute
000002  00                DCB      0x00
                  hour
000003  00                DCB      0x00
                  cutoff_flag
000004  00                DCB      0x00
                  cdc_sw
000005  00                DCB      0x00
                  c_sum
000006  00                DCB      0x00
                  count
000007  01                DCB      0x01
                  status_flash
000008  00                DCB      0x00
                  pause_flag
000009  00                DCB      0x00
                  paused
00000a  00                DCB      0x00
                  pow_step
00000b  00                DCB      0x00
                  cur_step
00000c  00                DCB      0x00
                  coffv_step
00000d  00                DCB      0x00
                  coffc_step
00000e  00                DCB      0x00
                  charge_step
00000f  00                DCB      0x00
                  cutoff_time
000010  0000              DCB      0x00,0x00
                  pause_time
000012  0000              DCB      0x00,0x00
                  restart_time
000014  00000000          DCB      0x00,0x00,0x00,0x00
                  hWincdc
                          DCD      0x00000000

                          AREA ||area_number.17||, DATA, ALIGN=0

                          EXPORTAS ||area_number.17||, ||.data||
                  c_sw
000000  01                DCB      0x01

                          AREA ||area_number.18||, DATA, ALIGN=0

                          EXPORTAS ||area_number.18||, ||.data||
                  timer_sw
000000  01                DCB      0x01

;*** Start embedded assembler ***

#line 1 "..\\APP\\c_dc.c"
	AREA ||.rev16_text||, CODE, READONLY
	THUMB
	EXPORT |__asm___6_c_dc_c_8be2d497____REV16|
#line 114 "D:\\Keil\\ARM\\CMSIS\\Include\\core_cmInstr.h"
|__asm___6_c_dc_c_8be2d497____REV16| PROC
#line 115

 rev16 r0, r0
 bx lr
	ENDP
	AREA ||.revsh_text||, CODE, READONLY
	THUMB
	EXPORT |__asm___6_c_dc_c_8be2d497____REVSH|
#line 128
|__asm___6_c_dc_c_8be2d497____REVSH| PROC
#line 129

 revsh r0, r0
 bx lr
	ENDP

;*** End   embedded assembler ***
