; generated by ARM C/C++ Compiler, 4.1 [Build 894]
; commandline ArmCC [--list --split_sections --debug -c --asm --interleave -o..\Output\modbus.o --asm_dir=..\Listing\ --list_dir=..\Listing\ --depend=..\Output\modbus.d --cpu=Cortex-M4.fp --apcs=interwork -O1 --diag_suppress=870 -I..\APP -I..\drive -I..\Include -I..\Libraries\CMSIS\inc -I..\Libraries\CMSIS\src -I..\Libraries\FWlib\inc -I..\Libraries\FWlib\src -I..\Listing -I..\Output -I..\Project -I..\STemWinLibrary522\Config -I..\STemWinLibrary522\emWinTask -I..\STemWinLibrary522\GUILib -I..\STemWinLibrary522\inc -I..\User -I..\USB\STM32_USB_HOST_Library\Class\HID\inc -I..\USB\STM32_USB_HOST_Library\Class\MSC\src -I..\USB\STM32_USB_HOST_Library\Core\src -I..\USB\USB_APP -I..\USB\STM32_USB_HOST_Library\Class\HID\src -I..\USB\STM32_USB_HOST_Library\Class\MSC\inc -I..\USB\STM32_USB_HOST_Library\Core\inc -I..\USB\STM32_USB_OTG_Driver\inc -I..\FATFS\exfuns -I..\FATFS\src\option -I..\FATFS\src -I..\MALLOC -ID:\Keil\ARM\RV31\Inc -ID:\Keil\ARM\CMSIS\Include -ID:\Keil\ARM\Inc\ST\STM32F4xx -DUSE_STDPERIPH_DRIVER -DSTM32F40XX -DUSE_USB_OTG_FS -DUSE_EMBEDDED_PHY -DUSE_USB_OTG_HS -DSTM32F40XX --omf_browse=..\Output\modbus.crf ..\drive\modbus.c]
                          THUMB

                          AREA ||i.Hardware_CRC||, CODE, READONLY, ALIGN=1

                  Hardware_CRC PROC
;;;967    //-----------------------------CRC检测--------------------------------------------//
;;;968    vu16 Hardware_CRC(vu8 *p_buffer,vu8 count)    //CRC16
000000  b530              PUSH     {r4,r5,lr}
;;;969    {
000002  4603              MOV      r3,r0
;;;970    	vu16 CRC_Result=0xffff;
000004  f64f70ff          MOV      r0,#0xffff
;;;971    	vu8 i;
;;;972    	if(count==0)
000008  b901              CBNZ     r1,|L1.12|
;;;973    	{
;;;974    		count=1;
00000a  2101              MOVS     r1,#1
                  |L1.12|
;;;975    	}
;;;976    	while(count--)
;;;977    	{
;;;978    		CRC_Result^=*p_buffer;
;;;979    		for(i=0;i<8;i++)
;;;980    		{
;;;981    			if(CRC_Result&1)
;;;982    			{
;;;983    				CRC_Result>>=1;
;;;984    				CRC_Result^=0xA001;
00000c  f24a0401          MOV      r4,#0xa001
;;;985    			}
;;;986    			else 
;;;987    			{
;;;988    				CRC_Result>>=1;
;;;989    			}
;;;990    		}
;;;991    		p_buffer++;
000010  e00e              B        |L1.48|
                  |L1.18|
000012  781a              LDRB     r2,[r3,#0]            ;978
000014  4050              EORS     r0,r0,r2              ;978
000016  2200              MOVS     r2,#0                 ;979
000018  e007              B        |L1.42|
                  |L1.26|
00001a  07c5              LSLS     r5,r0,#31             ;981
00001c  d002              BEQ      |L1.36|
00001e  0840              LSRS     r0,r0,#1              ;983
000020  4060              EORS     r0,r0,r4              ;984
000022  e000              B        |L1.38|
                  |L1.36|
000024  0840              LSRS     r0,r0,#1              ;988
                  |L1.38|
000026  1c52              ADDS     r2,r2,#1              ;979
000028  b2d2              UXTB     r2,r2                 ;979
                  |L1.42|
00002a  2a08              CMP      r2,#8                 ;979
00002c  d3f5              BCC      |L1.26|
00002e  1c5b              ADDS     r3,r3,#1
                  |L1.48|
000030  000a              MOVS     r2,r1                 ;976
000032  f1a10101          SUB      r1,r1,#1              ;976
000036  b2c9              UXTB     r1,r1                 ;976
000038  d1eb              BNE      |L1.18|
;;;992    	}
;;;993    	return CRC_Result;
;;;994    }
00003a  bd30              POP      {r4,r5,pc}
                          ENDP


                          AREA ||i.Transformation_ADC||, CODE, READONLY, ALIGN=2

                  Transformation_ADC PROC
;;;608    //===============================AD值转换成测量值============================================//
;;;609    void Transformation_ADC(void)  
000000  e92d47f0          PUSH     {r4-r10,lr}
;;;610    {
;;;611        static u32 rave;
;;;612        static u8 rcount;
;;;613    	vu32 var32;
;;;614    	vu32 var32a;
;;;615    /*****************************内阻测量电压转换*******************************************/
;;;616    	if(r_raly == 1)
000004  4ff8              LDR      r7,|L2.1000|
000006  7838              LDRB     r0,[r7,#0]  ; r_raly
;;;617        {
;;;618            var32 = Vmon1_value;
000008  4af8              LDR      r2,|L2.1004|
00000a  2801              CMP      r0,#1                 ;616
00000c  d002              BEQ      |L2.20|
;;;619        }else if(r_raly == 0){
00000e  7838              LDRB     r0,[r7,#0]  ; r_raly
000010  b110              CBZ      r0,|L2.24|
000012  e003              B        |L2.28|
                  |L2.20|
000014  6811              LDR      r1,[r2,#0]            ;618  ; Vmon1_value
000016  e001              B        |L2.28|
                  |L2.24|
;;;620            var32 = Vmon1_value + 100;
000018  6811              LDR      r1,[r2,#0]  ; Vmon1_value
00001a  3164              ADDS     r1,r1,#0x64
                  |L2.28|
;;;621        }
;;;622    	var32 = var32 * REG_CorrectionV;  
00001c  4cf4              LDR      r4,|L2.1008|
00001e  6820              LDR      r0,[r4,#0]  ; Correct_Parametet
000020  4348              MULS     r0,r1,r0
;;;623    	if ((Polar & 0x01) == 0x01)		  
000022  4df4              LDR      r5,|L2.1012|
000024  7829              LDRB     r1,[r5,#0]  ; correct_por
000026  07cb              LSLS     r3,r1,#31
;;;624    	{
;;;625    		if (var32 < REG_ReadV_Offset) 
000028  f1040144          ADD      r1,r4,#0x44
00002c  d007              BEQ      |L2.62|
00002e  680b              LDR      r3,[r1,#0]  ; Correct_Strong
000030  4283              CMP      r3,r0
000032  d901              BLS      |L2.56|
;;;626    		{
;;;627    			var32 = 0;
000034  2000              MOVS     r0,#0
000036  e004              B        |L2.66|
                  |L2.56|
;;;628    		}
;;;629    		else var32 = var32 - REG_ReadV_Offset;
000038  680b              LDR      r3,[r1,#0]  ; Correct_Strong
00003a  1ac0              SUBS     r0,r0,r3
00003c  e001              B        |L2.66|
                  |L2.62|
;;;630    	}
;;;631    	else var32 = var32 + REG_ReadV_Offset;
00003e  680b              LDR      r3,[r1,#0]  ; Correct_Strong
000040  4418              ADD      r0,r0,r3
                  |L2.66|
;;;632    	var32 = var32 >> 12;
000042  0b00              LSRS     r0,r0,#12
;;;633    	if (var32 < 30) var32 = 0;				  //40mV以下清零
000044  281e              CMP      r0,#0x1e
000046  d200              BCS      |L2.74|
000048  2000              MOVS     r0,#0
                  |L2.74|
;;;634    	Voltage = var32;
00004a  4ee9              LDR      r6,|L2.1008|
00004c  3688              ADDS     r6,r6,#0x88
00004e  62b0              STR      r0,[r6,#0x28]  ; Run_Control
;;;635    	DISS_Voltage=Voltage;
000050  6ab3              LDR      r3,[r6,#0x28]  ; Run_Control
000052  f8df83a4          LDR      r8,|L2.1016|
000056  ee003a10          VMOV     s0,r3
00005a  eeb81a40          VCVT.F32.U32 s2,s0
;;;636    	DISS_Voltage=DISS_Voltage/1000;//计算显示电压
00005e  ed9f0ae7          VLDR     s0,|L2.1020|
000062  eec10a00          VDIV.F32 s1,s2,s0
000066  edc80a00          VSTR     s1,[r8,#0]
;;;637        if(DISS_Voltage < 0.5)
00006a  ee103a90          VMOV     r3,s1
00006e  f1b35f7c          CMP      r3,#0x3f000000
000072  da26              BGE      |L2.194|
;;;638        {
;;;639            if(r_raly == 1)
000074  783b              LDRB     r3,[r7,#0]  ; r_raly
000076  2b01              CMP      r3,#1
000078  d002              BEQ      |L2.128|
;;;640            {
;;;641                var32 = Vmon1_value;
;;;642            }else if(r_raly == 0){
00007a  783b              LDRB     r3,[r7,#0]  ; r_raly
00007c  b113              CBZ      r3,|L2.132|
00007e  e003              B        |L2.136|
                  |L2.128|
000080  6810              LDR      r0,[r2,#0]            ;641  ; Vmon1_value
000082  e001              B        |L2.136|
                  |L2.132|
;;;643                var32 = Vmon1_value + 100;
000084  6810              LDR      r0,[r2,#0]  ; Vmon1_value
000086  3064              ADDS     r0,r0,#0x64
                  |L2.136|
;;;644            }
;;;645            var32 = var32 * REG_CorrectionV;  
000088  6823              LDR      r3,[r4,#0]  ; Correct_Parametet
00008a  4343              MULS     r3,r0,r3
;;;646            if ((Polar & 0x01) == 0x01)		  
00008c  7828              LDRB     r0,[r5,#0]  ; correct_por
00008e  07c0              LSLS     r0,r0,#31
000090  d007              BEQ      |L2.162|
;;;647            {
;;;648                if (var32 < REG_ReadV_Offset) 
000092  6808              LDR      r0,[r1,#0]  ; Correct_Strong
000094  4298              CMP      r0,r3
000096  d901              BLS      |L2.156|
;;;649                {
;;;650                    var32 = 0;
000098  2000              MOVS     r0,#0
00009a  e004              B        |L2.166|
                  |L2.156|
;;;651                }
;;;652                else var32 = var32 - REG_ReadV_Offset;
00009c  6808              LDR      r0,[r1,#0]  ; Correct_Strong
00009e  1a18              SUBS     r0,r3,r0
0000a0  e001              B        |L2.166|
                  |L2.162|
;;;653            }
;;;654            else var32 = var32 + REG_ReadV_Offset;
0000a2  6808              LDR      r0,[r1,#0]  ; Correct_Strong
0000a4  4418              ADD      r0,r0,r3
                  |L2.166|
;;;655            var32 = var32 >> 12;
0000a6  0b00              LSRS     r0,r0,#12
;;;656            if (var32 < 30) var32 = 0;				  //40mV去拢
0000a8  281e              CMP      r0,#0x1e
0000aa  d200              BCS      |L2.174|
0000ac  2000              MOVS     r0,#0
                  |L2.174|
;;;657            Voltage = var32;
0000ae  62b0              STR      r0,[r6,#0x28]  ; Run_Control
;;;658            DISS_Voltage=Voltage;
0000b0  6ab3              LDR      r3,[r6,#0x28]  ; Run_Control
0000b2  ee003a90          VMOV     s1,r3
0000b6  eef80a60          VCVT.F32.U32 s1,s1
;;;659            DISS_Voltage=DISS_Voltage/1000;//蹋示支压
0000ba  ee801a80          VDIV.F32 s2,s1,s0
0000be  ed881a00          VSTR     s2,[r8,#0]
                  |L2.194|
;;;660        }
;;;661        if(DISS_Voltage >= 10)
0000c2  f8dfc33c          LDR      r12,|L2.1024|
0000c6  f8d83000          LDR      r3,[r8,#0]  ; DISS_Voltage
0000ca  4563              CMP      r3,r12
0000cc  db26              BLT      |L2.284|
;;;662        {
;;;663            if(r_raly == 1)
0000ce  783b              LDRB     r3,[r7,#0]  ; r_raly
0000d0  2b01              CMP      r3,#1
0000d2  d002              BEQ      |L2.218|
;;;664            {
;;;665                var32 = Vmon1_value;
;;;666            }else if(r_raly == 0){
0000d4  783b              LDRB     r3,[r7,#0]  ; r_raly
0000d6  b113              CBZ      r3,|L2.222|
0000d8  e003              B        |L2.226|
                  |L2.218|
0000da  6810              LDR      r0,[r2,#0]            ;665  ; Vmon1_value
0000dc  e001              B        |L2.226|
                  |L2.222|
;;;667                var32 = Vmon1_value + 85;
0000de  6810              LDR      r0,[r2,#0]  ; Vmon1_value
0000e0  3055              ADDS     r0,r0,#0x55
                  |L2.226|
;;;668            }
;;;669            var32 = var32 * REG_CorrectionV1;  
0000e2  6b63              LDR      r3,[r4,#0x34]  ; Correct_Parametet
0000e4  4343              MULS     r3,r0,r3
;;;670            if ((Polar & 0x01) == 0x01)		  
0000e6  7828              LDRB     r0,[r5,#0]  ; correct_por
0000e8  07c0              LSLS     r0,r0,#31
0000ea  d007              BEQ      |L2.252|
;;;671            {
;;;672                if (var32 < REG_ReadV_Offset1) 
0000ec  6b48              LDR      r0,[r1,#0x34]  ; Correct_Strong
0000ee  4298              CMP      r0,r3
0000f0  d901              BLS      |L2.246|
;;;673                {
;;;674                    var32 = 0;
0000f2  2000              MOVS     r0,#0
0000f4  e004              B        |L2.256|
                  |L2.246|
;;;675                }
;;;676                else var32 = var32 - REG_ReadV_Offset1;
0000f6  6b48              LDR      r0,[r1,#0x34]  ; Correct_Strong
0000f8  1a18              SUBS     r0,r3,r0
0000fa  e001              B        |L2.256|
                  |L2.252|
;;;677            }
;;;678            else var32 = var32 + REG_ReadV_Offset1;
0000fc  6b48              LDR      r0,[r1,#0x34]  ; Correct_Strong
0000fe  4418              ADD      r0,r0,r3
                  |L2.256|
;;;679            var32 = var32 >> 12;
000100  0b00              LSRS     r0,r0,#12
;;;680            if (var32 < 30) var32 = 0;				  //40mV以下清零
000102  281e              CMP      r0,#0x1e
000104  d200              BCS      |L2.264|
000106  2000              MOVS     r0,#0
                  |L2.264|
;;;681            Voltage = var32;
000108  62b0              STR      r0,[r6,#0x28]  ; Run_Control
;;;682            DISS_Voltage=Voltage;
00010a  6ab3              LDR      r3,[r6,#0x28]  ; Run_Control
00010c  ee003a90          VMOV     s1,r3
000110  eef80a60          VCVT.F32.U32 s1,s1
;;;683            DISS_Voltage=DISS_Voltage/1000;//计算显示电压
000114  ee801a80          VDIV.F32 s2,s1,s0
000118  ed881a00          VSTR     s2,[r8,#0]
                  |L2.284|
;;;684        }
;;;685        if(DISS_Voltage >= 30)
00011c  4bb9              LDR      r3,|L2.1028|
00011e  f8d89000          LDR      r9,[r8,#0]  ; DISS_Voltage
000122  4599              CMP      r9,r3
000124  db2b              BLT      |L2.382|
;;;686        {
;;;687            if(r_raly == 1)
000126  f8979000          LDRB     r9,[r7,#0]  ; r_raly
00012a  f1b90f01          CMP      r9,#1
00012e  d005              BEQ      |L2.316|
;;;688            {
;;;689                var32 = Vmon1_value;
;;;690            }else if(r_raly == 0){
000130  f8979000          LDRB     r9,[r7,#0]  ; r_raly
000134  f1b90f00          CMP      r9,#0
000138  d002              BEQ      |L2.320|
00013a  e003              B        |L2.324|
                  |L2.316|
00013c  6810              LDR      r0,[r2,#0]            ;689  ; Vmon1_value
00013e  e001              B        |L2.324|
                  |L2.320|
;;;691                var32 = Vmon1_value + 85;
000140  6810              LDR      r0,[r2,#0]  ; Vmon1_value
000142  3055              ADDS     r0,r0,#0x55
                  |L2.324|
;;;692            }
;;;693            var32 = var32 * REG_CorrectionV2;  
000144  6ba2              LDR      r2,[r4,#0x38]  ; Correct_Parametet
000146  4342              MULS     r2,r0,r2
;;;694            if ((Polar & 0x01) == 0x01)		  
000148  7828              LDRB     r0,[r5,#0]  ; correct_por
00014a  07c0              LSLS     r0,r0,#31
00014c  d007              BEQ      |L2.350|
;;;695            {
;;;696                if (var32 < REG_ReadV_Offset2) 
00014e  6b88              LDR      r0,[r1,#0x38]  ; Correct_Strong
000150  4290              CMP      r0,r2
000152  d901              BLS      |L2.344|
;;;697                {
;;;698                    var32 = 0;
000154  2000              MOVS     r0,#0
000156  e004              B        |L2.354|
                  |L2.344|
;;;699                }
;;;700                else var32 = var32 - REG_ReadV_Offset2;
000158  6b88              LDR      r0,[r1,#0x38]  ; Correct_Strong
00015a  1a10              SUBS     r0,r2,r0
00015c  e001              B        |L2.354|
                  |L2.350|
;;;701            }
;;;702            else var32 = var32 + REG_ReadV_Offset2;
00015e  6b88              LDR      r0,[r1,#0x38]  ; Correct_Strong
000160  4410              ADD      r0,r0,r2
                  |L2.354|
;;;703            var32 = var32 >> 12;
000162  0b00              LSRS     r0,r0,#12
;;;704            if (var32 < 30) var32 = 0;				  //40mV以下清零
000164  281e              CMP      r0,#0x1e
000166  d200              BCS      |L2.362|
000168  2000              MOVS     r0,#0
                  |L2.362|
;;;705            Voltage = var32;
00016a  62b0              STR      r0,[r6,#0x28]  ; Run_Control
;;;706            DISS_Voltage=Voltage;
00016c  6ab0              LDR      r0,[r6,#0x28]  ; Run_Control
00016e  ee000a90          VMOV     s1,r0
000172  eef80a60          VCVT.F32.U32 s1,s1
;;;707            DISS_Voltage=DISS_Voltage/1000;//计算显示电压
000176  ee801a80          VDIV.F32 s2,s1,s0
00017a  ed881a00          VSTR     s2,[r8,#0]
                  |L2.382|
;;;708        }
;;;709    	var32 = 0;
;;;710    	/*******************负载测量电流转换**************************************/
;;;711    	var32 = Imon1_value;
00017e  48a2              LDR      r0,|L2.1032|
000180  6802              LDR      r2,[r0,#0]  ; Imon1_value
;;;712    	var32 = var32 * REG_Load_A;  
000182  6860              LDR      r0,[r4,#4]  ; Correct_Parametet
000184  4350              MULS     r0,r2,r0
;;;713    	if ((Polar1 & 0x01) == 0x01)		  
000186  786a              LDRB     r2,[r5,#1]  ; correct_por
000188  07d2              LSLS     r2,r2,#31
00018a  d007              BEQ      |L2.412|
;;;714    	{
;;;715    		if (var32 < REG_LoadA_Offset) 
00018c  684a              LDR      r2,[r1,#4]  ; Correct_Strong
00018e  4282              CMP      r2,r0
000190  d901              BLS      |L2.406|
;;;716    		{
;;;717    			var32 = 0;
000192  2000              MOVS     r0,#0
000194  e004              B        |L2.416|
                  |L2.406|
;;;718    		}
;;;719    		else var32 = var32 - REG_LoadA_Offset;
000196  684a              LDR      r2,[r1,#4]  ; Correct_Strong
000198  1a80              SUBS     r0,r0,r2
00019a  e001              B        |L2.416|
                  |L2.412|
;;;720    	}
;;;721    	else var32 = var32 + REG_LoadA_Offset;
00019c  684a              LDR      r2,[r1,#4]  ; Correct_Strong
00019e  4410              ADD      r0,r0,r2
                  |L2.416|
;;;722    	var32 = var32 >> 12;
0001a0  0b00              LSRS     r0,r0,#12
;;;723    	Laod_Current = var32;
0001a2  6330              STR      r0,[r6,#0x30]  ; Run_Control
;;;724    	DISS_Current=Laod_Current;
0001a4  6b30              LDR      r0,[r6,#0x30]  ; Run_Control
0001a6  ee000a90          VMOV     s1,r0
0001aa  4898              LDR      r0,|L2.1036|
0001ac  eef80a60          VCVT.F32.U32 s1,s1
;;;725    	DISS_Current=DISS_Current/1000;//计算显示电流
0001b0  ee801a80          VDIV.F32 s2,s1,s0
0001b4  ed801a00          VSTR     s2,[r0,#0]
;;;726    	var32 = 0;	
;;;727    	/*************************负载电压和电流控制转换**************************************/
;;;728    	if(flag_Load_CC==1)
0001b8  4895              LDR      r0,|L2.1040|
;;;729    	{
;;;730    		var32 = SET_Current_Laod;
;;;731    		var32=var32<<12;   
;;;732    		if ((Polar1 & 0x04) == 0)			   
;;;733    		{
;;;734    			if (var32 < SET_LoadA_Offset) var32 = 0;
;;;735    			else var32 = var32 - SET_LoadA_Offset;
;;;736    		}
;;;737    		else var32 = var32 + SET_LoadA_Offset;
;;;738    		var32 = var32/SET_LoadA;
;;;739    		var32=var32>>1;
;;;740    		if(Flag_DAC_OFF==0)
;;;741    		{
;;;742    			Contr_Laod = var32;
0001ba  f8df925c          LDR      r9,|L2.1048|
0001be  f04f0200          MOV      r2,#0                 ;627
0001c2  6800              LDR      r0,[r0,#0]            ;728  ; flagD
0001c4  ea5f6a00          LSLS     r10,r0,#24            ;728
0001c8  4892              LDR      r0,|L2.1044|
0001ca  f8d08000          LDR      r8,[r0,#0]            ;728
0001ce  d523              BPL      |L2.536|
0001d0  6930              LDR      r0,[r6,#0x10]         ;730  ; Run_Control
0001d2  0300              LSLS     r0,r0,#12             ;731
0001d4  f895a001          LDRB     r10,[r5,#1]           ;732  ; correct_por
0001d8  ea5f7a4a          LSLS     r10,r10,#29           ;732
0001dc  d40a              BMI      |L2.500|
0001de  f8d1a008          LDR      r10,[r1,#8]           ;734  ; Correct_Strong
0001e2  4582              CMP      r10,r0                ;734
0001e4  d901              BLS      |L2.490|
0001e6  2000              MOVS     r0,#0                 ;734
0001e8  e007              B        |L2.506|
                  |L2.490|
0001ea  f8d1a008          LDR      r10,[r1,#8]           ;735  ; Correct_Strong
0001ee  eba0000a          SUB      r0,r0,r10             ;735
0001f2  e002              B        |L2.506|
                  |L2.500|
0001f4  f8d1a008          LDR      r10,[r1,#8]           ;737  ; Correct_Strong
0001f8  4450              ADD      r0,r0,r10             ;737
                  |L2.506|
0001fa  f8d4a008          LDR      r10,[r4,#8]           ;738  ; Correct_Parametet
0001fe  fbb0f0fa          UDIV     r0,r0,r10             ;738
000202  0840              LSRS     r0,r0,#1              ;739
000204  ea5f7808          LSLS     r8,r8,#28             ;740
000208  d401              BMI      |L2.526|
00020a  f8a90000          STRH     r0,[r9,#0]
                  |L2.526|
;;;743    		}
;;;744    		if(SET_Current_Laod==0)
00020e  6930              LDR      r0,[r6,#0x10]  ; Run_Control
000210  bb28              CBNZ     r0,|L2.606|
;;;745    		{
;;;746    			Contr_Laod=0;
000212  f8a92000          STRH     r2,[r9,#0]
000216  e022              B        |L2.606|
                  |L2.536|
;;;747    		}
;;;748    		var32 = 0;
;;;749    	}
;;;750    	else
;;;751    	{
;;;752    		var32 = SET_Voltage_Laod;
000218  68f0              LDR      r0,[r6,#0xc]  ; Run_Control
;;;753    		var32=var32<<12;   
00021a  0300              LSLS     r0,r0,#12
;;;754    		if ((Polar2 & 0x04) == 0)			   
00021c  f895a002          LDRB     r10,[r5,#2]  ; correct_por
000220  ea5f7a4a          LSLS     r10,r10,#29
000224  d40a              BMI      |L2.572|
;;;755    		{
;;;756    			if (var32 < SET_LoadA_Offset) var32 = 0;
000226  f8d1a008          LDR      r10,[r1,#8]  ; Correct_Strong
00022a  4582              CMP      r10,r0
00022c  d901              BLS      |L2.562|
00022e  2000              MOVS     r0,#0
000230  e007              B        |L2.578|
                  |L2.562|
;;;757    			else var32 = var32 - SET_LoadV_Offset;
000232  f8d1a010          LDR      r10,[r1,#0x10]  ; Correct_Strong
000236  eba0000a          SUB      r0,r0,r10
00023a  e002              B        |L2.578|
                  |L2.572|
;;;758    		}
;;;759    		else var32 = var32 + SET_LoadV_Offset;
00023c  f8d1a010          LDR      r10,[r1,#0x10]  ; Correct_Strong
000240  4450              ADD      r0,r0,r10
                  |L2.578|
;;;760    		var32 = var32/SET_LoadV;
000242  f8d4a010          LDR      r10,[r4,#0x10]  ; Correct_Parametet
000246  fbb0f0fa          UDIV     r0,r0,r10
;;;761    		var32=var32>>1;
00024a  0840              LSRS     r0,r0,#1
;;;762    		if(Flag_DAC_OFF==0)
00024c  ea5f7808          LSLS     r8,r8,#28
000250  d401              BMI      |L2.598|
;;;763    		{
;;;764    			Contr_Laod = var32;
000252  f8a90000          STRH     r0,[r9,#0]
                  |L2.598|
;;;765    		}
;;;766    		if(SET_Voltage_Laod==0)
000256  68f0              LDR      r0,[r6,#0xc]  ; Run_Control
000258  b908              CBNZ     r0,|L2.606|
;;;767    		{
;;;768    			Contr_Laod=0;
00025a  f8a92000          STRH     r2,[r9,#0]
                  |L2.606|
;;;769    		}
;;;770    		var32 = 0;
;;;771    	}
;;;772    /*****************************内阻值转换*******************************************/
;;;773    	var32 = Rmon_value;
00025e  f8df81bc          LDR      r8,|L2.1052|
000262  f8b80000          LDRH     r0,[r8,#0]  ; Rmon_value
;;;774        if(r_raly == 1)
000266  783f              LDRB     r7,[r7,#0]  ; r_raly
000268  2f01              CMP      r7,#1
00026a  d024              BEQ      |L2.694|
;;;775        {
;;;776            var32 = var32 * REG_CorrectionR;  
;;;777    //         if ((Polar3 & 0x01) == 0x01)		  
;;;778    //         {
;;;779    //             if (var32 < REG_ReadR_Offset) 
;;;780    //             {
;;;781    //                 var32 = 0;
;;;782    //             }
;;;783    //             else var32 = var32 - REG_ReadR_Offset;
;;;784    //         }
;;;785    //        else
;;;786                var32 = var32 - REG_ReadR_Offset;
;;;787            var32 = var32 >> 12;
;;;788            if (var32 < 1)
;;;789            {
;;;790                var32 = 0;				  //去拢
;;;791            }
;;;792            R_VLUE = var32;
;;;793            var32 = 0;
;;;794        }else{
;;;795            var32 = var32 * REG_CorrectionRL;  
00026c  6ae7              LDR      r7,[r4,#0x2c]  ; Correct_Parametet
00026e  4347              MULS     r7,r0,r7
;;;796    //         if ((Polar3 & 0x01) == 0x01)		  
;;;797    //         {
;;;798    //             if (var32 < REG_ReadRL_Offset) 
;;;799    //             {
;;;800    //                 var32 = 0;
;;;801    //             }
;;;802    //             else var32 = var32 - REG_ReadRL_Offset;
;;;803    //         }
;;;804    //        else
;;;805                var32 = var32 - REG_ReadRL_Offset;
000270  6ac8              LDR      r0,[r1,#0x2c]  ; Correct_Strong
000272  1a38              SUBS     r0,r7,r0
;;;806            var32 = var32 >> 12;
000274  0b00              LSRS     r0,r0,#12
;;;807            if (var32 < 1)
;;;808            {
;;;809                var32 = 0;				  //去拢
;;;810            }
;;;811            R_VLUE = var32;
000276  6370              STR      r0,[r6,#0x34]  ; Run_Control
;;;812            if(R_VLUE > 100)
000278  6b70              LDR      r0,[r6,#0x34]  ; Run_Control
00027a  2864              CMP      r0,#0x64
00027c  d90a              BLS      |L2.660|
;;;813            {
;;;814                var32 = Rmon_value;
00027e  f8b87000          LDRH     r7,[r8,#0]  ; Rmon_value
;;;815                var32 = var32 * REG_CorrectionRH;  
000282  6b20              LDR      r0,[r4,#0x30]  ; Correct_Parametet
000284  4378              MULS     r0,r7,r0
;;;816    //             if ((Polar1 & 0x04) == 0x04)		  
;;;817    //             {
;;;818    //                 if (var32 < REG_ReadRH_Offset) 
;;;819    //                 {
;;;820    //                     var32 = 0;
;;;821    //                 }
;;;822    //                 else var32 = var32 - REG_ReadRH_Offset;
;;;823    //             }
;;;824    //            else
;;;825                    var32 = var32 + REG_ReadRH_Offset;
000286  6b0f              LDR      r7,[r1,#0x30]  ; Correct_Strong
000288  4438              ADD      r0,r0,r7
;;;826                var32 = var32 >> 12;
00028a  0b00              LSRS     r0,r0,#12
;;;827                if (var32 < 5) var32 = 0;				  //40mV去拢
00028c  2805              CMP      r0,#5
00028e  d200              BCS      |L2.658|
000290  2000              MOVS     r0,#0
                  |L2.658|
;;;828                R_VLUE = var32;
000292  6370              STR      r0,[r6,#0x34]  ; Run_Control
                  |L2.660|
;;;829            }
;;;830            var32 = 0;
;;;831        }
;;;832    	/*****************************稳压电源测量电压转换*******************************************/
;;;833    	var32 = Vmon_value;
000294  4f62              LDR      r7,|L2.1056|
000296  f8b78000          LDRH     r8,[r7,#0]  ; Vmon_value
;;;834    	var32 = var32 * REG_POWERV;  
00029a  6a20              LDR      r0,[r4,#0x20]  ; Correct_Parametet
00029c  fb00f008          MUL      r0,r0,r8
;;;835    	if ((Polar5 & 0x01) == 0x01)		  
0002a0  f8958005          LDRB     r8,[r5,#5]  ; correct_por
0002a4  ea5f78c8          LSLS     r8,r8,#31
0002a8  d011              BEQ      |L2.718|
;;;836    	{
;;;837    		if (var32 < REG_POWERV_Offset) 
0002aa  f8d18020          LDR      r8,[r1,#0x20]  ; Correct_Strong
0002ae  4580              CMP      r8,r0
0002b0  d908              BLS      |L2.708|
;;;838    		{
;;;839    			var32 = 0;
0002b2  2000              MOVS     r0,#0
0002b4  e00e              B        |L2.724|
                  |L2.694|
0002b6  6967              LDR      r7,[r4,#0x14]         ;776  ; Correct_Parametet
0002b8  4347              MULS     r7,r0,r7              ;776
0002ba  6948              LDR      r0,[r1,#0x14]         ;786  ; Correct_Strong
0002bc  1a38              SUBS     r0,r7,r0              ;786
0002be  0b00              LSRS     r0,r0,#12             ;787
0002c0  6370              STR      r0,[r6,#0x34]         ;792  ; Run_Control
0002c2  e7e7              B        |L2.660|
                  |L2.708|
;;;840    		}
;;;841    		else var32 = var32 - REG_POWERV_Offset;
0002c4  f8d18020          LDR      r8,[r1,#0x20]  ; Correct_Strong
0002c8  eba00008          SUB      r0,r0,r8
0002cc  e002              B        |L2.724|
                  |L2.718|
;;;842    	}
;;;843    	else var32 = var32 + REG_POWERV_Offset;
0002ce  f8d18020          LDR      r8,[r1,#0x20]  ; Correct_Strong
0002d2  4440              ADD      r0,r0,r8
                  |L2.724|
;;;844    	var32 = var32 >> 14;
0002d4  0b80              LSRS     r0,r0,#14
;;;845    	if (var32 < 40) var32 = 0;				  //40mV以下清零
0002d6  2828              CMP      r0,#0x28
0002d8  d200              BCS      |L2.732|
0002da  2000              MOVS     r0,#0
                  |L2.732|
;;;846    	POW_Voltage = var32;
0002dc  6270              STR      r0,[r6,#0x24]  ; Run_Control
;;;847    	DISS_POW_Voltage=POW_Voltage;
0002de  6a70              LDR      r0,[r6,#0x24]  ; Run_Control
0002e0  f8df8140          LDR      r8,|L2.1060|
0002e4  ee000a90          VMOV     s1,r0
0002e8  eef81a60          VCVT.F32.U32 s3,s1
;;;848    	DISS_POW_Voltage=DISS_POW_Voltage/100;//计算显示电压
0002ec  ed9f1a4e          VLDR     s2,|L2.1064|
0002f0  eec10a81          VDIV.F32 s1,s3,s2
0002f4  edc80a00          VSTR     s1,[r8,#0]
;;;849        if(DISS_POW_Voltage >= 10)
0002f8  ee100a90          VMOV     r0,s1
0002fc  4560              CMP      r0,r12
0002fe  db25              BLT      |L2.844|
;;;850        {
;;;851            var32 = Vmon_value;
000300  f8b7c000          LDRH     r12,[r7,#0]  ; Vmon_value
;;;852            var32 = var32 * REG_POWERV1;  
000304  6be0              LDR      r0,[r4,#0x3c]  ; Correct_Parametet
000306  fb00f00c          MUL      r0,r0,r12
;;;853            if ((Polar5 & 0x01) == 0x01)		  
00030a  f895c005          LDRB     r12,[r5,#5]  ; correct_por
00030e  ea5f7ccc          LSLS     r12,r12,#31
000312  d00a              BEQ      |L2.810|
;;;854            {
;;;855                if (var32 < REG_POWERV_Offset1) 
000314  f8d1c03c          LDR      r12,[r1,#0x3c]  ; Correct_Strong
000318  4584              CMP      r12,r0
00031a  d901              BLS      |L2.800|
;;;856                {
;;;857                    var32 = 0;
00031c  2000              MOVS     r0,#0
00031e  e007              B        |L2.816|
                  |L2.800|
;;;858                }
;;;859                else var32 = var32 - REG_POWERV_Offset1;
000320  f8d1c03c          LDR      r12,[r1,#0x3c]  ; Correct_Strong
000324  eba0000c          SUB      r0,r0,r12
000328  e002              B        |L2.816|
                  |L2.810|
;;;860            }
;;;861            else var32 = var32 + REG_POWERV_Offset1;
00032a  f8d1c03c          LDR      r12,[r1,#0x3c]  ; Correct_Strong
00032e  4460              ADD      r0,r0,r12
                  |L2.816|
;;;862            var32 = var32 >> 14;
000330  0b80              LSRS     r0,r0,#14
;;;863            if (var32 < 40) var32 = 0;				  //40mV去拢
000332  2828              CMP      r0,#0x28
000334  d200              BCS      |L2.824|
000336  2000              MOVS     r0,#0
                  |L2.824|
;;;864            POW_Voltage = var32;
000338  6270              STR      r0,[r6,#0x24]  ; Run_Control
;;;865            DISS_POW_Voltage=POW_Voltage;
00033a  6a70              LDR      r0,[r6,#0x24]  ; Run_Control
00033c  ee000a90          VMOV     s1,r0
000340  eef80a60          VCVT.F32.U32 s1,s1
;;;866            DISS_POW_Voltage=DISS_POW_Voltage/100;//蹋示支压
000344  eec01a81          VDIV.F32 s3,s1,s2
000348  edc81a00          VSTR     s3,[r8,#0]
                  |L2.844|
;;;867        }
;;;868        if(DISS_POW_Voltage >= 30)
00034c  f8d80000          LDR      r0,[r8,#0]  ; DISS_POW_Voltage
000350  4298              CMP      r0,r3
000352  db1d              BLT      |L2.912|
;;;869        {
;;;870            var32 = Vmon_value;
000354  883b              LDRH     r3,[r7,#0]  ; Vmon_value
;;;871            var32 = var32 * REG_POWERV2;  
000356  6c20              LDR      r0,[r4,#0x40]  ; Correct_Parametet
000358  4358              MULS     r0,r3,r0
;;;872            if ((Polar5 & 0x01) == 0x01)		  
00035a  796b              LDRB     r3,[r5,#5]  ; correct_por
00035c  07db              LSLS     r3,r3,#31
00035e  d007              BEQ      |L2.880|
;;;873            {
;;;874                if (var32 < REG_POWERV_Offset2) 
000360  6c0b              LDR      r3,[r1,#0x40]  ; Correct_Strong
000362  4283              CMP      r3,r0
000364  d901              BLS      |L2.874|
;;;875                {
;;;876                    var32 = 0;
000366  2000              MOVS     r0,#0
000368  e004              B        |L2.884|
                  |L2.874|
;;;877                }
;;;878                else var32 = var32 - REG_POWERV_Offset2;
00036a  6c0b              LDR      r3,[r1,#0x40]  ; Correct_Strong
00036c  1ac0              SUBS     r0,r0,r3
00036e  e001              B        |L2.884|
                  |L2.880|
;;;879            }
;;;880            else var32 = var32 + REG_POWERV_Offset2;
000370  6c0b              LDR      r3,[r1,#0x40]  ; Correct_Strong
000372  4418              ADD      r0,r0,r3
                  |L2.884|
;;;881            var32 = var32 >> 14;
000374  0b80              LSRS     r0,r0,#14
;;;882            if (var32 < 40) var32 = 0;				  //40mV去拢
000376  2828              CMP      r0,#0x28
000378  d200              BCS      |L2.892|
00037a  2000              MOVS     r0,#0
                  |L2.892|
;;;883            POW_Voltage = var32;
00037c  6270              STR      r0,[r6,#0x24]  ; Run_Control
;;;884            DISS_POW_Voltage=POW_Voltage;
00037e  6a70              LDR      r0,[r6,#0x24]  ; Run_Control
000380  ee000a90          VMOV     s1,r0
000384  eef80a60          VCVT.F32.U32 s1,s1
;;;885            DISS_POW_Voltage=DISS_POW_Voltage/100;//蹋示支压
000388  eec01a81          VDIV.F32 s3,s1,s2
00038c  edc81a00          VSTR     s3,[r8,#0]
                  |L2.912|
;;;886        }
;;;887    	var32 = 0;
;;;888    /*****************************稳压电源测量电流转换*******************************************/
;;;889    	var32 = Imon_value;
000390  4826              LDR      r0,|L2.1068|
000392  8803              LDRH     r3,[r0,#0]  ; Imon_value
;;;890    	if(flag_CC_MODE==1)
000394  4826              LDR      r0,|L2.1072|
;;;891    	{
;;;892    		var32 = var32 * REG_POWERA;	   
;;;893    		if ((Polar4 & 0x01) == 0x01)			   
;;;894    		{
;;;895    			if (var32 < REG_POWERA_Offset) var32 = 0;
;;;896    			else var32 = var32 - REG_POWERA_Offset;
;;;897    		}
;;;898    		else
;;;899    		{
;;;900    			var32 = var32 + REG_POWERA_Offset;
;;;901    		}	
;;;902    		var32 = var32 >> 14;
;;;903    		Current = var32;;
;;;904    		DISS_POW_Current=Current;
000396  4f27              LDR      r7,|L2.1076|
000398  6800              LDR      r0,[r0,#0]            ;890  ; flagE
00039a  0600              LSLS     r0,r0,#24             ;890
00039c  d51a              BPL      |L2.980|
00039e  69a0              LDR      r0,[r4,#0x18]         ;892  ; Correct_Parametet
0003a0  4358              MULS     r0,r3,r0              ;892
0003a2  792b              LDRB     r3,[r5,#4]            ;893  ; correct_por
0003a4  07db              LSLS     r3,r3,#31             ;893
0003a6  d007              BEQ      |L2.952|
0003a8  698b              LDR      r3,[r1,#0x18]         ;895  ; Correct_Strong
0003aa  4283              CMP      r3,r0                 ;895
0003ac  d901              BLS      |L2.946|
0003ae  2000              MOVS     r0,#0                 ;895
0003b0  e004              B        |L2.956|
                  |L2.946|
0003b2  698b              LDR      r3,[r1,#0x18]         ;896  ; Correct_Strong
0003b4  1ac0              SUBS     r0,r0,r3              ;896
0003b6  e001              B        |L2.956|
                  |L2.952|
0003b8  698b              LDR      r3,[r1,#0x18]         ;900  ; Correct_Strong
0003ba  4418              ADD      r0,r0,r3              ;900
                  |L2.956|
0003bc  0b80              LSRS     r0,r0,#14             ;902
0003be  62f0              STR      r0,[r6,#0x2c]         ;903  ; Run_Control
0003c0  6af0              LDR      r0,[r6,#0x2c]  ; Run_Control
0003c2  ee000a90          VMOV     s1,r0
0003c6  eef80a60          VCVT.F32.U32 s1,s1
;;;905    		DISS_POW_Current=DISS_POW_Current/1000;//计算显示电流
0003ca  ee801a80          VDIV.F32 s2,s1,s0
0003ce  ed871a00          VSTR     s2,[r7,#0]
0003d2  e041              B        |L2.1112|
                  |L2.980|
;;;906    	}
;;;907    	else
;;;908    	{
;;;909    		var32 = var32 * CON_POWERA;	   
0003d4  6aa0              LDR      r0,[r4,#0x28]  ; Correct_Parametet
0003d6  4358              MULS     r0,r3,r0
;;;910    		if ((Polar3 & 0x04) == 0x04)			   
0003d8  78eb              LDRB     r3,[r5,#3]  ; correct_por
0003da  075b              LSLS     r3,r3,#29
0003dc  d52f              BPL      |L2.1086|
;;;911    		{
;;;912    			if (var32 < CON_POWERA_Offset) var32 = 0;
0003de  6a8b              LDR      r3,[r1,#0x28]  ; Correct_Strong
0003e0  4283              CMP      r3,r0
0003e2  d929              BLS      |L2.1080|
0003e4  2000              MOVS     r0,#0
0003e6  e02c              B        |L2.1090|
                  |L2.1000|
                          DCD      r_raly
                  |L2.1004|
                          DCD      Vmon1_value
                  |L2.1008|
                          DCD      ||.bss||
                  |L2.1012|
                          DCD      ||area_number.8||+0x1c
                  |L2.1016|
                          DCD      DISS_Voltage
                  |L2.1020|
0003fc  447a0000          DCFS     0x447a0000 ; 1000
                  |L2.1024|
                          DCD      0x41200000
                  |L2.1028|
                          DCD      0x41f00000
                  |L2.1032|
                          DCD      Imon1_value
                  |L2.1036|
                          DCD      DISS_Current
                  |L2.1040|
                          DCD      flagD
                  |L2.1044|
                          DCD      flagB
                  |L2.1048|
                          DCD      Contr_Laod
                  |L2.1052|
                          DCD      Rmon_value
                  |L2.1056|
                          DCD      Vmon_value
                  |L2.1060|
                          DCD      DISS_POW_Voltage
                  |L2.1064|
000428  42c80000          DCFS     0x42c80000 ; 100
                  |L2.1068|
                          DCD      Imon_value
                  |L2.1072|
                          DCD      flagE
                  |L2.1076|
                          DCD      DISS_POW_Current
                  |L2.1080|
;;;913    			else var32 = var32 - CON_POWERA_Offset;
000438  6a8b              LDR      r3,[r1,#0x28]  ; Correct_Strong
00043a  1ac0              SUBS     r0,r0,r3
00043c  e001              B        |L2.1090|
                  |L2.1086|
;;;914    		}
;;;915    		else
;;;916    		{
;;;917    			var32 = var32 + CON_POWERA_Offset;
00043e  6a8b              LDR      r3,[r1,#0x28]  ; Correct_Strong
000440  4418              ADD      r0,r0,r3
                  |L2.1090|
;;;918    		}	
;;;919    		var32 = var32 >> 14;
000442  0b80              LSRS     r0,r0,#14
;;;920    		Current = var32;;
000444  62f0              STR      r0,[r6,#0x2c]  ; Run_Control
;;;921    		DISS_POW_Current=Current;
000446  6af0              LDR      r0,[r6,#0x2c]  ; Run_Control
000448  ee000a90          VMOV     s1,r0
00044c  eef80a60          VCVT.F32.U32 s1,s1
;;;922    		DISS_POW_Current=DISS_POW_Current/1000;//计算显示电流
000450  ee801a80          VDIV.F32 s2,s1,s0
000454  ed871a00          VSTR     s2,[r7,#0]
                  |L2.1112|
;;;923    	}
;;;924    /**************************稳压电源设置电压转换******************************************/
;;;925    	var32 = SET_Voltage;
000458  6870              LDR      r0,[r6,#4]  ; Run_Control
;;;926    	var32=var32<<14;   
00045a  0380              LSLS     r0,r0,#14
;;;927    	if ((Polar5 & 0x04) == 0)			   
00045c  796b              LDRB     r3,[r5,#5]  ; correct_por
00045e  075b              LSLS     r3,r3,#29
000460  d407              BMI      |L2.1138|
;;;928    	{
;;;929    		if (var32 < SET_POWERV_Offset) var32 = 0;
000462  6a4b              LDR      r3,[r1,#0x24]  ; Correct_Strong
000464  4283              CMP      r3,r0
000466  d901              BLS      |L2.1132|
000468  2000              MOVS     r0,#0
00046a  e004              B        |L2.1142|
                  |L2.1132|
;;;930    		else var32 = var32 - SET_POWERV_Offset;
00046c  6a4b              LDR      r3,[r1,#0x24]  ; Correct_Strong
00046e  1ac0              SUBS     r0,r0,r3
000470  e001              B        |L2.1142|
                  |L2.1138|
;;;931    	}
;;;932    	else var32 = var32 + SET_POWERV_Offset;
000472  6a4b              LDR      r3,[r1,#0x24]  ; Correct_Strong
000474  4418              ADD      r0,r0,r3
                  |L2.1142|
;;;933    	var32 = var32/SET_POWERV;
000476  6a63              LDR      r3,[r4,#0x24]  ; Correct_Parametet
000478  fbb0f0f3          UDIV     r0,r0,r3
;;;934    	var32=var32>>1;
00047c  0840              LSRS     r0,r0,#1
;;;935    	Contr_Voltage = var32;
00047e  4b10              LDR      r3,|L2.1216|
000480  8018              STRH     r0,[r3,#0]
;;;936    	if(SET_Voltage==0)
000482  6870              LDR      r0,[r6,#4]  ; Run_Control
000484  b900              CBNZ     r0,|L2.1160|
;;;937    	{
;;;938    		Contr_Voltage=0;
000486  801a              STRH     r2,[r3,#0]
                  |L2.1160|
;;;939    	}
;;;940    	var32 = 0;
;;;941    /**************************稳压电源设置电流转换**************************************/
;;;942    	var32 = SET_Current;
000488  68b0              LDR      r0,[r6,#8]  ; Run_Control
;;;943    	var32=var32<<14;   
00048a  0380              LSLS     r0,r0,#14
;;;944    	if ((Polar4 & 0x04) == 0)			   
00048c  792b              LDRB     r3,[r5,#4]  ; correct_por
00048e  075b              LSLS     r3,r3,#29
000490  d407              BMI      |L2.1186|
;;;945    	{
;;;946    		if (var32 < SET_POWERA_Offset) var32 = 0;
000492  69cb              LDR      r3,[r1,#0x1c]  ; Correct_Strong
000494  4283              CMP      r3,r0
000496  d901              BLS      |L2.1180|
000498  2000              MOVS     r0,#0
00049a  e004              B        |L2.1190|
                  |L2.1180|
;;;947    		else var32 = var32 - SET_POWERA_Offset;
00049c  69c9              LDR      r1,[r1,#0x1c]  ; Correct_Strong
00049e  1a40              SUBS     r0,r0,r1
0004a0  e001              B        |L2.1190|
                  |L2.1186|
;;;948    	}
;;;949    	else var32 = var32 + SET_POWERA_Offset;
0004a2  69c9              LDR      r1,[r1,#0x1c]  ; Correct_Strong
0004a4  4408              ADD      r0,r0,r1
                  |L2.1190|
;;;950    	var32 = var32/SET_POWERA;
0004a6  69e1              LDR      r1,[r4,#0x1c]  ; Correct_Parametet
0004a8  fbb0f0f1          UDIV     r0,r0,r1
;;;951    	var32=var32>>1;
0004ac  0840              LSRS     r0,r0,#1
;;;952    	Contr_Current = var32;
0004ae  4905              LDR      r1,|L2.1220|
0004b0  8008              STRH     r0,[r1,#0]
;;;953    	if(SET_Current==0)
0004b2  68b0              LDR      r0,[r6,#8]  ; Run_Control
0004b4  2800              CMP      r0,#0
0004b6  d100              BNE      |L2.1210|
;;;954    	{
;;;955    		Contr_Current=0;
0004b8  800a              STRH     r2,[r1,#0]
                  |L2.1210|
;;;956    	}
;;;957    	
;;;958    	var32 = 0;
;;;959    }
0004ba  e8bd87f0          POP      {r4-r10,pc}
;;;960    /********************************************************************************
                          ENDP

0004be  0000              DCW      0x0000
                  |L2.1216|
                          DCD      Contr_Voltage
                  |L2.1220|
                          DCD      Contr_Current

                          AREA ||i.UART_Action||, CODE, READONLY, ALIGN=2

                  UART_Action PROC
;;;45     //===========================MODBUS协议=============================//
;;;46     void UART_Action(void)
000000  e92d5ff0          PUSH     {r4-r12,lr}
;;;47     {//RUT??ú
;;;48     	//ADDR  ???  ??????????   ??????????  ?????????   ????????  CRC? CRC?
;;;49     	//????úADDR ??? ???????  ???  ??? ..... CRC?  CRC?
;;;50     	if (g_tModS.RxBuf[0] == ADDR)
000004  4cfe              LDR      r4,|L3.1024|
000006  4eff              LDR      r6,|L3.1028|
000008  7821              LDRB     r1,[r4,#0]  ; g_tModS
00000a  7870              LDRB     r0,[r6,#1]  ; ADDR
;;;51     	{
;;;52     		if (g_tModS.RxBuf[1] == (0x03))	//??3 ???   
;;;53     		{																		 
;;;54     			vu8 i;
;;;55     			vu16 crc_result;
;;;56     			crc_result = (g_tModS.RxBuf[6] << 8) + g_tModS.RxBuf[7];
;;;57     			if ((crc_result == Hardware_CRC(g_tModS.RxBuf,6)) ||(crc_result == 0) )
;;;58     			{
;;;59     				if (g_tModS.RxBuf[3] < 0x07)    								//?????????Χ?
;;;60     				{
;;;61     					if ((g_tModS.RxBuf[3] + g_tModS.RxBuf[5]) < 0x0F)		//??????????????????Χ?
;;;62     					{							
;;;63     						UART_Buffer_Send[0] = ADDR;
00000c  4ffe              LDR      r7,|L3.1032|
;;;64     						UART_Buffer_Send[1] = 0x03;
;;;65     						UART_Buffer_Send[2] = g_tModS.RxBuf[5]*2;
;;;66     						for (i=0;i<UART_Buffer_Send[2];i++)
;;;67     						{
;;;68     							if ((i % 2) == 0) UART_Buffer_Send[3 + i] = Run_Control[g_tModS.RxBuf[3] + i / 2] >> 8;
;;;69     							else UART_Buffer_Send[3 + i] = Run_Control[g_tModS.RxBuf[3] + i / 2];														
;;;70     						}
;;;71     						crc_result = Hardware_CRC(UART_Buffer_Send,UART_Buffer_Send[2] + 3);
;;;72     						UART_Buffer_Send[3 + UART_Buffer_Send[2]] = crc_result >> 8;
;;;73     						UART_Buffer_Send[4 + UART_Buffer_Send[2]] = crc_result;
;;;74     						Transmit_BUFFERsize = UART_Buffer_Send[2] + 5;
00000e  f8dfa3fc          LDR      r10,|L3.1036|
;;;75     						UART_SEND_flag=1;
000012  f8df83fc          LDR      r8,|L3.1040|
000016  f8df93fc          LDR      r9,|L3.1044|
00001a  4281              CMP      r1,r0                 ;50
00001c  d142              BNE      |L3.164|
00001e  7860              LDRB     r0,[r4,#1]            ;52  ; g_tModS
000020  2803              CMP      r0,#3                 ;52
000022  d13f              BNE      |L3.164|
000024  79e0              LDRB     r0,[r4,#7]            ;56  ; g_tModS
000026  79a1              LDRB     r1,[r4,#6]            ;56  ; g_tModS
000028  eb002001          ADD      r0,r0,r1,LSL #8       ;56
00002c  b285              UXTH     r5,r0                 ;56
00002e  2106              MOVS     r1,#6                 ;57
000030  4620              MOV      r0,r4                 ;57
000032  f7fffffe          BL       Hardware_CRC
000036  42a8              CMP      r0,r5                 ;57
000038  d000              BEQ      |L3.60|
00003a  bb9d              CBNZ     r5,|L3.164|
                  |L3.60|
00003c  78e1              LDRB     r1,[r4,#3]            ;59  ; g_tModS
00003e  2907              CMP      r1,#7                 ;59
000040  d230              BCS      |L3.164|
000042  7960              LDRB     r0,[r4,#5]            ;61  ; g_tModS
000044  180a              ADDS     r2,r1,r0              ;61
000046  2a0f              CMP      r2,#0xf               ;61
000048  d22c              BCS      |L3.164|
00004a  7872              LDRB     r2,[r6,#1]            ;63  ; ADDR
00004c  703a              STRB     r2,[r7,#0]            ;63
00004e  2203              MOVS     r2,#3                 ;64
000050  707a              STRB     r2,[r7,#1]            ;64
000052  0040              LSLS     r0,r0,#1              ;65
000054  70b8              STRB     r0,[r7,#2]            ;65
000056  2000              MOVS     r0,#0                 ;66
000058  e009              B        |L3.110|
                  |L3.90|
00005a  07c2              LSLS     r2,r0,#31             ;68
00005c  d037              BEQ      |L3.206|
00005e  eb010250          ADD      r2,r1,r0,LSR #1       ;69
000062  f8592022          LDR      r2,[r9,r2,LSL #2]     ;69
000066  183b              ADDS     r3,r7,r0              ;69
000068  70da              STRB     r2,[r3,#3]            ;69
                  |L3.106|
00006a  1c40              ADDS     r0,r0,#1              ;66
00006c  b2c0              UXTB     r0,r0                 ;66
                  |L3.110|
00006e  78ba              LDRB     r2,[r7,#2]            ;66  ; UART_Buffer_Send
000070  4282              CMP      r2,r0                 ;66
000072  d8f2              BHI      |L3.90|
000074  78b8              LDRB     r0,[r7,#2]            ;71  ; UART_Buffer_Send
000076  1cc0              ADDS     r0,r0,#3              ;71
000078  b2c1              UXTB     r1,r0                 ;71
00007a  48e3              LDR      r0,|L3.1032|
00007c  f7fffffe          BL       Hardware_CRC
000080  78bb              LDRB     r3,[r7,#2]            ;72  ; UART_Buffer_Send
000082  0a02              LSRS     r2,r0,#8              ;72
000084  49e0              LDR      r1,|L3.1032|
000086  1cc9              ADDS     r1,r1,#3              ;72
000088  545a              STRB     r2,[r3,r1]            ;72
00008a  78ba              LDRB     r2,[r7,#2]            ;73  ; UART_Buffer_Send
00008c  1c49              ADDS     r1,r1,#1              ;73
00008e  5450              STRB     r0,[r2,r1]            ;73
000090  78b8              LDRB     r0,[r7,#2]            ;74  ; UART_Buffer_Send
000092  1d40              ADDS     r0,r0,#5              ;74
000094  f88a0000          STRB     r0,[r10,#0]           ;74
000098  f8d80000          LDR      r0,[r8,#0]  ; flagA
00009c  f0400010          ORR      r0,r0,#0x10
0000a0  f8c80000          STR      r0,[r8,#0]  ; flagA
                  |L3.164|
;;;76     					}
;;;77     				}
;;;78     			}	
;;;79     		}
;;;80     	} 
;;;81     //===============================д???=================================
;;;82     	if ((g_tModS.RxBuf[0] == 0) || (g_tModS.RxBuf[0] == ADDR) || (g_tModS.RxBuf[0] == ((ADDR-1)/4+100)))	 
0000a4  7821              LDRB     r1,[r4,#0]  ; g_tModS
0000a6  b161              CBZ      r1,|L3.194|
0000a8  7870              LDRB     r0,[r6,#1]  ; ADDR
0000aa  4281              CMP      r1,r0
0000ac  d009              BEQ      |L3.194|
0000ae  7870              LDRB     r0,[r6,#1]  ; ADDR
0000b0  1e40              SUBS     r0,r0,#1
0000b2  17c2              ASRS     r2,r0,#31
0000b4  eb007092          ADD      r0,r0,r2,LSR #30
0000b8  2264              MOVS     r2,#0x64
0000ba  eb0200a0          ADD      r0,r2,r0,ASR #2
0000be  4288              CMP      r0,r1
0000c0  d179              BNE      |L3.438|
                  |L3.194|
;;;83     	{
;;;84     		vu8 var8;
;;;85     		vu8 a=0;
;;;86     		vu16 var16;
;;;87     		vu16 crc_result;
;;;88     //=========================????6 д?????===========================
;;;89     		if (g_tModS.RxBuf[1] == 6)                                 //???????ˇ????6
0000c2  7860              LDRB     r0,[r4,#1]  ; g_tModS
;;;90     		{
;;;91     			if (g_tModS.RxBuf[3] < 0x05)							  //????д???ˇ???д?Χ?
;;;92     			{
;;;93     				crc_result = (g_tModS.RxBuf[6] << 8) + g_tModS.RxBuf[7];
;;;94     				if ((crc_result == Hardware_CRC(g_tModS.RxBuf,6)) ||(crc_result == 0) )		  //??CRC
;;;95     				{
;;;96     					var16 = (g_tModS.RxBuf[4] << 8) + g_tModS.RxBuf[5];	//?5 6?????д????
;;;97     					var8 = g_tModS.RxBuf[3];	        						//?3 4?????д????
;;;98     					Run_Control[var8] = var16;			    //???д??????
;;;99     
;;;100    					if (g_tModS.RxBuf[0] == ADDR)							//??????????
;;;101    					{
;;;102    						for (a=0;a<8;a++)
;;;103    						{UART_Buffer_Send[a] = g_tModS.RxBuf[a];}
;;;104    						Transmit_BUFFERsize = 8;						//??????ì???CRC
0000c4  f04f0b08          MOV      r11,#8
0000c8  2806              CMP      r0,#6                 ;89
0000ca  d008              BEQ      |L3.222|
0000cc  e032              B        |L3.308|
                  |L3.206|
0000ce  eb010250          ADD      r2,r1,r0,LSR #1       ;68
0000d2  f8592022          LDR      r2,[r9,r2,LSL #2]     ;68
0000d6  0a12              LSRS     r2,r2,#8              ;68
0000d8  183b              ADDS     r3,r7,r0              ;68
0000da  70da              STRB     r2,[r3,#3]            ;68
0000dc  e7c5              B        |L3.106|
                  |L3.222|
0000de  78e0              LDRB     r0,[r4,#3]            ;91  ; g_tModS
0000e0  2805              CMP      r0,#5                 ;91
0000e2  d227              BCS      |L3.308|
0000e4  79e0              LDRB     r0,[r4,#7]            ;93  ; g_tModS
0000e6  79a1              LDRB     r1,[r4,#6]            ;93  ; g_tModS
0000e8  eb002001          ADD      r0,r0,r1,LSL #8       ;93
0000ec  b285              UXTH     r5,r0                 ;93
0000ee  2106              MOVS     r1,#6                 ;94
0000f0  48c3              LDR      r0,|L3.1024|
0000f2  f7fffffe          BL       Hardware_CRC
0000f6  42a8              CMP      r0,r5                 ;94
0000f8  d000              BEQ      |L3.252|
0000fa  b9dd              CBNZ     r5,|L3.308|
                  |L3.252|
0000fc  7960              LDRB     r0,[r4,#5]            ;96  ; g_tModS
0000fe  7921              LDRB     r1,[r4,#4]            ;96  ; g_tModS
000100  eb002001          ADD      r0,r0,r1,LSL #8       ;96
000104  b280              UXTH     r0,r0                 ;96
000106  78e1              LDRB     r1,[r4,#3]            ;97  ; g_tModS
000108  f8490021          STR      r0,[r9,r1,LSL #2]     ;98
00010c  7820              LDRB     r0,[r4,#0]            ;100  ; g_tModS
00010e  7871              LDRB     r1,[r6,#1]            ;100  ; ADDR
000110  4288              CMP      r0,r1                 ;100
000112  d10f              BNE      |L3.308|
000114  2000              MOVS     r0,#0                 ;102
000116  e003              B        |L3.288|
                  |L3.280|
000118  5c21              LDRB     r1,[r4,r0]            ;103
00011a  5439              STRB     r1,[r7,r0]            ;103
00011c  1c40              ADDS     r0,r0,#1              ;102
00011e  b2c0              UXTB     r0,r0                 ;102
                  |L3.288|
000120  2808              CMP      r0,#8                 ;102
000122  d3f9              BCC      |L3.280|
000124  f88ab000          STRB     r11,[r10,#0]
;;;105    						UART_SEND_flag=1;
000128  f8d80000          LDR      r0,[r8,#0]  ; flagA
00012c  f0400010          ORR      r0,r0,#0x10
000130  f8c80000          STR      r0,[r8,#0]  ; flagA
                  |L3.308|
;;;106    					}
;;;107    				}
;;;108    			}
;;;109    		}
;;;110    //=======================================??ˇ??16ìlд???===========================================
;;;111    //???16??:
;;;112    //     ?? ?? д??????  д?????? д????  д???? д????  ??? ??? ......CRC? CRC?
;;;113    //??????:
;;;114    //     ?? ?? д??????  д??????  д????? д?????  CRC?  CRC? 
;;;115    		if (g_tModS.RxBuf[1] == 16)										  
000134  7860              LDRB     r0,[r4,#1]  ; g_tModS
000136  2810              CMP      r0,#0x10
000138  d13d              BNE      |L3.438|
;;;116    		{	
;;;117    			if ((g_tModS.RxBuf[6] == 6) && (g_tModS.RxBuf[3] == 0x00))	//??lд??????
00013a  79a0              LDRB     r0,[r4,#6]  ; g_tModS
00013c  2806              CMP      r0,#6
00013e  d13a              BNE      |L3.438|
000140  78e0              LDRB     r0,[r4,#3]  ; g_tModS
000142  bbc0              CBNZ     r0,|L3.438|
;;;118    			{
;;;119    				crc_result = (g_tModS.RxBuf[13] << 8) + g_tModS.RxBuf[14];
000144  7ba0              LDRB     r0,[r4,#0xe]  ; g_tModS
000146  7b61              LDRB     r1,[r4,#0xd]  ; g_tModS
000148  eb002001          ADD      r0,r0,r1,LSL #8
00014c  b285              UXTH     r5,r0
;;;120    				if ((crc_result == Hardware_CRC(g_tModS.RxBuf,13)) ||(crc_result == 0) )	   //??CRC
00014e  210d              MOVS     r1,#0xd
000150  48ab              LDR      r0,|L3.1024|
000152  f7fffffe          BL       Hardware_CRC
000156  42a8              CMP      r0,r5
000158  d000              BEQ      |L3.348|
00015a  bb65              CBNZ     r5,|L3.438|
                  |L3.348|
;;;121    				{												
;;;122    					for (var8=0;var8<3;var8++) Run_Control[var8] = (g_tModS.RxBuf[var8*2+7] << 8) + g_tModS.RxBuf[var8*2+8];
00015c  2000              MOVS     r0,#0
00015e  e009              B        |L3.372|
                  |L3.352|
000160  eb040140          ADD      r1,r4,r0,LSL #1
000164  7a0a              LDRB     r2,[r1,#8]
000166  79c9              LDRB     r1,[r1,#7]
000168  eb022101          ADD      r1,r2,r1,LSL #8
00016c  f8491020          STR      r1,[r9,r0,LSL #2]
000170  1c40              ADDS     r0,r0,#1
000172  b2c0              UXTB     r0,r0
                  |L3.372|
000174  2803              CMP      r0,#3
000176  d3f3              BCC      |L3.352|
;;;123    
;;;124    					if (g_tModS.RxBuf[0] == ADDR)					  //?????????
000178  7820              LDRB     r0,[r4,#0]  ; g_tModS
00017a  7871              LDRB     r1,[r6,#1]  ; ADDR
00017c  4288              CMP      r0,r1
00017e  d11a              BNE      |L3.438|
;;;125    					{
;;;126    						UART_Buffer_Send[0] = ADDR;
000180  7870              LDRB     r0,[r6,#1]  ; ADDR
000182  7038              STRB     r0,[r7,#0]
;;;127    						UART_Buffer_Send[1] = 16;
000184  2010              MOVS     r0,#0x10
000186  7078              STRB     r0,[r7,#1]
;;;128    						UART_Buffer_Send[2] = g_tModS.RxBuf[2];
000188  78a0              LDRB     r0,[r4,#2]  ; g_tModS
00018a  70b8              STRB     r0,[r7,#2]
;;;129    						UART_Buffer_Send[3] = g_tModS.RxBuf[3];
00018c  78e0              LDRB     r0,[r4,#3]  ; g_tModS
00018e  70f8              STRB     r0,[r7,#3]
;;;130    						UART_Buffer_Send[4] = g_tModS.RxBuf[4];
000190  7920              LDRB     r0,[r4,#4]  ; g_tModS
000192  7138              STRB     r0,[r7,#4]
;;;131    						UART_Buffer_Send[5] = g_tModS.RxBuf[5];
000194  7960              LDRB     r0,[r4,#5]  ; g_tModS
000196  7178              STRB     r0,[r7,#5]
;;;132    						crc_result = Hardware_CRC(UART_Buffer_Send,6);	 //??CRC?
000198  2106              MOVS     r1,#6
00019a  489b              LDR      r0,|L3.1032|
00019c  f7fffffe          BL       Hardware_CRC
;;;133    						UART_Buffer_Send[6] = crc_result>>8;
0001a0  0a01              LSRS     r1,r0,#8
0001a2  71b9              STRB     r1,[r7,#6]
;;;134    						UART_Buffer_Send[7] = crc_result;				 
0001a4  71f8              STRB     r0,[r7,#7]
;;;135    						Transmit_BUFFERsize = 8;					     //?????????
0001a6  f88ab000          STRB     r11,[r10,#0]
;;;136    						UART_SEND_flag=1;
0001aa  f8d80000          LDR      r0,[r8,#0]  ; flagA
0001ae  f0400010          ORR      r0,r0,#0x10
0001b2  f8c80000          STR      r0,[r8,#0]  ; flagA
                  |L3.438|
;;;137    					}
;;;138    				}
;;;139    			}			 
;;;140    		}
;;;141    	}
;;;142    /*************************************???У???**************************************************************************/
;;;143    	if (((g_tModS.RxBuf[0] == 0x01)&&(g_tModS.RxBuf[2] == 0xA5))||(flag_ADJ_ON==1))			   //??У?
0001b6  7820              LDRB     r0,[r4,#0]  ; g_tModS
0001b8  f8df925c          LDR      r9,|L3.1048|
0001bc  2801              CMP      r0,#1
0001be  d102              BNE      |L3.454|
0001c0  78a0              LDRB     r0,[r4,#2]  ; g_tModS
0001c2  28a5              CMP      r0,#0xa5
0001c4  d003              BEQ      |L3.462|
                  |L3.454|
0001c6  f8d90000          LDR      r0,[r9,#0]  ; flagF
0001ca  0780              LSLS     r0,r0,#30
0001cc  d57e              BPL      |L3.716|
                  |L3.462|
;;;144    	{ 
;;;145    		if(g_tModS.RxBuf[1] == 0x01)
0001ce  7860              LDRB     r0,[r4,#1]  ; g_tModS
;;;146    		{
;;;147    			flag_ADJ_VL=0;
;;;148    			Modify_A_READ = Vmon1_value;//????
0001d0  f8dfb248          LDR      r11,|L3.1052|
0001d4  46a2              MOV      r10,r4                ;145
0001d6  2801              CMP      r0,#1                 ;145
0001d8  d10f              BNE      |L3.506|
0001da  f8d91000          LDR      r1,[r9,#0]            ;147  ; flagF
0001de  f0210104          BIC      r1,r1,#4              ;147
0001e2  f8c91000          STR      r1,[r9,#0]            ;147  ; flagF
0001e6  f8db1000          LDR      r1,[r11,#0]  ; Vmon1_value
0001ea  6071              STR      r1,[r6,#4]  ; Modify_A_READ
;;;149    			Modify_A_ACT = (g_tModS.RxBuf[3] << 8) + g_tModS.RxBuf[4];//????
0001ec  f89a1004          LDRB     r1,[r10,#4]  ; g_tModS
0001f0  f89a2003          LDRB     r2,[r10,#3]  ; g_tModS
0001f4  eb012102          ADD      r1,r1,r2,LSL #8
0001f8  60f1              STR      r1,[r6,#0xc]  ; Modify_A_ACT
                  |L3.506|
;;;150    		}
;;;151    		if (g_tModS.RxBuf[1] == 0x02)			   //???У???
;;;152    		{
;;;153    			vu32 var16;
;;;154    			vu32 var32a;
;;;155    			vu32 var32b;
;;;156    			
;;;157    			vu32 var16a;
;;;158    			vu32 var32c;
;;;159    			vu32 var32d;
;;;160    			Modify_B_READ =Vmon1_value;//????
;;;161    			Modify_B_ACT = (g_tModS.RxBuf[3] << 8) + g_tModS.RxBuf[4];//????
;;;162    			var32a = Modify_B_ACT;
;;;163    			var32a = var32a - Modify_A_ACT;
;;;164    			var32a = var32a << 12;
;;;165    			var16 = Modify_B_READ - Modify_A_READ;
;;;166    			var32a = var32a / var16;
;;;167    			REG_CorrectionV = var32a;
0001fa  f8df8218          LDR      r8,|L3.1044|
;;;168    			var32a=0;
;;;169    			var32a = Modify_B_ACT;
;;;170    			var32a = var32a << 12;
;;;171    			var32b = Modify_B_READ;
;;;172    			var32b = var32b * REG_CorrectionV;
;;;173    			if (var32a < var32b)
;;;174    			{
;;;175    				var32b = var32b - var32a;
;;;176    				REG_ReadV_Offset = var32b;
;;;177    				Polar |= 0x01;
0001fe  4c81              LDR      r4,|L3.1028|
000200  f1a80888          SUB      r8,r8,#0x88           ;167
000204  341c              ADDS     r4,r4,#0x1c
;;;178    			}
;;;179    			else 
;;;180    			{
;;;181    				var32a = var32a - var32b;
;;;182    				REG_ReadV_Offset = var32a;
;;;183    				Polar &= ~0x01;
;;;184    			}			
;;;185    			Flash_Write_all();	//??д?FLASH
;;;186    			Flag_DAC_OFF=0;
000206  4f86              LDR      r7,|L3.1056|
000208  f1080544          ADD      r5,r8,#0x44           ;176
00020c  2802              CMP      r0,#2                 ;151
00020e  d12f              BNE      |L3.624|
000210  f8db0000          LDR      r0,[r11,#0]           ;160  ; Vmon1_value
000214  6130              STR      r0,[r6,#0x10]         ;160  ; Modify_B_READ
000216  f89a0004          LDRB     r0,[r10,#4]           ;161  ; g_tModS
00021a  f89a1003          LDRB     r1,[r10,#3]           ;161  ; g_tModS
00021e  eb002001          ADD      r0,r0,r1,LSL #8       ;161
000222  61b0              STR      r0,[r6,#0x18]         ;161  ; Modify_B_ACT
000224  69b0              LDR      r0,[r6,#0x18]         ;162  ; Modify_B_ACT
000226  68f1              LDR      r1,[r6,#0xc]          ;163  ; Modify_A_ACT
000228  1a40              SUBS     r0,r0,r1              ;163
00022a  0301              LSLS     r1,r0,#12             ;164
00022c  6930              LDR      r0,[r6,#0x10]         ;165  ; Modify_B_READ
00022e  6872              LDR      r2,[r6,#4]            ;165  ; Modify_A_READ
000230  1a80              SUBS     r0,r0,r2              ;165
000232  fbb1f0f0          UDIV     r0,r1,r0              ;166
000236  f8c80000          STR      r0,[r8,#0]            ;167  ; Correct_Parametet
00023a  69b0              LDR      r0,[r6,#0x18]         ;169  ; Modify_B_ACT
00023c  0301              LSLS     r1,r0,#12             ;170
00023e  6932              LDR      r2,[r6,#0x10]         ;171  ; Modify_B_READ
000240  f8d80000          LDR      r0,[r8,#0]            ;172  ; Correct_Parametet
000244  4350              MULS     r0,r2,r0              ;172
000246  4281              CMP      r1,r0                 ;173
000248  d206              BCS      |L3.600|
00024a  1a40              SUBS     r0,r0,r1              ;175
00024c  6028              STR      r0,[r5,#0]            ;176  ; Correct_Strong
00024e  7820              LDRB     r0,[r4,#0]            ;177  ; correct_por
000250  f0400001          ORR      r0,r0,#1              ;177
000254  7020              STRB     r0,[r4,#0]            ;177
000256  e005              B        |L3.612|
                  |L3.600|
000258  1a08              SUBS     r0,r1,r0              ;181
00025a  6028              STR      r0,[r5,#0]            ;182  ; Correct_Strong
00025c  7820              LDRB     r0,[r4,#0]            ;183  ; correct_por
00025e  f0200001          BIC      r0,r0,#1              ;183
000262  7020              STRB     r0,[r4,#0]            ;183
                  |L3.612|
000264  f7fffffe          BL       Flash_Write_all
000268  6838              LDR      r0,[r7,#0]  ; flagB
00026a  f0200008          BIC      r0,r0,#8
00026e  6038              STR      r0,[r7,#0]  ; flagB
                  |L3.624|
;;;187    		}
;;;188    		
;;;189    		
;;;190    /************************************???・????У?*****************************************************************/
;;;191    		if (g_tModS.RxBuf[1] == 0x03)			   //CC??У?
000270  4651              MOV      r1,r10
000272  f89a0001          LDRB     r0,[r10,#1]  ; g_tModS
;;;192    		{
;;;193    			Modify_A_READ = Imon1_value;//
000276  4a6b              LDR      r2,|L3.1060|
;;;194    			Modify_C_READ = Contr_Laod;//
000278  f8dfa1ac          LDR      r10,|L3.1064|
00027c  2803              CMP      r0,#3                 ;191
00027e  d10e              BNE      |L3.670|
000280  6813              LDR      r3,[r2,#0]            ;193  ; Imon1_value
000282  6073              STR      r3,[r6,#4]            ;193  ; Modify_A_READ
000284  f8ba3000          LDRH     r3,[r10,#0]  ; Contr_Laod
000288  60b3              STR      r3,[r6,#8]  ; Modify_C_READ
;;;195    			Modify_A_ACT = (g_tModS.RxBuf[3] << 8) + g_tModS.RxBuf[4];
00028a  790b              LDRB     r3,[r1,#4]  ; g_tModS
00028c  f891c003          LDRB     r12,[r1,#3]  ; g_tModS
000290  eb03230c          ADD      r3,r3,r12,LSL #8
000294  60f3              STR      r3,[r6,#0xc]  ; Modify_A_ACT
;;;196    			Flag_DAC_OFF=1;//
000296  683b              LDR      r3,[r7,#0]  ; flagB
000298  f0430308          ORR      r3,r3,#8
00029c  603b              STR      r3,[r7,#0]  ; flagB
                  |L3.670|
;;;197    		}
;;;198    
;;;199    		if (g_tModS.RxBuf[1] == 0x04)			   //
00029e  2804              CMP      r0,#4
0002a0  d154              BNE      |L3.844|
;;;200    		{
;;;201    			vu32 var16;
;;;202    			vu32 var32a;
;;;203    			vu32 var32b;
;;;204    			
;;;205    			vu32 var16a;
;;;206    			vu32 var32c;
;;;207    			vu32 var32d;
;;;208    			
;;;209    			Modify_B_READ = Imon1_value;
0002a2  6810              LDR      r0,[r2,#0]  ; Imon1_value
0002a4  6130              STR      r0,[r6,#0x10]  ; Modify_B_READ
;;;210    			Modify_D_READ = Contr_Laod;
0002a6  f8ba0000          LDRH     r0,[r10,#0]  ; Contr_Laod
0002aa  6170              STR      r0,[r6,#0x14]  ; Modify_D_READ
;;;211    			Modify_B_ACT = (g_tModS.RxBuf[3] << 8) + g_tModS.RxBuf[4];
0002ac  4854              LDR      r0,|L3.1024|
0002ae  7901              LDRB     r1,[r0,#4]  ; g_tModS
0002b0  78c0              LDRB     r0,[r0,#3]  ; g_tModS
0002b2  eb012000          ADD      r0,r1,r0,LSL #8
0002b6  61b0              STR      r0,[r6,#0x18]  ; Modify_B_ACT
;;;212    			
;;;213    			var32a = Modify_B_ACT;
0002b8  69b0              LDR      r0,[r6,#0x18]  ; Modify_B_ACT
;;;214    			var32a = var32a - Modify_A_ACT;
0002ba  68f1              LDR      r1,[r6,#0xc]  ; Modify_A_ACT
0002bc  1a40              SUBS     r0,r0,r1
;;;215    			var32a = var32a << 12;
0002be  0301              LSLS     r1,r0,#12
;;;216    			var16 = Modify_B_READ - Modify_A_READ;
0002c0  6930              LDR      r0,[r6,#0x10]  ; Modify_B_READ
0002c2  6872              LDR      r2,[r6,#4]  ; Modify_A_READ
0002c4  1a80              SUBS     r0,r0,r2
;;;217    			var32a = var32a / var16;
0002c6  fbb1f0f0          UDIV     r0,r1,r0
;;;218    			REG_Load_A = var32a;
0002ca  e000              B        |L3.718|
                  |L3.716|
0002cc  e26f              B        |L3.1966|
                  |L3.718|
0002ce  f8c80004          STR      r0,[r8,#4]  ; Correct_Parametet
;;;219    			var32a = Modify_B_ACT;
0002d2  69b0              LDR      r0,[r6,#0x18]  ; Modify_B_ACT
;;;220    			var32a = var32a << 12;
0002d4  0301              LSLS     r1,r0,#12
;;;221    			var32b = Modify_B_READ;
0002d6  6932              LDR      r2,[r6,#0x10]  ; Modify_B_READ
;;;222    			var32b = var32b * REG_Load_A;
0002d8  f8d80004          LDR      r0,[r8,#4]  ; Correct_Parametet
0002dc  4350              MULS     r0,r2,r0
;;;223    			if (var32a < var32b)
0002de  4281              CMP      r1,r0
0002e0  d206              BCS      |L3.752|
;;;224    			{
;;;225    				var32b = var32b - var32a;
0002e2  1a40              SUBS     r0,r0,r1
;;;226    				REG_LoadA_Offset = var32b;
0002e4  6068              STR      r0,[r5,#4]  ; Correct_Strong
;;;227    				Polar1 |= 0x01;
0002e6  7860              LDRB     r0,[r4,#1]  ; correct_por
0002e8  f0400001          ORR      r0,r0,#1
0002ec  7060              STRB     r0,[r4,#1]
0002ee  e005              B        |L3.764|
                  |L3.752|
;;;228    			}
;;;229    			else 
;;;230    			{
;;;231    				var32a = var32a - var32b;
0002f0  1a08              SUBS     r0,r1,r0
;;;232    				REG_LoadA_Offset = var32a;
0002f2  6068              STR      r0,[r5,#4]  ; Correct_Strong
;;;233    				Polar1 &= ~0x01;					
0002f4  7860              LDRB     r0,[r4,#1]  ; correct_por
0002f6  f0200001          BIC      r0,r0,#1
0002fa  7060              STRB     r0,[r4,#1]
                  |L3.764|
;;;234    			}
;;;235    //---------------------------------------------------------------------------------//
;;;236    			var32c = Modify_B_ACT; 
0002fc  69b0              LDR      r0,[r6,#0x18]  ; Modify_B_ACT
;;;237    			var32c = var32c - Modify_A_ACT;
0002fe  68f1              LDR      r1,[r6,#0xc]  ; Modify_A_ACT
000300  1a40              SUBS     r0,r0,r1
;;;238    			var32c = var32c << 12;
000302  0300              LSLS     r0,r0,#12
;;;239    			var16a=Modify_D_READ-Modify_C_READ;
000304  6971              LDR      r1,[r6,#0x14]  ; Modify_D_READ
000306  68b2              LDR      r2,[r6,#8]  ; Modify_C_READ
000308  1a89              SUBS     r1,r1,r2
;;;240    			var16a=var16a*2;
00030a  0049              LSLS     r1,r1,#1
;;;241    			var32c=var32c/var16a;
00030c  fbb0f0f1          UDIV     r0,r0,r1
;;;242    			SET_LoadA = var32c;
000310  f8c80008          STR      r0,[r8,#8]  ; Correct_Parametet
;;;243    			var32c = Modify_B_ACT;
000314  69b0              LDR      r0,[r6,#0x18]  ; Modify_B_ACT
;;;244    			var32c = var32c << 12;
000316  0300              LSLS     r0,r0,#12
;;;245    			var32d = SET_LoadA;
000318  f8d81008          LDR      r1,[r8,#8]  ; Correct_Parametet
;;;246    			var32d = var32d * (Modify_D_READ*2);
00031c  6972              LDR      r2,[r6,#0x14]  ; Modify_D_READ
00031e  4351              MULS     r1,r2,r1
000320  0049              LSLS     r1,r1,#1
;;;247    			if (var32c < var32d)
000322  4288              CMP      r0,r1
000324  d206              BCS      |L3.820|
;;;248    			{
;;;249    				var32d = var32d - var32c;
000326  1a08              SUBS     r0,r1,r0
;;;250    				SET_LoadA_Offset = var32d;
000328  60a8              STR      r0,[r5,#8]  ; Correct_Strong
;;;251    				Polar1 |= 0x04;
00032a  7860              LDRB     r0,[r4,#1]  ; correct_por
00032c  f0400004          ORR      r0,r0,#4
000330  7060              STRB     r0,[r4,#1]
000332  e005              B        |L3.832|
                  |L3.820|
;;;252    			}
;;;253    			else 
;;;254    			{
;;;255    				var32c = var32c - var32d;
000334  1a40              SUBS     r0,r0,r1
;;;256    				SET_LoadA_Offset = var32c;
000336  60a8              STR      r0,[r5,#8]  ; Correct_Strong
;;;257    				Polar1 &= ~0x04;
000338  7860              LDRB     r0,[r4,#1]  ; correct_por
00033a  f0200004          BIC      r0,r0,#4
00033e  7060              STRB     r0,[r4,#1]
                  |L3.832|
;;;258    			}
;;;259    			Flash_Write_all ();	
000340  f7fffffe          BL       Flash_Write_all
;;;260    			Flag_DAC_OFF =0;
000344  6838              LDR      r0,[r7,#0]  ; flagB
000346  f0200008          BIC      r0,r0,#8
00034a  6038              STR      r0,[r7,#0]  ; flagB
                  |L3.844|
;;;261    		}
;;;262    /*************************************??CV??????У?**************************************************************/
;;;263    		if(g_tModS.RxBuf[1] == 0x05)
00034c  492c              LDR      r1,|L3.1024|
00034e  7848              LDRB     r0,[r1,#1]  ; g_tModS
000350  2805              CMP      r0,#5
000352  d10a              BNE      |L3.874|
;;;264    		{
;;;265    			Modify_A_READ = Vmon1_value;//????
000354  f8db2000          LDR      r2,[r11,#0]  ; Vmon1_value
000358  6072              STR      r2,[r6,#4]  ; Modify_A_READ
;;;266    			Modify_C_READ = Contr_Laod;//?????
00035a  f8ba2000          LDRH     r2,[r10,#0]  ; Contr_Laod
00035e  60b2              STR      r2,[r6,#8]  ; Modify_C_READ
;;;267    			Modify_A_ACT = (g_tModS.RxBuf[3] << 8) + g_tModS.RxBuf[4];//????
000360  790a              LDRB     r2,[r1,#4]  ; g_tModS
000362  78cb              LDRB     r3,[r1,#3]  ; g_tModS
000364  eb022203          ADD      r2,r2,r3,LSL #8
000368  60f2              STR      r2,[r6,#0xc]  ; Modify_A_ACT
                  |L3.874|
;;;268    		}
;;;269    		if (g_tModS.RxBuf[1] == 0x06)			   //???У???
00036a  2806              CMP      r0,#6
00036c  d168              BNE      |L3.1088|
;;;270    		{
;;;271    			vu32 var16;
;;;272    			vu32 var32a;
;;;273    			vu32 var32b;
;;;274    			
;;;275    			vu32 var16a;
;;;276    			vu32 var32c;
;;;277    			vu32 var32d;
;;;278    			
;;;279    			Modify_B_READ =Vmon1_value;//????
00036e  f8db0000          LDR      r0,[r11,#0]  ; Vmon1_value
000372  6130              STR      r0,[r6,#0x10]  ; Modify_B_READ
;;;280    			Modify_D_READ =Contr_Laod;//?????
000374  f8ba0000          LDRH     r0,[r10,#0]  ; Contr_Laod
000378  6170              STR      r0,[r6,#0x14]  ; Modify_D_READ
;;;281    			Modify_B_ACT = (g_tModS.RxBuf[3] << 8) + g_tModS.RxBuf[4];//????
00037a  4821              LDR      r0,|L3.1024|
00037c  7901              LDRB     r1,[r0,#4]  ; g_tModS
00037e  78c0              LDRB     r0,[r0,#3]  ; g_tModS
000380  eb012000          ADD      r0,r1,r0,LSL #8
000384  61b0              STR      r0,[r6,#0x18]  ; Modify_B_ACT
;;;282    			var32a = Modify_B_ACT;
000386  69b0              LDR      r0,[r6,#0x18]  ; Modify_B_ACT
;;;283    			var32a = var32a - Modify_A_ACT;
000388  68f1              LDR      r1,[r6,#0xc]  ; Modify_A_ACT
00038a  1a40              SUBS     r0,r0,r1
;;;284    			var32a = var32a << 12;
00038c  0300              LSLS     r0,r0,#12
;;;285    			var16 = Modify_B_READ - Modify_A_READ;
00038e  6931              LDR      r1,[r6,#0x10]  ; Modify_B_READ
000390  6872              LDR      r2,[r6,#4]  ; Modify_A_READ
000392  1a89              SUBS     r1,r1,r2
;;;286    			var32a = var32a / var16;
000394  fbb0f0f1          UDIV     r0,r0,r1
;;;287    			REG_LoadV = var32a;
000398  f8c8000c          STR      r0,[r8,#0xc]  ; Correct_Parametet
;;;288    			var32a=0;
;;;289    			var32a = Modify_B_ACT;
00039c  69b0              LDR      r0,[r6,#0x18]  ; Modify_B_ACT
;;;290    			var32a = var32a << 12;
00039e  0301              LSLS     r1,r0,#12
;;;291    			var32b = Modify_B_READ;
0003a0  6932              LDR      r2,[r6,#0x10]  ; Modify_B_READ
;;;292    			var32b = var32b * REG_LoadV;
0003a2  f8d8000c          LDR      r0,[r8,#0xc]  ; Correct_Parametet
0003a6  4350              MULS     r0,r2,r0
;;;293    			if (var32a < var32b)
0003a8  4281              CMP      r1,r0
0003aa  d206              BCS      |L3.954|
;;;294    			{
;;;295    				var32b = var32b - var32a;
0003ac  1a40              SUBS     r0,r0,r1
;;;296    				REG_LoadV_Offset = var32b;
0003ae  60e8              STR      r0,[r5,#0xc]  ; Correct_Strong
;;;297    				Polar2 |= 0x01;
0003b0  78a0              LDRB     r0,[r4,#2]  ; correct_por
0003b2  f0400001          ORR      r0,r0,#1
0003b6  70a0              STRB     r0,[r4,#2]
0003b8  e005              B        |L3.966|
                  |L3.954|
;;;298    			}
;;;299    			else 
;;;300    			{
;;;301    				var32a = var32a - var32b;
0003ba  1a08              SUBS     r0,r1,r0
;;;302    				REG_LoadV_Offset = var32a;
0003bc  60e8              STR      r0,[r5,#0xc]  ; Correct_Strong
;;;303    				Polar2 &= ~0x01;
0003be  78a0              LDRB     r0,[r4,#2]  ; correct_por
0003c0  f0200001          BIC      r0,r0,#1
0003c4  70a0              STRB     r0,[r4,#2]
                  |L3.966|
;;;304    			}
;;;305    //---------------------------------------------------------------------------------------//			
;;;306    			var32c = Modify_B_ACT; //CV??????У?
0003c6  69b0              LDR      r0,[r6,#0x18]  ; Modify_B_ACT
;;;307    			var32c = var32c - Modify_A_ACT;
0003c8  68f1              LDR      r1,[r6,#0xc]  ; Modify_A_ACT
0003ca  1a40              SUBS     r0,r0,r1
;;;308    			var32c = var32c << 12;
0003cc  0301              LSLS     r1,r0,#12
;;;309    			var16a=Modify_D_READ-Modify_C_READ;
0003ce  6970              LDR      r0,[r6,#0x14]  ; Modify_D_READ
0003d0  68b2              LDR      r2,[r6,#8]  ; Modify_C_READ
0003d2  1a80              SUBS     r0,r0,r2
;;;310    			var16a=(var16a*2);
0003d4  0040              LSLS     r0,r0,#1
;;;311    			var32c=var32c/var16a;
0003d6  fbb1f0f0          UDIV     r0,r1,r0
;;;312    			SET_LoadV = var32c;
0003da  f8c80010          STR      r0,[r8,#0x10]  ; Correct_Parametet
;;;313    			var32c = Modify_B_ACT;
0003de  69b0              LDR      r0,[r6,#0x18]  ; Modify_B_ACT
;;;314    			var32c = var32c << 12;
0003e0  0300              LSLS     r0,r0,#12
;;;315    			var32d = SET_LoadV;
0003e2  f8d81010          LDR      r1,[r8,#0x10]  ; Correct_Parametet
;;;316    			var32d = var32d * (Modify_D_READ*2);
0003e6  6972              LDR      r2,[r6,#0x14]  ; Modify_D_READ
0003e8  4351              MULS     r1,r2,r1
0003ea  0049              LSLS     r1,r1,#1
;;;317    			if (var32c < var32d)
0003ec  4288              CMP      r0,r1
0003ee  d21d              BCS      |L3.1068|
;;;318    			{
;;;319    				var32d = var32d - var32c;
0003f0  1a08              SUBS     r0,r1,r0
;;;320    				SET_LoadV_Offset = var32d;
0003f2  6128              STR      r0,[r5,#0x10]  ; Correct_Strong
;;;321    				Polar2 |= 0x04;
0003f4  78a0              LDRB     r0,[r4,#2]  ; correct_por
0003f6  f0400004          ORR      r0,r0,#4
0003fa  70a0              STRB     r0,[r4,#2]
0003fc  e01c              B        |L3.1080|
0003fe  0000              DCW      0x0000
                  |L3.1024|
                          DCD      g_tModS
                  |L3.1028|
                          DCD      ||area_number.8||
                  |L3.1032|
                          DCD      UART_Buffer_Send
                  |L3.1036|
                          DCD      Transmit_BUFFERsize
                  |L3.1040|
                          DCD      flagA
                  |L3.1044|
                          DCD      ||.bss||+0x88
                  |L3.1048|
                          DCD      flagF
                  |L3.1052|
                          DCD      Vmon1_value
                  |L3.1056|
                          DCD      flagB
                  |L3.1060|
                          DCD      Imon1_value
                  |L3.1064|
                          DCD      Contr_Laod
                  |L3.1068|
;;;322    			}
;;;323    			else 
;;;324    			{
;;;325    				var32c = var32c - var32d;
00042c  1a40              SUBS     r0,r0,r1
;;;326    				SET_LoadV_Offset = var32c;
00042e  6128              STR      r0,[r5,#0x10]  ; Correct_Strong
;;;327    				Polar2 &= ~0x04;
000430  78a0              LDRB     r0,[r4,#2]  ; correct_por
000432  f0200004          BIC      r0,r0,#4
000436  70a0              STRB     r0,[r4,#2]
                  |L3.1080|
;;;328    			}
;;;329    //---------------------------------------------------------------------------------------//
;;;330    		  Flash_Write_all();	//??д?FLASH
000438  f7fffffe          BL       Flash_Write_all
;;;331    			DAC_Flag=0;
00043c  2000              MOVS     r0,#0
00043e  7030              STRB     r0,[r6,#0]
                  |L3.1088|
;;;332    		}
;;;333    /*************************************??У?**************************************************************************/
;;;334    		if(g_tModS.RxBuf[1] == 0x07||flag_ADJ_VL==1)
000440  f8dfb370          LDR      r11,|L3.1972|
;;;335    		{
;;;336    			Modify_A_READ = Rmon_value;//????
000444  49dc              LDR      r1,|L3.1976|
000446  f89b0001          LDRB     r0,[r11,#1]           ;334  ; g_tModS
00044a  2807              CMP      r0,#7                 ;334
00044c  d003              BEQ      |L3.1110|
00044e  f8d92000          LDR      r2,[r9,#0]            ;334  ; flagF
000452  0752              LSLS     r2,r2,#29             ;334
000454  d508              BPL      |L3.1128|
                  |L3.1110|
000456  880a              LDRH     r2,[r1,#0]  ; Rmon_value
000458  6072              STR      r2,[r6,#4]  ; Modify_A_READ
;;;337    			Modify_A_ACT = (g_tModS.RxBuf[3] << 8) + g_tModS.RxBuf[4];//????
00045a  f89b2004          LDRB     r2,[r11,#4]  ; g_tModS
00045e  f89b3003          LDRB     r3,[r11,#3]  ; g_tModS
000462  eb022203          ADD      r2,r2,r3,LSL #8
000466  60f2              STR      r2,[r6,#0xc]  ; Modify_A_ACT
                  |L3.1128|
;;;338    		}
;;;339    		if (g_tModS.RxBuf[1] == 0x08||flag_ADJ_VH==1)			   //???У???
000468  2808              CMP      r0,#8
00046a  d003              BEQ      |L3.1140|
00046c  f8d90000          LDR      r0,[r9,#0]  ; flagF
000470  0700              LSLS     r0,r0,#28
000472  d55d              BPL      |L3.1328|
                  |L3.1140|
;;;340    		{
;;;341    			vu16 var16;
;;;342    			vu32 var32a;
;;;343    			vu32 var32b;
;;;344    			
;;;345    			vu16 var16a;
;;;346    			vu32 var32c;
;;;347    			vu32 var32d;
;;;348    			Modify_B_READ =Rmon_value;//????
000474  8808              LDRH     r0,[r1,#0]  ; Rmon_value
000476  6130              STR      r0,[r6,#0x10]  ; Modify_B_READ
;;;349    			flag_OverV=1;
000478  49d0              LDR      r1,|L3.1980|
00047a  6808              LDR      r0,[r1,#0]  ; flagG
00047c  f0400002          ORR      r0,r0,#2
000480  6008              STR      r0,[r1,#0]  ; flagG
;;;350    			Modify_B_ACT = (g_tModS.RxBuf[3] << 8) + g_tModS.RxBuf[4];//????
000482  f89b1004          LDRB     r1,[r11,#4]  ; g_tModS
000486  f89b2003          LDRB     r2,[r11,#3]  ; g_tModS
00048a  eb012102          ADD      r1,r1,r2,LSL #8
00048e  61b1              STR      r1,[r6,#0x18]  ; Modify_B_ACT
;;;351    			if(flag_OverV==1)//??????д?????У???д?FLASH
000490  0780              LSLS     r0,r0,#30
000492  d547              BPL      |L3.1316|
;;;352    			{
;;;353    				var32a = Modify_B_ACT;
000494  69b0              LDR      r0,[r6,#0x18]  ; Modify_B_ACT
;;;354    				var32a = var32a - Modify_A_ACT;
000496  68f1              LDR      r1,[r6,#0xc]  ; Modify_A_ACT
000498  1a40              SUBS     r0,r0,r1
;;;355    				var32a = var32a << 12;
00049a  0300              LSLS     r0,r0,#12
;;;356    				var16 = Modify_B_READ - Modify_A_READ;
00049c  6931              LDR      r1,[r6,#0x10]  ; Modify_B_READ
00049e  6872              LDR      r2,[r6,#4]  ; Modify_A_READ
0004a0  1a89              SUBS     r1,r1,r2
0004a2  b289              UXTH     r1,r1
;;;357    				var32a = var32a / var16;
0004a4  fbb0f0f1          UDIV     r0,r0,r1
;;;358                    if(r_raly == 1)
0004a8  49c5              LDR      r1,|L3.1984|
0004aa  7809              LDRB     r1,[r1,#0]  ; r_raly
0004ac  2901              CMP      r1,#1
0004ae  d010              BEQ      |L3.1234|
;;;359                    {
;;;360                        REG_CorrectionR = var32a;
;;;361                        var32a=0;
;;;362                        var32a = Modify_B_ACT;
;;;363                        var32a = var32a << 12;
;;;364                        var32b = Modify_B_READ;
;;;365                        var32b = var32b * REG_CorrectionR;
;;;366                        if (var32a < var32b)
;;;367                        {
;;;368                            var32b = var32b - var32a;
;;;369                            REG_ReadR_Offset = var32b;
;;;370                            Polar3 |= 0x01;
;;;371                        }
;;;372                        else 
;;;373                        {
;;;374                            var32a = var32a - var32b;
;;;375                            REG_ReadR_Offset = var32a;
;;;376                            Polar3 &= ~0x01;
;;;377                        }
;;;378                    }else{
;;;379                        REG_CorrectionRL = var32a;
0004b0  f8c8002c          STR      r0,[r8,#0x2c]  ; Correct_Parametet
;;;380                        var32a=0;
;;;381                        var32a = Modify_B_ACT;
0004b4  69b0              LDR      r0,[r6,#0x18]  ; Modify_B_ACT
;;;382                        var32a = var32a << 12;
0004b6  0301              LSLS     r1,r0,#12
;;;383                        var32b = Modify_B_READ;
0004b8  6932              LDR      r2,[r6,#0x10]  ; Modify_B_READ
;;;384                        var32b = var32b * REG_CorrectionRL;
0004ba  f8d8002c          LDR      r0,[r8,#0x2c]  ; Correct_Parametet
0004be  4350              MULS     r0,r2,r0
;;;385                        if (var32a < var32b)
0004c0  4281              CMP      r1,r0
0004c2  d21e              BCS      |L3.1282|
;;;386                        {
;;;387                            var32b = var32b - var32a;
0004c4  1a40              SUBS     r0,r0,r1
;;;388                            REG_ReadRL_Offset = var32b;
0004c6  62e8              STR      r0,[r5,#0x2c]  ; Correct_Strong
;;;389                            Polar3 |= 0x01;
0004c8  78e0              LDRB     r0,[r4,#3]  ; correct_por
0004ca  f0400001          ORR      r0,r0,#1
0004ce  70e0              STRB     r0,[r4,#3]
0004d0  e01d              B        |L3.1294|
                  |L3.1234|
0004d2  f8c80014          STR      r0,[r8,#0x14]         ;360  ; Correct_Parametet
0004d6  69b0              LDR      r0,[r6,#0x18]         ;362  ; Modify_B_ACT
0004d8  0301              LSLS     r1,r0,#12             ;363
0004da  6932              LDR      r2,[r6,#0x10]         ;364  ; Modify_B_READ
0004dc  f8d80014          LDR      r0,[r8,#0x14]         ;365  ; Correct_Parametet
0004e0  4350              MULS     r0,r2,r0              ;365
0004e2  4281              CMP      r1,r0                 ;366
0004e4  d206              BCS      |L3.1268|
0004e6  1a40              SUBS     r0,r0,r1              ;368
0004e8  6168              STR      r0,[r5,#0x14]         ;369  ; Correct_Strong
0004ea  78e0              LDRB     r0,[r4,#3]            ;370  ; correct_por
0004ec  f0400001          ORR      r0,r0,#1              ;370
0004f0  70e0              STRB     r0,[r4,#3]            ;370
0004f2  e00c              B        |L3.1294|
                  |L3.1268|
0004f4  1a08              SUBS     r0,r1,r0              ;374
0004f6  6168              STR      r0,[r5,#0x14]         ;375  ; Correct_Strong
0004f8  78e0              LDRB     r0,[r4,#3]            ;376  ; correct_por
0004fa  f0200001          BIC      r0,r0,#1              ;376
0004fe  70e0              STRB     r0,[r4,#3]            ;376
000500  e005              B        |L3.1294|
                  |L3.1282|
;;;390                        }
;;;391                        else 
;;;392                        {
;;;393                            var32a = var32a - var32b;
000502  1a08              SUBS     r0,r1,r0
;;;394                            REG_ReadR_Offset = var32a;
000504  6168              STR      r0,[r5,#0x14]  ; Correct_Strong
;;;395                            Polar3 &= ~0x01;
000506  78e0              LDRB     r0,[r4,#3]  ; correct_por
000508  f0200001          BIC      r0,r0,#1
00050c  70e0              STRB     r0,[r4,#3]
                  |L3.1294|
;;;396                        }
;;;397                    }
;;;398    	//---------------------------------------------------------------------------------------//
;;;399    				Flash_Write_all();	//??д?FLASH
00050e  f7fffffe          BL       Flash_Write_all
;;;400    				flag_OverV=0;
000512  48aa              LDR      r0,|L3.1980|
000514  6801              LDR      r1,[r0,#0]  ; flagG
000516  f0210102          BIC      r1,r1,#2
00051a  6001              STR      r1,[r0,#0]  ; flagG
;;;401    				Flag_DAC_OFF=0;
00051c  6838              LDR      r0,[r7,#0]  ; flagB
00051e  f0200008          BIC      r0,r0,#8
000522  6038              STR      r0,[r7,#0]  ; flagB
                  |L3.1316|
;;;402    			}
;;;403    			flag_ADJ_VH=0;//????λ??????
000524  f8d90000          LDR      r0,[r9,#0]  ; flagF
000528  f0200008          BIC      r0,r0,#8
00052c  f8c90000          STR      r0,[r9,#0]  ; flagF
                  |L3.1328|
;;;404    		}		
;;;405    /*******************************??CC???・????У?******************************************/	
;;;406    		if (g_tModS.RxBuf[1] == 0x09||flag_ADJ_ALCC==1)			   //?・?У?
000530  4659              MOV      r1,r11
000532  f89b0001          LDRB     r0,[r11,#1]  ; g_tModS
;;;407    		{
;;;408    			Modify_A_READ = Imon_value;//??・
000536  f8dfb28c          LDR      r11,|L3.1988|
00053a  2809              CMP      r0,#9                 ;406
00053c  d003              BEQ      |L3.1350|
00053e  f8d92000          LDR      r2,[r9,#0]            ;406  ; flagF
000542  06d2              LSLS     r2,r2,#27             ;406
000544  d50a              BPL      |L3.1372|
                  |L3.1350|
000546  f8bb2000          LDRH     r2,[r11,#0]  ; Imon_value
00054a  6072              STR      r2,[r6,#4]  ; Modify_A_READ
;;;409    			Modify_C_READ = Contr_Current;//???・
00054c  4a9e              LDR      r2,|L3.1992|
00054e  8812              LDRH     r2,[r2,#0]  ; Contr_Current
000550  60b2              STR      r2,[r6,#8]  ; Modify_C_READ
;;;410    			Modify_A_ACT = (g_tModS.RxBuf[3] << 8) + g_tModS.RxBuf[4];
000552  790a              LDRB     r2,[r1,#4]  ; g_tModS
000554  78cb              LDRB     r3,[r1,#3]  ; g_tModS
000556  eb022203          ADD      r2,r2,r3,LSL #8
00055a  60f2              STR      r2,[r6,#0xc]  ; Modify_A_ACT
                  |L3.1372|
;;;411    		}
;;;412    
;;;413    		if (g_tModS.RxBuf[1] == 0x0A||flag_ADJ_AHCC==1)			   //?・?У???
00055c  280a              CMP      r0,#0xa
00055e  d003              BEQ      |L3.1384|
000560  f8d90000          LDR      r0,[r9,#0]  ; flagF
000564  0680              LSLS     r0,r0,#26
000566  d555              BPL      |L3.1556|
                  |L3.1384|
;;;414    		{
;;;415    			vu16 var16;
;;;416    			vu32 var32a;
;;;417    			vu32 var32b;
;;;418    			
;;;419    			vu16 var16a;
;;;420    			vu32 var32c;
;;;421    			vu32 var32d;
;;;422    			
;;;423    			Modify_D_READ = Contr_Current;
000568  4897              LDR      r0,|L3.1992|
00056a  8800              LDRH     r0,[r0,#0]  ; Contr_Current
00056c  6170              STR      r0,[r6,#0x14]  ; Modify_D_READ
;;;424    			Modify_B_READ = Imon_value;
00056e  f8bb0000          LDRH     r0,[r11,#0]  ; Imon_value
000572  6130              STR      r0,[r6,#0x10]  ; Modify_B_READ
;;;425    			Modify_B_ACT = (g_tModS.RxBuf[3] << 8) + g_tModS.RxBuf[4];
000574  488f              LDR      r0,|L3.1972|
000576  7901              LDRB     r1,[r0,#4]  ; g_tModS
000578  78c0              LDRB     r0,[r0,#3]  ; g_tModS
00057a  eb012000          ADD      r0,r1,r0,LSL #8
00057e  61b0              STR      r0,[r6,#0x18]  ; Modify_B_ACT
;;;426    			var32a = Modify_B_ACT;
000580  69b0              LDR      r0,[r6,#0x18]  ; Modify_B_ACT
;;;427    			var32a = var32a - Modify_A_ACT;
000582  68f1              LDR      r1,[r6,#0xc]  ; Modify_A_ACT
000584  1a40              SUBS     r0,r0,r1
;;;428    			var32a = var32a << 14;
000586  0381              LSLS     r1,r0,#14
;;;429    			var16 = Modify_B_READ - Modify_A_READ;
000588  6930              LDR      r0,[r6,#0x10]  ; Modify_B_READ
00058a  6872              LDR      r2,[r6,#4]  ; Modify_A_READ
00058c  1a80              SUBS     r0,r0,r2
00058e  b280              UXTH     r0,r0
;;;430    			var32a = var32a / var16;
000590  fbb1f0f0          UDIV     r0,r1,r0
;;;431    			REG_POWERA = var32a;
000594  f8c80018          STR      r0,[r8,#0x18]  ; Correct_Parametet
;;;432    			var32a = Modify_B_ACT;
000598  69b0              LDR      r0,[r6,#0x18]  ; Modify_B_ACT
;;;433    			var32a = var32a << 14;
00059a  0381              LSLS     r1,r0,#14
;;;434    			var32b = Modify_B_READ;
00059c  6932              LDR      r2,[r6,#0x10]  ; Modify_B_READ
;;;435    			var32b = var32b * REG_POWERA;
00059e  f8d80018          LDR      r0,[r8,#0x18]  ; Correct_Parametet
0005a2  4350              MULS     r0,r2,r0
;;;436    			if (var32a < var32b)
0005a4  4281              CMP      r1,r0
0005a6  d206              BCS      |L3.1462|
;;;437    			{
;;;438    				var32b = var32b - var32a;
0005a8  1a40              SUBS     r0,r0,r1
;;;439    				REG_POWERA_Offset = var32b;
0005aa  61a8              STR      r0,[r5,#0x18]  ; Correct_Strong
;;;440    				Polar4 |= 0x01;
0005ac  7920              LDRB     r0,[r4,#4]  ; correct_por
0005ae  f0400001          ORR      r0,r0,#1
0005b2  7120              STRB     r0,[r4,#4]
0005b4  e005              B        |L3.1474|
                  |L3.1462|
;;;441    			}
;;;442    			else 
;;;443    			{
;;;444    				var32a = var32a - var32b;
0005b6  1a08              SUBS     r0,r1,r0
;;;445    				REG_POWERA_Offset = var32a;
0005b8  61a8              STR      r0,[r5,#0x18]  ; Correct_Strong
;;;446    				Polar4 &= ~0x01;					//?・????￡?У???
0005ba  7920              LDRB     r0,[r4,#4]  ; correct_por
0005bc  f0200001          BIC      r0,r0,#1
0005c0  7120              STRB     r0,[r4,#4]
                  |L3.1474|
;;;447    			}
;;;448    	//---------------------------------------------------------------------------------//
;;;449    			var32c = Modify_B_ACT; //???・У?
0005c2  69b0              LDR      r0,[r6,#0x18]  ; Modify_B_ACT
;;;450    			var32c = var32c - Modify_A_ACT;
0005c4  68f1              LDR      r1,[r6,#0xc]  ; Modify_A_ACT
0005c6  1a40              SUBS     r0,r0,r1
;;;451    			var32c = var32c << 14;
0005c8  0381              LSLS     r1,r0,#14
;;;452    			var16a=Modify_D_READ-Modify_C_READ;
0005ca  6970              LDR      r0,[r6,#0x14]  ; Modify_D_READ
0005cc  68b2              LDR      r2,[r6,#8]  ; Modify_C_READ
0005ce  1a80              SUBS     r0,r0,r2
;;;453    			var16a=var16a*2;
0005d0  0440              LSLS     r0,r0,#17
0005d2  0c00              LSRS     r0,r0,#16
;;;454    			var32c=var32c/var16a;
0005d4  fbb1f0f0          UDIV     r0,r1,r0
;;;455    			SET_POWERA = var32c;
0005d8  f8c8001c          STR      r0,[r8,#0x1c]  ; Correct_Parametet
;;;456    			var32c = Modify_B_ACT;
0005dc  69b0              LDR      r0,[r6,#0x18]  ; Modify_B_ACT
;;;457    			var32c = var32c << 14;
0005de  0380              LSLS     r0,r0,#14
;;;458    			var32d = SET_POWERA;
0005e0  f8d8101c          LDR      r1,[r8,#0x1c]  ; Correct_Parametet
;;;459    			var32d = var32d * (Modify_D_READ*2);
0005e4  6972              LDR      r2,[r6,#0x14]  ; Modify_D_READ
0005e6  4351              MULS     r1,r2,r1
0005e8  0049              LSLS     r1,r1,#1
;;;460    			if (var32c < var32d)
0005ea  4288              CMP      r0,r1
0005ec  d206              BCS      |L3.1532|
;;;461    			{
;;;462    				var32d = var32d - var32c;
0005ee  1a08              SUBS     r0,r1,r0
;;;463    				SET_POWERA_Offset = var32d;
0005f0  61e8              STR      r0,[r5,#0x1c]  ; Correct_Strong
;;;464    				Polar4 |= 0x04;
0005f2  7920              LDRB     r0,[r4,#4]  ; correct_por
0005f4  f0400004          ORR      r0,r0,#4
0005f8  7120              STRB     r0,[r4,#4]
0005fa  e005              B        |L3.1544|
                  |L3.1532|
;;;465    			}
;;;466    			else 
;;;467    			{
;;;468    				var32c = var32c - var32d;
0005fc  1a40              SUBS     r0,r0,r1
;;;469    				SET_POWERA_Offset = var32c;
0005fe  61e8              STR      r0,[r5,#0x1c]  ; Correct_Strong
;;;470    				Polar4 &= ~0x04;
000600  7920              LDRB     r0,[r4,#4]  ; correct_por
000602  f0200004          BIC      r0,r0,#4
000606  7120              STRB     r0,[r4,#4]
                  |L3.1544|
;;;471    			}
;;;472    			Flash_Write_all ();	
000608  f7fffffe          BL       Flash_Write_all
;;;473    			Flag_DAC_OFF=0;
00060c  6838              LDR      r0,[r7,#0]  ; flagB
00060e  f0200008          BIC      r0,r0,#8
000612  6038              STR      r0,[r7,#0]  ; flagB
                  |L3.1556|
;;;474    		}
;;;475    /*******************************????????У?******************************************/	
;;;476    		if (g_tModS.RxBuf[1] == 0x0B)			   //?・?У?
000614  4967              LDR      r1,|L3.1972|
;;;477    		{
;;;478    			Modify_A_READ = Vmon_value;//??d
000616  4a6d              LDR      r2,|L3.1996|
;;;479    			Modify_C_READ = Contr_Voltage;//???d
000618  f8df91b4          LDR      r9,|L3.2000|
00061c  7848              LDRB     r0,[r1,#1]            ;476  ; g_tModS
00061e  280b              CMP      r0,#0xb               ;476
000620  d10a              BNE      |L3.1592|
000622  8813              LDRH     r3,[r2,#0]            ;478  ; Vmon_value
000624  6073              STR      r3,[r6,#4]            ;478  ; Modify_A_READ
000626  f8b93000          LDRH     r3,[r9,#0]  ; Contr_Voltage
00062a  60b3              STR      r3,[r6,#8]  ; Modify_C_READ
;;;480    			Modify_A_ACT = (g_tModS.RxBuf[3] << 8) + g_tModS.RxBuf[4];
00062c  790b              LDRB     r3,[r1,#4]  ; g_tModS
00062e  f891c003          LDRB     r12,[r1,#3]  ; g_tModS
000632  eb03230c          ADD      r3,r3,r12,LSL #8
000636  60f3              STR      r3,[r6,#0xc]  ; Modify_A_ACT
                  |L3.1592|
;;;481    		}
;;;482    
;;;483    		if (g_tModS.RxBuf[1] == 0x0C)			   //?・?У???
000638  280c              CMP      r0,#0xc
00063a  d154              BNE      |L3.1766|
;;;484    		{
;;;485    			vu16 var16;
;;;486    			vu32 var32a;
;;;487    			vu32 var32b;
;;;488    			
;;;489    			vu16 var16a;
;;;490    			vu32 var32c;
;;;491    			vu32 var32d;
;;;492    			
;;;493    			Modify_D_READ = Contr_Voltage;
00063c  f8b90000          LDRH     r0,[r9,#0]  ; Contr_Voltage
000640  6170              STR      r0,[r6,#0x14]  ; Modify_D_READ
;;;494    			Modify_B_READ = Vmon_value;
000642  8810              LDRH     r0,[r2,#0]  ; Vmon_value
000644  6130              STR      r0,[r6,#0x10]  ; Modify_B_READ
;;;495    			Modify_B_ACT = (g_tModS.RxBuf[3] << 8) + g_tModS.RxBuf[4];
000646  485b              LDR      r0,|L3.1972|
000648  7901              LDRB     r1,[r0,#4]  ; g_tModS
00064a  78c0              LDRB     r0,[r0,#3]  ; g_tModS
00064c  eb012000          ADD      r0,r1,r0,LSL #8
000650  61b0              STR      r0,[r6,#0x18]  ; Modify_B_ACT
;;;496    			var32a = Modify_B_ACT;
000652  69b0              LDR      r0,[r6,#0x18]  ; Modify_B_ACT
;;;497    			var32a = var32a - Modify_A_ACT;
000654  68f1              LDR      r1,[r6,#0xc]  ; Modify_A_ACT
000656  1a40              SUBS     r0,r0,r1
;;;498    			var32a = var32a << 14;
000658  0381              LSLS     r1,r0,#14
;;;499    			var16 = Modify_B_READ - Modify_A_READ;
00065a  6930              LDR      r0,[r6,#0x10]  ; Modify_B_READ
00065c  6872              LDR      r2,[r6,#4]  ; Modify_A_READ
00065e  1a80              SUBS     r0,r0,r2
000660  b280              UXTH     r0,r0
;;;500    			var32a = var32a / var16;
000662  fbb1f0f0          UDIV     r0,r1,r0
;;;501    			REG_POWERV = var32a;
000666  f8c80020          STR      r0,[r8,#0x20]  ; Correct_Parametet
;;;502    			var32a = Modify_B_ACT;
00066a  69b0              LDR      r0,[r6,#0x18]  ; Modify_B_ACT
;;;503    			var32a = var32a << 14;
00066c  0381              LSLS     r1,r0,#14
;;;504    			var32b = Modify_B_READ;
00066e  6932              LDR      r2,[r6,#0x10]  ; Modify_B_READ
;;;505    			var32b = var32b * REG_POWERV;
000670  f8d80020          LDR      r0,[r8,#0x20]  ; Correct_Parametet
000674  4350              MULS     r0,r2,r0
;;;506    			if (var32a < var32b)
000676  4281              CMP      r1,r0
000678  d206              BCS      |L3.1672|
;;;507    			{
;;;508    				var32b = var32b - var32a;
00067a  1a40              SUBS     r0,r0,r1
;;;509    				REG_POWERV_Offset = var32b;
00067c  6228              STR      r0,[r5,#0x20]  ; Correct_Strong
;;;510    				Polar5 |= 0x01;
00067e  7960              LDRB     r0,[r4,#5]  ; correct_por
000680  f0400001          ORR      r0,r0,#1
000684  7160              STRB     r0,[r4,#5]
000686  e005              B        |L3.1684|
                  |L3.1672|
;;;511    			}
;;;512    			else 
;;;513    			{
;;;514    				var32a = var32a - var32b;
000688  1a08              SUBS     r0,r1,r0
;;;515    				REG_POWERV_Offset = var32a;
00068a  6228              STR      r0,[r5,#0x20]  ; Correct_Strong
;;;516    				Polar5 &= ~0x01;					
00068c  7960              LDRB     r0,[r4,#5]  ; correct_por
00068e  f0200001          BIC      r0,r0,#1
000692  7160              STRB     r0,[r4,#5]
                  |L3.1684|
;;;517    			}
;;;518    	//---------------------------------------------------------------------------------//
;;;519    			var32c = Modify_B_ACT; //????У?
000694  69b0              LDR      r0,[r6,#0x18]  ; Modify_B_ACT
;;;520    			var32c = var32c - Modify_A_ACT;
000696  68f1              LDR      r1,[r6,#0xc]  ; Modify_A_ACT
000698  1a40              SUBS     r0,r0,r1
;;;521    			var32c = var32c << 14;
00069a  0381              LSLS     r1,r0,#14
;;;522    			var16a=Modify_D_READ-Modify_C_READ;
00069c  6970              LDR      r0,[r6,#0x14]  ; Modify_D_READ
00069e  68b2              LDR      r2,[r6,#8]  ; Modify_C_READ
0006a0  1a80              SUBS     r0,r0,r2
;;;523    			var16a=var16a*2;
0006a2  0440              LSLS     r0,r0,#17
0006a4  0c00              LSRS     r0,r0,#16
;;;524    			var32c=var32c/var16a;
0006a6  fbb1f0f0          UDIV     r0,r1,r0
;;;525    			SET_POWERV = var32c;
0006aa  f8c80024          STR      r0,[r8,#0x24]  ; Correct_Parametet
;;;526    			var32c = Modify_B_ACT;
0006ae  69b0              LDR      r0,[r6,#0x18]  ; Modify_B_ACT
;;;527    			var32c = var32c << 14;
0006b0  0380              LSLS     r0,r0,#14
;;;528    			var32d = SET_POWERV;
0006b2  f8d81024          LDR      r1,[r8,#0x24]  ; Correct_Parametet
;;;529    			var32d = var32d * (Modify_D_READ*2);
0006b6  6972              LDR      r2,[r6,#0x14]  ; Modify_D_READ
0006b8  4351              MULS     r1,r2,r1
0006ba  0049              LSLS     r1,r1,#1
;;;530    			if (var32c < var32d)
0006bc  4288              CMP      r0,r1
0006be  d206              BCS      |L3.1742|
;;;531    			{
;;;532    				var32d = var32d - var32c;
0006c0  1a08              SUBS     r0,r1,r0
;;;533    				SET_POWERV_Offset = var32d;
0006c2  6268              STR      r0,[r5,#0x24]  ; Correct_Strong
;;;534    				Polar5 |= 0x04;
0006c4  7960              LDRB     r0,[r4,#5]  ; correct_por
0006c6  f0400004          ORR      r0,r0,#4
0006ca  7160              STRB     r0,[r4,#5]
0006cc  e005              B        |L3.1754|
                  |L3.1742|
;;;535    			}
;;;536    			else 
;;;537    			{
;;;538    				var32c = var32c - var32d;
0006ce  1a40              SUBS     r0,r0,r1
;;;539    				SET_POWERV_Offset = var32c;
0006d0  6268              STR      r0,[r5,#0x24]  ; Correct_Strong
;;;540    				Polar5 &= ~0x04;
0006d2  7960              LDRB     r0,[r4,#5]  ; correct_por
0006d4  f0200004          BIC      r0,r0,#4
0006d8  7160              STRB     r0,[r4,#5]
                  |L3.1754|
;;;541    			}
;;;542    			Flash_Write_all ();	
0006da  f7fffffe          BL       Flash_Write_all
;;;543    			Flag_DAC_OFF=0;
0006de  6838              LDR      r0,[r7,#0]  ; flagB
0006e0  f0200008          BIC      r0,r0,#8
0006e4  6038              STR      r0,[r7,#0]  ; flagB
                  |L3.1766|
;;;544    		}
;;;545    /****************???・?У?**********************************/
;;;546    		if (g_tModS.RxBuf[1] == 0x0D)			  
0006e6  4933              LDR      r1,|L3.1972|
0006e8  7848              LDRB     r0,[r1,#1]  ; g_tModS
0006ea  280d              CMP      r0,#0xd
0006ec  d107              BNE      |L3.1790|
;;;547    		{ 
;;;548    			Modify_A_READ = Imon_value;
0006ee  f8bb2000          LDRH     r2,[r11,#0]  ; Imon_value
0006f2  6072              STR      r2,[r6,#4]  ; Modify_A_READ
;;;549    			Modify_A_ACT = (g_tModS.RxBuf[3] << 8) + g_tModS.RxBuf[4];
0006f4  790a              LDRB     r2,[r1,#4]  ; g_tModS
0006f6  78cb              LDRB     r3,[r1,#3]  ; g_tModS
0006f8  eb022203          ADD      r2,r2,r3,LSL #8
0006fc  60f2              STR      r2,[r6,#0xc]  ; Modify_A_ACT
                  |L3.1790|
;;;550    		}
;;;551    
;;;552    		if (g_tModS.RxBuf[1] == 0x0E)			   
0006fe  280e              CMP      r0,#0xe
000700  d12f              BNE      |L3.1890|
;;;553    		{
;;;554    			vu16 var16;
;;;555    			vu32 var32a;
;;;556    			vu32 var32b;
;;;557    			
;;;558    			vu16 var16a;
;;;559    			vu32 var32c;
;;;560    			vu32 var32d;
;;;561    			
;;;562    			Modify_B_READ = Imon_value;
000702  f8bb0000          LDRH     r0,[r11,#0]  ; Imon_value
000706  6130              STR      r0,[r6,#0x10]  ; Modify_B_READ
;;;563    			Modify_B_ACT = (g_tModS.RxBuf[3] << 8) + g_tModS.RxBuf[4];
000708  482a              LDR      r0,|L3.1972|
00070a  7901              LDRB     r1,[r0,#4]  ; g_tModS
00070c  78c0              LDRB     r0,[r0,#3]  ; g_tModS
00070e  eb012000          ADD      r0,r1,r0,LSL #8
000712  61b0              STR      r0,[r6,#0x18]  ; Modify_B_ACT
;;;564    			var32a = Modify_B_ACT;
000714  69b0              LDR      r0,[r6,#0x18]  ; Modify_B_ACT
;;;565    			var32a = var32a - Modify_A_ACT;
000716  68f1              LDR      r1,[r6,#0xc]  ; Modify_A_ACT
000718  1a40              SUBS     r0,r0,r1
;;;566    			var32a = var32a << 14;
00071a  0381              LSLS     r1,r0,#14
;;;567    			var16 = Modify_B_READ - Modify_A_READ;
00071c  6932              LDR      r2,[r6,#0x10]  ; Modify_B_READ
00071e  6870              LDR      r0,[r6,#4]  ; Modify_A_READ
000720  1a10              SUBS     r0,r2,r0
000722  b280              UXTH     r0,r0
;;;568    			var32a = var32a / var16;
000724  fbb1f0f0          UDIV     r0,r1,r0
;;;569    			CON_POWERA = var32a;
000728  f8c80028          STR      r0,[r8,#0x28]  ; Correct_Parametet
;;;570    			var32a = Modify_B_ACT;
00072c  69b0              LDR      r0,[r6,#0x18]  ; Modify_B_ACT
;;;571    			var32a = var32a << 14;
00072e  0381              LSLS     r1,r0,#14
;;;572    			var32b = Modify_B_READ;
000730  6932              LDR      r2,[r6,#0x10]  ; Modify_B_READ
;;;573    			var32b = var32b * CON_POWERA;
000732  f8d80028          LDR      r0,[r8,#0x28]  ; Correct_Parametet
000736  4350              MULS     r0,r2,r0
;;;574    			if (var32a < var32b)
000738  4281              CMP      r1,r0
00073a  d206              BCS      |L3.1866|
;;;575    			{
;;;576    				var32b = var32b - var32a;
00073c  1a40              SUBS     r0,r0,r1
;;;577    				CON_POWERA_Offset = var32b;
00073e  62a8              STR      r0,[r5,#0x28]  ; Correct_Strong
;;;578    				Polar3 |= 0x04;
000740  78e0              LDRB     r0,[r4,#3]  ; correct_por
000742  f0400004          ORR      r0,r0,#4
000746  70e0              STRB     r0,[r4,#3]
000748  e005              B        |L3.1878|
                  |L3.1866|
;;;579    			}
;;;580    			else 
;;;581    			{
;;;582    				var32a = var32a - var32b;
00074a  1a08              SUBS     r0,r1,r0
;;;583    				CON_POWERA_Offset = var32a;
00074c  62a8              STR      r0,[r5,#0x28]  ; Correct_Strong
;;;584    				Polar3 &= ~0x04;					
00074e  78e0              LDRB     r0,[r4,#3]  ; correct_por
000750  f0200004          BIC      r0,r0,#4
000754  70e0              STRB     r0,[r4,#3]
                  |L3.1878|
;;;585    			}
;;;586    			Flash_Write_all ();	
000756  f7fffffe          BL       Flash_Write_all
;;;587    			Flag_DAC_OFF=0;
00075a  6838              LDR      r0,[r7,#0]  ; flagB
00075c  f0200008          BIC      r0,r0,#8
000760  6038              STR      r0,[r7,#0]  ; flagB
                  |L3.1890|
;;;588    		}
;;;589    /***********??DAC*******************************************/
;;;590    		if (g_tModS.RxBuf[1] == 0x0F)			   
000762  4914              LDR      r1,|L3.1972|
000764  7848              LDRB     r0,[r1,#1]  ; g_tModS
000766  280f              CMP      r0,#0xf
000768  d109              BNE      |L3.1918|
;;;591    		{
;;;592    			Contr_Laod = (g_tModS.RxBuf[3] << 8) + g_tModS.RxBuf[4];
00076a  790a              LDRB     r2,[r1,#4]  ; g_tModS
00076c  78cb              LDRB     r3,[r1,#3]  ; g_tModS
00076e  eb022203          ADD      r2,r2,r3,LSL #8
000772  f8aa2000          STRH     r2,[r10,#0]
;;;593    			Flag_DAC_OFF=1;
000776  683a              LDR      r2,[r7,#0]  ; flagB
000778  f0420208          ORR      r2,r2,#8
00077c  603a              STR      r2,[r7,#0]  ; flagB
                  |L3.1918|
;;;594    		}
;;;595    		if (g_tModS.RxBuf[1] == 0x20)			   
00077e  2820              CMP      r0,#0x20
000780  d109              BNE      |L3.1942|
;;;596    		{
;;;597    			Contr_Voltage = (g_tModS.RxBuf[3] << 8) + g_tModS.RxBuf[4];
000782  790a              LDRB     r2,[r1,#4]  ; g_tModS
000784  78cb              LDRB     r3,[r1,#3]  ; g_tModS
000786  eb022203          ADD      r2,r2,r3,LSL #8
00078a  f8a92000          STRH     r2,[r9,#0]
;;;598    			Flag_DAC_OFF=1;
00078e  683a              LDR      r2,[r7,#0]  ; flagB
000790  f0420208          ORR      r2,r2,#8
000794  603a              STR      r2,[r7,#0]  ; flagB
                  |L3.1942|
;;;599    		}
;;;600    		if (g_tModS.RxBuf[1] == 0x21)			   
000796  2821              CMP      r0,#0x21
000798  d109              BNE      |L3.1966|
;;;601    		{
;;;602    			Contr_Current = (g_tModS.RxBuf[3] << 8) + g_tModS.RxBuf[4];
00079a  7908              LDRB     r0,[r1,#4]  ; g_tModS
00079c  78c9              LDRB     r1,[r1,#3]  ; g_tModS
00079e  eb002001          ADD      r0,r0,r1,LSL #8
0007a2  4909              LDR      r1,|L3.1992|
0007a4  8008              STRH     r0,[r1,#0]
;;;603    			Flag_DAC_OFF=1;
0007a6  6838              LDR      r0,[r7,#0]  ; flagB
0007a8  f0400008          ORR      r0,r0,#8
0007ac  6038              STR      r0,[r7,#0]  ; flagB
                  |L3.1966|
;;;604    		}
;;;605    	}
;;;606    //===================================================================================
;;;607    }
0007ae  e8bd9ff0          POP      {r4-r12,pc}
;;;608    //===============================AD值转换成测量值============================================//
                          ENDP

0007b2  0000              DCW      0x0000
                  |L3.1972|
                          DCD      g_tModS
                  |L3.1976|
                          DCD      Rmon_value
                  |L3.1980|
                          DCD      flagG
                  |L3.1984|
                          DCD      r_raly
                  |L3.1988|
                          DCD      Imon_value
                  |L3.1992|
                          DCD      Contr_Current
                  |L3.1996|
                          DCD      Vmon_value
                  |L3.2000|
                          DCD      Contr_Voltage

                          AREA ||.bss||, DATA, NOINIT, ALIGN=2

                  Correct_Parametet
                          %        68
                  Correct_Strong
                          %        68
                  Run_Control
                          %        168

                          AREA ||.data||, DATA, ALIGN=1

                  ADJ_Write
000000  0000              DCB      0x00,0x00

                          AREA ||area_number.8||, DATA, ALIGN=2

                          EXPORTAS ||area_number.8||, ||.data||
                  DAC_Flag
000000  00                DCB      0x00
                  ADDR
000001  000000            DCB      0x00,0x00,0x00
                  Modify_A_READ
                          DCD      0x00000000
                  Modify_C_READ
                          DCD      0x00000000
                  Modify_A_ACT
                          DCD      0x00000000
                  Modify_B_READ
                          DCD      0x00000000
                  Modify_D_READ
                          DCD      0x00000000
                  Modify_B_ACT
                          DCD      0x00000000
                  correct_por
                          DCD      0x00000000
000020  0000              DCB      0x00,0x00

;*** Start embedded assembler ***

#line 1 "..\\drive\\modbus.c"
	AREA ||.rev16_text||, CODE, READONLY
	THUMB
	EXPORT |__asm___8_modbus_c_bae18981____REV16|
#line 114 "D:\\Keil\\ARM\\CMSIS\\Include\\core_cmInstr.h"
|__asm___8_modbus_c_bae18981____REV16| PROC
#line 115

 rev16 r0, r0
 bx lr
	ENDP
	AREA ||.revsh_text||, CODE, READONLY
	THUMB
	EXPORT |__asm___8_modbus_c_bae18981____REVSH|
#line 128
|__asm___8_modbus_c_bae18981____REVSH| PROC
#line 129

 revsh r0, r0
 bx lr
	ENDP

;*** End   embedded assembler ***
