; generated by ARM C/C++ Compiler, 4.1 [Build 894]
; commandline ArmCC [--list --split_sections --debug -c --asm --interleave -o..\Output\r_face.o --asm_dir=..\Listing\ --list_dir=..\Listing\ --depend=..\Output\r_face.d --cpu=Cortex-M4.fp --apcs=interwork --diag_suppress=870 -I..\APP -I..\drive -I..\Include -I..\Libraries\CMSIS\inc -I..\Libraries\CMSIS\src -I..\Libraries\FWlib\inc -I..\Libraries\FWlib\src -I..\Listing -I..\Output -I..\Project -I..\STemWinLibrary522\Config -I..\STemWinLibrary522\emWinTask -I..\STemWinLibrary522\GUILib -I..\STemWinLibrary522\inc -I..\User -I..\USB\STM32_USB_HOST_Library\Class\HID\inc -I..\USB\STM32_USB_HOST_Library\Class\MSC\src -I..\USB\STM32_USB_HOST_Library\Core\src -I..\USB\USB_APP -I..\USB\STM32_USB_HOST_Library\Class\HID\src -I..\USB\STM32_USB_HOST_Library\Class\MSC\inc -I..\USB\STM32_USB_HOST_Library\Core\inc -I..\USB\STM32_USB_OTG_Driver\inc -I..\FATFS\exfuns -I..\FATFS\src\option -I..\FATFS\src -I..\MALLOC -ID:\Keil\ARM\RV31\Inc -ID:\Keil\ARM\CMSIS\Include -ID:\Keil\ARM\Inc\ST\STM32F4xx -DUSE_STDPERIPH_DRIVER -DSTM32F40XX -DUSE_USB_OTG_FS -DUSE_EMBEDDED_PHY -DUSE_USB_OTG_HS -DSTM32F40XX --omf_browse=..\Output\r_face.crf ..\APP\R_Face.c]
                          THUMB

                          AREA ||i.CreateR||, CODE, READONLY, ALIGN=2

                  CreateR PROC
;;;1203   WM_HWIN CreateR(void);
;;;1204   WM_HWIN CreateR(void) {
000000  b57c              PUSH     {r2-r6,lr}
;;;1205     oc_sw = set_72;
000002  4c0e              LDR      r4,|L1.60|
000004  2047              MOVS     r0,#0x47
000006  71a0              STRB     r0,[r4,#6]
;;;1206     page_sw = face_r;
000008  2003              MOVS     r0,#3
00000a  70a0              STRB     r0,[r4,#2]
;;;1207     track = face_r;
00000c  490c              LDR      r1,|L1.64|
00000e  7008              STRB     r0,[r1,#0]
;;;1208       con_flag = 0;
000010  2500              MOVS     r5,#0
000012  71e5              STRB     r5,[r4,#7]
;;;1209       setmode_r();
000014  f7fffffe          BL       setmode_r
;;;1210   //    GPIO_SetBits(GPIOA,GPIO_Pin_15);//电子负载OFF
;;;1211   //    GPIO_SetBits(GPIOB,GPIO_Pin_13);
;;;1212   //    r_raly = 1;
;;;1213   //  set_init_c = SET_Current_Laod;
;;;1214       r_raly = 1;
000018  490a              LDR      r1,|L1.68|
00001a  2001              MOVS     r0,#1
00001c  7008              STRB     r0,[r1,#0]
;;;1215     pass = 0;
00001e  480a              LDR      r0,|L1.72|
000020  7005              STRB     r5,[r0,#0]
;;;1216     hWinR = GUI_CreateDialogBox(_aDialogCreate, GUI_COUNTOF(_aDialogCreate), _cbDialog, WM_HBKWIN, 0, 0);
000022  f7fffffe          BL       WM_GetDesktopWindow
000026  4603              MOV      r3,r0
000028  9500              STR      r5,[sp,#0]
00002a  4a08              LDR      r2,|L1.76|
00002c  2120              MOVS     r1,#0x20
00002e  4808              LDR      r0,|L1.80|
000030  9501              STR      r5,[sp,#4]
000032  f7fffffe          BL       GUI_CreateDialogBox
000036  6260              STR      r0,[r4,#0x24]  ; hWinR
;;;1217     return hWinR;
;;;1218   }
000038  bd7c              POP      {r2-r6,pc}
;;;1219   
                          ENDP

00003a  0000              DCW      0x0000
                  |L1.60|
                          DCD      ||.data||
                  |L1.64|
                          DCD      track
                  |L1.68|
                          DCD      r_raly
                  |L1.72|
                          DCD      pass
                  |L1.76|
                          DCD      _cbDialog
                  |L1.80|
                          DCD      ||.constdata||

                          AREA ||i.INPUT_C||, CODE, READONLY, ALIGN=2

                  INPUT_C PROC
;;;1595   void INPUT_C(char* num);            
;;;1596   void INPUT_C(char* num){
000000  e92d5ff0          PUSH     {r4-r12,lr}
;;;1597       switch(oc_sw)
000004  4dfc              LDR      r5,|L2.1016|
000006  4681              MOV      r9,r0                 ;1596
000008  79a9              LDRB     r1,[r5,#6]  ; oc_sw
00000a  4628              MOV      r0,r5
;;;1598       {
;;;1599           case set_22:
;;;1600           {
;;;1601               WM_HWIN hItem;
;;;1602   //            WM_InvalidateWindow(hWinR);
;;;1603               hItem = WM_GetDialogItem(hWinR, ID_TEXT_46);
;;;1604               switch(bit){
;;;1605                   case 1:
;;;1606                   {
;;;1607                       set_init_c = atoi(num) * 1000;
00000c  4cfb              LDR      r4,|L2.1020|
;;;1608                       strcat(set_limit,num);            
;;;1609                       TEXT_SetText(hItem,set_limit);
;;;1610                       
;;;1611                       bit = 2;
00000e  2602              MOVS     r6,#2
;;;1612                       break;
;;;1613                   }
;;;1614                   case 2:
;;;1615                   {
;;;1616                       strcat(set_limit,num);            
;;;1617                       TEXT_SetText(hItem,set_limit);
;;;1618                       if(set_limit[1] == 0x2e)//判断输入是否为小数点
;;;1619                       {
;;;1620                           dot_flag = 1;
;;;1621                       }else{
;;;1622                           set_init_c = set_init_c * 10 + atoi(num) * 1000;
;;;1623                       }
;;;1624                       bit = 3;
;;;1625                       break;
;;;1626                   }
;;;1627                   case 3:
;;;1628                   {
;;;1629                       strcat(set_limit,num);
;;;1630                       TEXT_SetText(hItem,set_limit);
;;;1631                       if(dot_flag == 0)
;;;1632                       {
;;;1633                           if(set_limit[2] == 0x2e)//判断输入是否为小数点
;;;1634                           {                            
;;;1635                               dot_flag = 2;
;;;1636                           }else{
;;;1637                               set_init_c = 0;
000010  2700              MOVS     r7,#0
000012  6a40              LDR      r0,[r0,#0x24]         ;1603
000014  f1050b44          ADD      r11,r5,#0x44          ;1608
000018  f04f0a01          MOV      r10,#1                ;1620
00001c  2915              CMP      r1,#0x15              ;1597
00001e  d026              BEQ      |L2.110|
000020  2916              CMP      r1,#0x16              ;1597
000022  d070              BEQ      |L2.262|
000024  2940              CMP      r1,#0x40              ;1597
000026  d06f              BEQ      |L2.264|
000028  2946              CMP      r1,#0x46              ;1597
00002a  d16e              BNE      |L2.266|
;;;1638                           }
;;;1639                       }else{
;;;1640                           set_init_c = set_init_c + atoi(num) * 100;
;;;1641                       }                  
;;;1642                       bit = 4;
;;;1643                       break;
;;;1644                   }
;;;1645                   case 4:
;;;1646                   {
;;;1647                       strcat(set_limit,num);
;;;1648                       TEXT_SetText(hItem,set_limit);
;;;1649                       if(dot_flag == 0)
;;;1650                       {
;;;1651                           SET_Current_Laod = 0;
;;;1652                       }else if(dot_flag == 2){
;;;1653                           set_init_c = set_init_c + atoi(num) * 100;
;;;1654                       }else{
;;;1655                           set_init_c = set_init_c + atoi(num)*10;
;;;1656                       }                  
;;;1657                       bit = 5;
;;;1658                       break;
;;;1659                   }
;;;1660                   case 5:
;;;1661                   {
;;;1662                       strcat(set_limit,num);
;;;1663                       TEXT_SetText(hItem,set_limit);
;;;1664                       if(dot_flag == 0)
;;;1665                       {
;;;1666                           set_init_c = 0;
;;;1667                       }else if(dot_flag == 1){
;;;1668                           set_init_c = set_init_c + atoi(num);
;;;1669                       }else{
;;;1670                           set_init_c = set_init_c + atoi(num) * 10;
;;;1671                       }                 
;;;1672                       bit = 6;
;;;1673                       break;
;;;1674                   }
;;;1675                   case 6:
;;;1676                   {
;;;1677                       strcat(set_limit,num);
;;;1678                       TEXT_SetText(hItem,set_limit);
;;;1679                       if(dot_flag == 0)
;;;1680                       {
;;;1681                           set_init_c = 0;
;;;1682                       }else if(dot_flag == 2){
;;;1683                           set_init_c = set_init_c + atoi(num);
;;;1684                       }                 
;;;1685                       bit = 1;
;;;1686                       break;
;;;1687                   }
;;;1688               }
;;;1689               break;        
;;;1690           }
;;;1691           case set_23:
;;;1692           {
;;;1693               WM_HWIN hItem;
;;;1694   //            WM_InvalidateWindow(hWinR);
;;;1695               hItem = WM_GetDialogItem(hWinR, ID_TEXT_47);
;;;1696               switch(bit){
;;;1697                   case 1:
;;;1698                   {
;;;1699                       set_sbs_c = atoi(num) * 1000;
;;;1700                       strcat(set_limit,num);            
;;;1701                       TEXT_SetText(hItem,set_limit);
;;;1702                       
;;;1703                       bit = 2;
;;;1704                       break;
;;;1705                   }
;;;1706                   case 2:
;;;1707                   {
;;;1708                       strcat(set_limit,num);            
;;;1709                       TEXT_SetText(hItem,set_limit);
;;;1710                       if(set_limit[1] == 0x2e)//判断输入是否为小数点
;;;1711                       {
;;;1712                           dot_flag = 1;
;;;1713                       }else{
;;;1714                           set_sbs_c = set_sbs_c * 10 + atoi(num) * 1000;
;;;1715                       }
;;;1716                       bit = 3;
;;;1717                       break;
;;;1718                   }
;;;1719                   case 3:
;;;1720                   {
;;;1721                       strcat(set_limit,num);
;;;1722                       TEXT_SetText(hItem,set_limit);
;;;1723                       if(dot_flag == 0)
;;;1724                       {
;;;1725                           if(set_limit[2] == 0x2e)//判断输入是否为小数点
;;;1726                           {                            
;;;1727                               dot_flag = 2;
;;;1728                           }else{
;;;1729                               set_sbs_c = 0;
;;;1730                           }
;;;1731                       }else{
;;;1732                           set_sbs_c = set_sbs_c + atoi(num) * 100;
;;;1733                       }                  
;;;1734                       bit = 4;
;;;1735                       break;
;;;1736                   }
;;;1737                   case 4:
;;;1738                   {
;;;1739                       strcat(set_limit,num);
;;;1740                       TEXT_SetText(hItem,set_limit);
;;;1741                       if(dot_flag == 0)
;;;1742                       {
;;;1743                           set_sbs_c = 0;
;;;1744                       }else if(dot_flag == 2){
;;;1745                           set_sbs_c = set_sbs_c + atoi(num) * 100;
;;;1746                       }else{
;;;1747                           set_sbs_c = set_sbs_c + atoi(num)*10;
;;;1748                       }                  
;;;1749                       bit = 5;
;;;1750                       break;
;;;1751                   }
;;;1752                   case 5:
;;;1753                   {
;;;1754                       strcat(set_limit,num);
;;;1755                       TEXT_SetText(hItem,set_limit);
;;;1756                       if(dot_flag == 0)
;;;1757                       {
;;;1758                           set_sbs_c = 0;
;;;1759                       }else if(dot_flag == 1){
;;;1760                           set_sbs_c = set_sbs_c + atoi(num);
;;;1761                       }else{
;;;1762                           set_sbs_c = set_sbs_c + atoi(num) * 10;
;;;1763                       }                 
;;;1764                       bit = 6;
;;;1765                       break;
;;;1766                   }
;;;1767                   case 6:
;;;1768                   {
;;;1769                       strcat(set_limit,num);
;;;1770                       TEXT_SetText(hItem,set_limit);
;;;1771                       if(dot_flag == 0)
;;;1772                       {
;;;1773                           set_sbs_c = 0;
;;;1774                       }else if(dot_flag == 2){
;;;1775                           set_sbs_c = set_sbs_c + atoi(num);
;;;1776                       }                 
;;;1777                       bit = 1;
;;;1778                       break;
;;;1779                   }
;;;1780               }
;;;1781               break;        
;;;1782           }
;;;1783           case set_65:
;;;1784           {
;;;1785               WM_HWIN hItem;
;;;1786   //            WM_InvalidateWindow(hWinR);
;;;1787               hItem = WM_GetDialogItem(hWinR, ID_TEXT_97);
;;;1788               switch(bit){
;;;1789                   case 1:
;;;1790                   {
;;;1791                       dis_gate_v = atoi(num) * 1000;
;;;1792                       strcat(set_limit,num);            
;;;1793                       TEXT_SetText(hItem,set_limit);
;;;1794                       
;;;1795                       bit = 2;
;;;1796                       break;
;;;1797                   }
;;;1798                   case 2:
;;;1799                   {
;;;1800                       strcat(set_limit,num);            
;;;1801                       TEXT_SetText(hItem,set_limit);
;;;1802                       if(set_limit[1] == 0x2e)//判断输入是否为小数点
;;;1803                       {
;;;1804                           dot_flag = 1;
;;;1805                       }else{
;;;1806                           dis_gate_v = dis_gate_v * 10 + atoi(num) * 1000;
;;;1807                       }
;;;1808                       bit = 3;
;;;1809                       break;
;;;1810                   }
;;;1811                   case 3:
;;;1812                   {
;;;1813                       strcat(set_limit,num);
;;;1814                       TEXT_SetText(hItem,set_limit);
;;;1815                       if(dot_flag == 0)
;;;1816                       {
;;;1817                           if(set_limit[2] == 0x2e)//判断输入是否为小数点
;;;1818                           {                            
;;;1819                               dot_flag = 2;
;;;1820                           }else{
;;;1821                               dis_gate_v = 0;
;;;1822                           }
;;;1823                       }else{
;;;1824                           dis_gate_v = dis_gate_v + atoi(num) * 100;
;;;1825                       }                  
;;;1826                       bit = 4;
;;;1827                       break;
;;;1828                   }
;;;1829                   case 4:
;;;1830                   {
;;;1831                       strcat(set_limit,num);
;;;1832                       TEXT_SetText(hItem,set_limit);
;;;1833                       if(dot_flag == 0)
;;;1834                       {
;;;1835                           dis_gate_v = 0;
;;;1836                       }else if(dot_flag == 2){
;;;1837                           dis_gate_v = dis_gate_v + atoi(num) * 100;
;;;1838                       }else{
;;;1839                           dis_gate_v = dis_gate_v + atoi(num)*10;
;;;1840                       }                  
;;;1841                       bit = 5;
;;;1842                       break;
;;;1843                   }
;;;1844                   case 5:
;;;1845                   {
;;;1846                       strcat(set_limit,num);
;;;1847                       TEXT_SetText(hItem,set_limit);
;;;1848                       if(dot_flag == 0)
;;;1849                       {
;;;1850                           dis_gate_v = 0;
;;;1851                       }else if(dot_flag == 1){
;;;1852                           dis_gate_v = dis_gate_v + + atoi(num);
;;;1853                       }else{
;;;1854                           dis_gate_v = dis_gate_v + atoi(num)*10;
;;;1855                       }                 
;;;1856                       bit = 6;
;;;1857                       break;
;;;1858                   }
;;;1859                   case 6:
;;;1860                   {
;;;1861                       strcat(set_limit,num);
;;;1862                       TEXT_SetText(hItem,set_limit);
;;;1863                       if(dot_flag == 0)
;;;1864                       {
;;;1865                           dis_gate_v = 0;
;;;1866                       }else if(dot_flag == 2){
;;;1867                           dis_gate_v = dis_gate_v + atoi(num);
;;;1868                       }                 
;;;1869                       bit = 1;
;;;1870                       break;
;;;1871                   }
;;;1872               }
;;;1873               break;        
;;;1874           }
;;;1875           case set_71:
;;;1876           {
;;;1877               WM_HWIN hItem;
;;;1878   //            WM_InvalidateWindow(hWinset);
;;;1879               hItem = WM_GetDialogItem(hWinR, ID_TEXT_130);
00002c  f640110e          MOV      r1,#0x90e
000030  f7fffffe          BL       WM_GetDialogItem
000034  4604              MOV      r4,r0
;;;1880               switch(bit){
000036  7828              LDRB     r0,[r5,#0]  ; bit
000038  2801              CMP      r0,#1
00003a  d067              BEQ      |L2.268|
00003c  2802              CMP      r0,#2
00003e  d06e              BEQ      |L2.286|
000040  2803              CMP      r0,#3
000042  d06d              BEQ      |L2.288|
000044  2804              CMP      r0,#4
000046  d160              BNE      |L2.266|
;;;1881                   case 1:
;;;1882                   {
;;;1883                       steptime = atoi(num);
;;;1884                       strcat(set_limit,num);            
;;;1885                       TEXT_SetText(hItem,set_limit);
;;;1886                       bit = 2;
;;;1887                       break; 
;;;1888                   }
;;;1889                   case 2:
;;;1890                   {
;;;1891                       steptime = steptime * 10 + atoi(num);
;;;1892                       strcat(set_limit,num);            
;;;1893                       TEXT_SetText(hItem,set_limit);
;;;1894                       bit = 3;
;;;1895                       break; 
;;;1896                   }
;;;1897                   case 3:
;;;1898                   {
;;;1899                       steptime = steptime * 10 + atoi(num);
;;;1900                       strcat(set_limit,num);            
;;;1901                       TEXT_SetText(hItem,set_limit);
;;;1902                       bit = 4;
;;;1903                       break; 
;;;1904                   }
;;;1905                   case 4:
;;;1906                   {
;;;1907                       steptime = steptime * 10 + atoi(num);
000048  4648              MOV      r0,r9
00004a  f7fffffe          BL       atoi
00004e  4601              MOV      r1,r0
000050  8aa8              LDRH     r0,[r5,#0x14]  ; steptime
000052  eb000080          ADD      r0,r0,r0,LSL #2
000056  eb010040          ADD      r0,r1,r0,LSL #1
00005a  82a8              STRH     r0,[r5,#0x14]
;;;1908                       strcat(set_limit,num);            
00005c  4649              MOV      r1,r9
00005e  4658              MOV      r0,r11
000060  f7fffffe          BL       strcat
;;;1909                       TEXT_SetText(hItem,set_limit);
000064  4659              MOV      r1,r11
000066  4620              MOV      r0,r4
000068  f7fffffe          BL       TEXT_SetText
;;;1910                       bit = 1;
;;;1911                       break; 
00006c  e228              B        |L2.1216|
                  |L2.110|
00006e  f640016b          MOV      r1,#0x86b             ;1603
000072  f7fffffe          BL       WM_GetDialogItem
000076  4680              MOV      r8,r0                 ;1603
000078  7828              LDRB     r0,[r5,#0]            ;1604  ; bit
00007a  2807              CMP      r0,#7                 ;1604
00007c  d245              BCS      |L2.266|
00007e  e8dff000          TBB      [pc,r0]               ;1604
000082  af04              DCB      0xaf,0x04
000084  0c2a5075          DCB      0x0c,0x2a,0x50,0x75
000088  9500              DCB      0x95,0x00
00008a  4648              MOV      r0,r9                 ;1607
00008c  f7fffffe          BL       atoi
000090  f44f717a          MOV      r1,#0x3e8             ;1607
000094  4348              MULS     r0,r1,r0              ;1607
000096  65a0              STR      r0,[r4,#0x58]         ;1607  ; Run_Control
000098  e0ba              B        |L2.528|
00009a  48d7              LDR      r0,|L2.1016|
00009c  4649              MOV      r1,r9                 ;1616
00009e  3044              ADDS     r0,r0,#0x44           ;1616
0000a0  f7fffffe          BL       strcat
0000a4  49d4              LDR      r1,|L2.1016|
0000a6  4640              MOV      r0,r8                 ;1617
0000a8  3144              ADDS     r1,r1,#0x44           ;1617
0000aa  f7fffffe          BL       TEXT_SetText
0000ae  f89b0001          LDRB     r0,[r11,#1]           ;1618  ; set_limit
0000b2  282e              CMP      r0,#0x2e              ;1618
0000b4  d00c              BEQ      |L2.208|
0000b6  4648              MOV      r0,r9                 ;1622
0000b8  f7fffffe          BL       atoi
0000bc  f44f717a          MOV      r1,#0x3e8             ;1622
0000c0  4348              MULS     r0,r1,r0              ;1622
0000c2  6da1              LDR      r1,[r4,#0x58]         ;1622  ; Run_Control
0000c4  eb010181          ADD      r1,r1,r1,LSL #2       ;1622
0000c8  eb000041          ADD      r0,r0,r1,LSL #1       ;1622
0000cc  65a0              STR      r0,[r4,#0x58]         ;1622  ; Run_Control
0000ce  e177              B        |L2.960|
                  |L2.208|
0000d0  f885a001          STRB     r10,[r5,#1]           ;1620
0000d4  e174              B        |L2.960|
0000d6  48c8              LDR      r0,|L2.1016|
0000d8  4649              MOV      r1,r9                 ;1629
0000da  3044              ADDS     r0,r0,#0x44           ;1629
0000dc  f7fffffe          BL       strcat
0000e0  49c5              LDR      r1,|L2.1016|
0000e2  4640              MOV      r0,r8                 ;1630
0000e4  3144              ADDS     r1,r1,#0x44           ;1630
0000e6  f7fffffe          BL       TEXT_SetText
0000ea  7868              LDRB     r0,[r5,#1]            ;1631  ; dot_flag
0000ec  b178              CBZ      r0,|L2.270|
0000ee  4648              MOV      r0,r9                 ;1640
0000f0  f7fffffe          BL       atoi
0000f4  eb0001c0          ADD      r1,r0,r0,LSL #3       ;1640
0000f8  eb011000          ADD      r0,r1,r0,LSL #4       ;1640
0000fc  6da1              LDR      r1,[r4,#0x58]         ;1640  ; Run_Control
0000fe  eb010080          ADD      r0,r1,r0,LSL #2       ;1640
000102  65a0              STR      r0,[r4,#0x58]         ;1640  ; Run_Control
000104  e175              B        |L2.1010|
                  |L2.262|
000106  e06d              B        |L2.484|
                  |L2.264|
000108  e127              B        |L2.858|
                  |L2.266|
00010a  e069              B        |L2.480|
                  |L2.268|
00010c  e1da              B        |L2.1220|
                  |L2.270|
00010e  f89b0002          LDRB     r0,[r11,#2]           ;1633  ; set_limit
000112  282e              CMP      r0,#0x2e              ;1633
000114  d001              BEQ      |L2.282|
000116  65a7              STR      r7,[r4,#0x58]         ;1637  ; Run_Control
000118  e16b              B        |L2.1010|
                  |L2.282|
00011a  706e              STRB     r6,[r5,#1]            ;1635
00011c  e169              B        |L2.1010|
                  |L2.286|
00011e  e1dc              B        |L2.1242|
                  |L2.288|
000120  e1ee              B        |L2.1280|
000122  48b5              LDR      r0,|L2.1016|
000124  4649              MOV      r1,r9                 ;1647
000126  3044              ADDS     r0,r0,#0x44           ;1647
000128  f7fffffe          BL       strcat
00012c  49b2              LDR      r1,|L2.1016|
00012e  4640              MOV      r0,r8                 ;1648
000130  3144              ADDS     r1,r1,#0x44           ;1648
000132  f7fffffe          BL       TEXT_SetText
000136  7868              LDRB     r0,[r5,#1]            ;1649  ; dot_flag
000138  b160              CBZ      r0,|L2.340|
00013a  7868              LDRB     r0,[r5,#1]            ;1652  ; dot_flag
00013c  2802              CMP      r0,#2                 ;1652
00013e  4648              MOV      r0,r9                 ;1655
000140  d00a              BEQ      |L2.344|
000142  f7fffffe          BL       atoi
000146  6da1              LDR      r1,[r4,#0x58]         ;1655  ; Run_Control
000148  eb000080          ADD      r0,r0,r0,LSL #2       ;1655
00014c  eb010040          ADD      r0,r1,r0,LSL #1       ;1655
                  |L2.336|
000150  65a0              STR      r0,[r4,#0x58]         ;1653  ; Run_Control
000152  e172              B        |L2.1082|
                  |L2.340|
000154  6127              STR      r7,[r4,#0x10]         ;1651  ; Run_Control
000156  e170              B        |L2.1082|
                  |L2.344|
000158  f7fffffe          BL       atoi
00015c  eb0001c0          ADD      r1,r0,r0,LSL #3       ;1653
000160  eb011000          ADD      r0,r1,r0,LSL #4       ;1653
000164  6da1              LDR      r1,[r4,#0x58]         ;1653  ; Run_Control
000166  eb010080          ADD      r0,r1,r0,LSL #2       ;1653
00016a  e7f1              B        |L2.336|
00016c  48a2              LDR      r0,|L2.1016|
00016e  4649              MOV      r1,r9                 ;1662
000170  3044              ADDS     r0,r0,#0x44           ;1662
000172  f7fffffe          BL       strcat
000176  49a0              LDR      r1,|L2.1016|
000178  4640              MOV      r0,r8                 ;1663
00017a  3144              ADDS     r1,r1,#0x44           ;1663
00017c  f7fffffe          BL       TEXT_SetText
000180  7868              LDRB     r0,[r5,#1]            ;1664  ; dot_flag
000182  b160              CBZ      r0,|L2.414|
000184  7868              LDRB     r0,[r5,#1]            ;1667  ; dot_flag
000186  2801              CMP      r0,#1                 ;1667
000188  4648              MOV      r0,r9                 ;1670
00018a  d00a              BEQ      |L2.418|
00018c  f7fffffe          BL       atoi
000190  6da1              LDR      r1,[r4,#0x58]         ;1670  ; Run_Control
000192  eb000080          ADD      r0,r0,r0,LSL #2       ;1670
000196  eb010040          ADD      r0,r1,r0,LSL #1       ;1670
                  |L2.410|
00019a  65a0              STR      r0,[r4,#0x58]         ;1668  ; Run_Control
00019c  e171              B        |L2.1154|
                  |L2.414|
00019e  65a7              STR      r7,[r4,#0x58]         ;1666  ; Run_Control
0001a0  e16f              B        |L2.1154|
                  |L2.418|
0001a2  f7fffffe          BL       atoi
0001a6  6da1              LDR      r1,[r4,#0x58]         ;1668  ; Run_Control
0001a8  4408              ADD      r0,r0,r1              ;1668
0001aa  e7f6              B        |L2.410|
0001ac  4892              LDR      r0,|L2.1016|
0001ae  4649              MOV      r1,r9                 ;1677
0001b0  3044              ADDS     r0,r0,#0x44           ;1677
0001b2  f7fffffe          BL       strcat
0001b6  4990              LDR      r1,|L2.1016|
0001b8  4640              MOV      r0,r8                 ;1678
0001ba  3144              ADDS     r1,r1,#0x44           ;1678
0001bc  f7fffffe          BL       TEXT_SetText
0001c0  7868              LDRB     r0,[r5,#1]            ;1679  ; dot_flag
0001c2  b118              CBZ      r0,|L2.460|
0001c4  7868              LDRB     r0,[r5,#1]            ;1682  ; dot_flag
0001c6  2802              CMP      r0,#2                 ;1682
0001c8  d002              BEQ      |L2.464|
0001ca  e179              B        |L2.1216|
                  |L2.460|
0001cc  65a7              STR      r7,[r4,#0x58]         ;1681  ; Run_Control
0001ce  e177              B        |L2.1216|
                  |L2.464|
0001d0  4648              MOV      r0,r9                 ;1683
0001d2  f7fffffe          BL       atoi
0001d6  6da1              LDR      r1,[r4,#0x58]         ;1683  ; Run_Control
0001d8  4408              ADD      r0,r0,r1              ;1683
0001da  65a0              STR      r0,[r4,#0x58]         ;1683  ; Run_Control
0001dc  e170              B        |L2.1216|
                  |L2.478|
0001de  7028              STRB     r0,[r5,#0]            ;1685
                  |L2.480|
;;;1912                   }
;;;1913               }
;;;1914               break;           
;;;1915           }
;;;1916           
;;;1917       }
;;;1918   }
0001e0  e8bd9ff0          POP      {r4-r12,pc}
                  |L2.484|
0001e4  f640016c          MOV      r1,#0x86c             ;1695
0001e8  f7fffffe          BL       WM_GetDialogItem
0001ec  4680              MOV      r8,r0                 ;1695
0001ee  7828              LDRB     r0,[r5,#0]            ;1696  ; bit
0001f0  2807              CMP      r0,#7                 ;1696
0001f2  d2f5              BCS      |L2.480|
0001f4  e8dff000          TBB      [pc,r0]               ;1696
0001f8  04051834          DCB      0x04,0x05,0x18,0x34
0001fc  53789800          DCB      0x53,0x78,0x98,0x00
000200  e7ee              B        |L2.480|
000202  4648              MOV      r0,r9                 ;1699
000204  f7fffffe          BL       atoi
000208  f44f717a          MOV      r1,#0x3e8             ;1699
00020c  4348              MULS     r0,r1,r0              ;1699
00020e  65e0              STR      r0,[r4,#0x5c]         ;1699  ; Run_Control
                  |L2.528|
000210  4879              LDR      r0,|L2.1016|
000212  4649              MOV      r1,r9                 ;1608
000214  3044              ADDS     r0,r0,#0x44           ;1608
000216  f7fffffe          BL       strcat
00021a  4977              LDR      r1,|L2.1016|
00021c  4640              MOV      r0,r8                 ;1609
00021e  3144              ADDS     r1,r1,#0x44           ;1609
                  |L2.544|
000220  f7fffffe          BL       TEXT_SetText
000224  702e              STRB     r6,[r5,#0]            ;1611
                  |L2.550|
000226  e7db              B        |L2.480|
000228  4873              LDR      r0,|L2.1016|
00022a  4649              MOV      r1,r9                 ;1708
00022c  3044              ADDS     r0,r0,#0x44           ;1708
00022e  f7fffffe          BL       strcat
000232  4971              LDR      r1,|L2.1016|
000234  4640              MOV      r0,r8                 ;1709
000236  3144              ADDS     r1,r1,#0x44           ;1709
000238  f7fffffe          BL       TEXT_SetText
00023c  f89b0001          LDRB     r0,[r11,#1]           ;1710  ; set_limit
000240  282e              CMP      r0,#0x2e              ;1710
000242  f43faf45          BEQ      |L2.208|
000246  4648              MOV      r0,r9                 ;1714
000248  f7fffffe          BL       atoi
00024c  f44f717a          MOV      r1,#0x3e8             ;1714
000250  4348              MULS     r0,r1,r0              ;1714
000252  6de1              LDR      r1,[r4,#0x5c]         ;1714  ; Run_Control
000254  eb010181          ADD      r1,r1,r1,LSL #2       ;1714
000258  eb000041          ADD      r0,r0,r1,LSL #1       ;1714
00025c  65e0              STR      r0,[r4,#0x5c]         ;1714  ; Run_Control
00025e  e0af              B        |L2.960|
000260  4865              LDR      r0,|L2.1016|
000262  4649              MOV      r1,r9                 ;1721
000264  3044              ADDS     r0,r0,#0x44           ;1721
000266  f7fffffe          BL       strcat
00026a  4963              LDR      r1,|L2.1016|
00026c  4640              MOV      r0,r8                 ;1722
00026e  3144              ADDS     r1,r1,#0x44           ;1722
000270  f7fffffe          BL       TEXT_SetText
000274  7868              LDRB     r0,[r5,#1]            ;1723  ; dot_flag
000276  b158              CBZ      r0,|L2.656|
000278  4648              MOV      r0,r9                 ;1732
00027a  f7fffffe          BL       atoi
00027e  eb0001c0          ADD      r1,r0,r0,LSL #3       ;1732
000282  eb011000          ADD      r0,r1,r0,LSL #4       ;1732
000286  6de1              LDR      r1,[r4,#0x5c]         ;1732  ; Run_Control
000288  eb010080          ADD      r0,r1,r0,LSL #2       ;1732
00028c  65e0              STR      r0,[r4,#0x5c]         ;1732  ; Run_Control
00028e  e0b0              B        |L2.1010|
                  |L2.656|
000290  f89b0002          LDRB     r0,[r11,#2]           ;1725  ; set_limit
000294  282e              CMP      r0,#0x2e              ;1725
000296  f43faf40          BEQ      |L2.282|
00029a  65e7              STR      r7,[r4,#0x5c]         ;1729  ; Run_Control
00029c  e0a9              B        |L2.1010|
00029e  4856              LDR      r0,|L2.1016|
0002a0  4649              MOV      r1,r9                 ;1739
0002a2  3044              ADDS     r0,r0,#0x44           ;1739
0002a4  f7fffffe          BL       strcat
0002a8  4953              LDR      r1,|L2.1016|
0002aa  4640              MOV      r0,r8                 ;1740
0002ac  3144              ADDS     r1,r1,#0x44           ;1740
0002ae  f7fffffe          BL       TEXT_SetText
0002b2  7868              LDRB     r0,[r5,#1]            ;1741  ; dot_flag
0002b4  b160              CBZ      r0,|L2.720|
0002b6  7868              LDRB     r0,[r5,#1]            ;1744  ; dot_flag
0002b8  2802              CMP      r0,#2                 ;1744
0002ba  4648              MOV      r0,r9                 ;1747
0002bc  d00a              BEQ      |L2.724|
0002be  f7fffffe          BL       atoi
0002c2  6de1              LDR      r1,[r4,#0x5c]         ;1747  ; Run_Control
0002c4  eb000080          ADD      r0,r0,r0,LSL #2       ;1747
0002c8  eb010040          ADD      r0,r1,r0,LSL #1       ;1747
                  |L2.716|
0002cc  65e0              STR      r0,[r4,#0x5c]         ;1745  ; Run_Control
0002ce  e0b4              B        |L2.1082|
                  |L2.720|
0002d0  65e7              STR      r7,[r4,#0x5c]         ;1743  ; Run_Control
0002d2  e0b2              B        |L2.1082|
                  |L2.724|
0002d4  f7fffffe          BL       atoi
0002d8  eb0001c0          ADD      r1,r0,r0,LSL #3       ;1745
0002dc  eb011000          ADD      r0,r1,r0,LSL #4       ;1745
0002e0  6de1              LDR      r1,[r4,#0x5c]         ;1745  ; Run_Control
0002e2  eb010080          ADD      r0,r1,r0,LSL #2       ;1745
0002e6  e7f1              B        |L2.716|
0002e8  4843              LDR      r0,|L2.1016|
0002ea  4649              MOV      r1,r9                 ;1754
0002ec  3044              ADDS     r0,r0,#0x44           ;1754
0002ee  f7fffffe          BL       strcat
0002f2  4941              LDR      r1,|L2.1016|
0002f4  4640              MOV      r0,r8                 ;1755
0002f6  3144              ADDS     r1,r1,#0x44           ;1755
0002f8  f7fffffe          BL       TEXT_SetText
0002fc  7868              LDRB     r0,[r5,#1]            ;1756  ; dot_flag
0002fe  b160              CBZ      r0,|L2.794|
000300  7868              LDRB     r0,[r5,#1]            ;1759  ; dot_flag
000302  2801              CMP      r0,#1                 ;1759
000304  4648              MOV      r0,r9                 ;1762
000306  d00a              BEQ      |L2.798|
000308  f7fffffe          BL       atoi
00030c  6de1              LDR      r1,[r4,#0x5c]         ;1762  ; Run_Control
00030e  eb000080          ADD      r0,r0,r0,LSL #2       ;1762
000312  eb010040          ADD      r0,r1,r0,LSL #1       ;1762
                  |L2.790|
000316  65e0              STR      r0,[r4,#0x5c]         ;1760  ; Run_Control
000318  e0b3              B        |L2.1154|
                  |L2.794|
00031a  65e7              STR      r7,[r4,#0x5c]         ;1758  ; Run_Control
00031c  e0b1              B        |L2.1154|
                  |L2.798|
00031e  f7fffffe          BL       atoi
000322  6de1              LDR      r1,[r4,#0x5c]         ;1760  ; Run_Control
000324  4408              ADD      r0,r0,r1              ;1760
000326  e7f6              B        |L2.790|
000328  4833              LDR      r0,|L2.1016|
00032a  4649              MOV      r1,r9                 ;1769
00032c  3044              ADDS     r0,r0,#0x44           ;1769
00032e  f7fffffe          BL       strcat
000332  4931              LDR      r1,|L2.1016|
000334  4640              MOV      r0,r8                 ;1770
000336  3144              ADDS     r1,r1,#0x44           ;1770
000338  f7fffffe          BL       TEXT_SetText
00033c  7868              LDRB     r0,[r5,#1]            ;1771  ; dot_flag
00033e  b118              CBZ      r0,|L2.840|
000340  7868              LDRB     r0,[r5,#1]            ;1774  ; dot_flag
000342  2802              CMP      r0,#2                 ;1774
000344  d002              BEQ      |L2.844|
000346  e0bb              B        |L2.1216|
                  |L2.840|
000348  65e7              STR      r7,[r4,#0x5c]         ;1773  ; Run_Control
00034a  e0b9              B        |L2.1216|
                  |L2.844|
00034c  4648              MOV      r0,r9                 ;1775
00034e  f7fffffe          BL       atoi
000352  6de1              LDR      r1,[r4,#0x5c]         ;1775  ; Run_Control
000354  4408              ADD      r0,r0,r1              ;1775
000356  65e0              STR      r0,[r4,#0x5c]         ;1775  ; Run_Control
000358  e0b2              B        |L2.1216|
                  |L2.858|
00035a  f6401105          MOV      r1,#0x905             ;1787
00035e  f7fffffe          BL       WM_GetDialogItem
000362  4604              MOV      r4,r0                 ;1787
000364  7828              LDRB     r0,[r5,#0]            ;1788  ; bit
000366  2807              CMP      r0,#7                 ;1788
000368  f4bfaf5d          BCS      |L2.550|
00036c  e8dff000          TBB      [pc,r0]               ;1788
000370  04050d2a          DCB      0x04,0x05,0x0d,0x2a
000374  4f739200          DCB      0x4f,0x73,0x92,0x00
000378  e732              B        |L2.480|
00037a  4648              MOV      r0,r9                 ;1791
00037c  f7fffffe          BL       atoi
000380  f44f717a          MOV      r1,#0x3e8             ;1791
000384  4348              MULS     r0,r1,r0              ;1791
000386  62a8              STR      r0,[r5,#0x28]         ;1791  ; dis_gate_v
000388  e0a0              B        |L2.1228|
00038a  481b              LDR      r0,|L2.1016|
00038c  4649              MOV      r1,r9                 ;1800
00038e  3044              ADDS     r0,r0,#0x44           ;1800
000390  f7fffffe          BL       strcat
000394  4918              LDR      r1,|L2.1016|
000396  4620              MOV      r0,r4                 ;1801
000398  3144              ADDS     r1,r1,#0x44           ;1801
00039a  f7fffffe          BL       TEXT_SetText
00039e  f89b0001          LDRB     r0,[r11,#1]           ;1802  ; set_limit
0003a2  282e              CMP      r0,#0x2e              ;1802
0003a4  f43fae94          BEQ      |L2.208|
0003a8  4648              MOV      r0,r9                 ;1806
0003aa  f7fffffe          BL       atoi
0003ae  f44f717a          MOV      r1,#0x3e8             ;1806
0003b2  4348              MULS     r0,r1,r0              ;1806
0003b4  6aa9              LDR      r1,[r5,#0x28]         ;1806  ; dis_gate_v
0003b6  eb010181          ADD      r1,r1,r1,LSL #2       ;1806
0003ba  eb000041          ADD      r0,r0,r1,LSL #1       ;1806
0003be  62a8              STR      r0,[r5,#0x28]         ;1806  ; dis_gate_v
                  |L2.960|
0003c0  2003              MOVS     r0,#3                 ;1808
0003c2  e70c              B        |L2.478|
0003c4  480c              LDR      r0,|L2.1016|
0003c6  4649              MOV      r1,r9                 ;1813
0003c8  3044              ADDS     r0,r0,#0x44           ;1813
0003ca  f7fffffe          BL       strcat
0003ce  490a              LDR      r1,|L2.1016|
0003d0  4620              MOV      r0,r4                 ;1814
0003d2  3144              ADDS     r1,r1,#0x44           ;1814
0003d4  f7fffffe          BL       TEXT_SetText
0003d8  7868              LDRB     r0,[r5,#1]            ;1815  ; dot_flag
0003da  b188              CBZ      r0,|L2.1024|
0003dc  4648              MOV      r0,r9                 ;1824
0003de  f7fffffe          BL       atoi
0003e2  eb0001c0          ADD      r1,r0,r0,LSL #3       ;1824
0003e6  eb011000          ADD      r0,r1,r0,LSL #4       ;1824
0003ea  6aa9              LDR      r1,[r5,#0x28]         ;1824  ; dis_gate_v
0003ec  eb010080          ADD      r0,r1,r0,LSL #2       ;1824
0003f0  62a8              STR      r0,[r5,#0x28]         ;1824  ; dis_gate_v
                  |L2.1010|
0003f2  2004              MOVS     r0,#4                 ;1826
0003f4  e6f3              B        |L2.478|
0003f6  0000              DCW      0x0000
                  |L2.1016|
                          DCD      ||.data||
                  |L2.1020|
                          DCD      Run_Control
                  |L2.1024|
000400  f89b0002          LDRB     r0,[r11,#2]           ;1817  ; set_limit
000404  282e              CMP      r0,#0x2e              ;1817
000406  f43fae88          BEQ      |L2.282|
00040a  62af              STR      r7,[r5,#0x28]         ;1821  ; dis_gate_v
00040c  e7f1              B        |L2.1010|
00040e  4649              MOV      r1,r9                 ;1831
000410  4845              LDR      r0,|L2.1320|
000412  f7fffffe          BL       strcat
000416  4944              LDR      r1,|L2.1320|
000418  4620              MOV      r0,r4                 ;1832
00041a  f7fffffe          BL       TEXT_SetText
00041e  7868              LDRB     r0,[r5,#1]            ;1833  ; dot_flag
000420  b168              CBZ      r0,|L2.1086|
000422  7868              LDRB     r0,[r5,#1]            ;1836  ; dot_flag
000424  2802              CMP      r0,#2                 ;1836
000426  4648              MOV      r0,r9                 ;1839
000428  d00b              BEQ      |L2.1090|
00042a  f7fffffe          BL       atoi
00042e  6aa9              LDR      r1,[r5,#0x28]         ;1839  ; dis_gate_v
000430  eb000080          ADD      r0,r0,r0,LSL #2       ;1839
000434  eb010040          ADD      r0,r1,r0,LSL #1       ;1839
                  |L2.1080|
000438  62a8              STR      r0,[r5,#0x28]         ;1837  ; dis_gate_v
                  |L2.1082|
00043a  2005              MOVS     r0,#5                 ;1841
00043c  e6cf              B        |L2.478|
                  |L2.1086|
00043e  62af              STR      r7,[r5,#0x28]         ;1835  ; dis_gate_v
000440  e7fb              B        |L2.1082|
                  |L2.1090|
000442  f7fffffe          BL       atoi
000446  eb0001c0          ADD      r1,r0,r0,LSL #3       ;1837
00044a  eb011000          ADD      r0,r1,r0,LSL #4       ;1837
00044e  6aa9              LDR      r1,[r5,#0x28]         ;1837  ; dis_gate_v
000450  eb010080          ADD      r0,r1,r0,LSL #2       ;1837
000454  e7f0              B        |L2.1080|
000456  4649              MOV      r1,r9                 ;1846
000458  4833              LDR      r0,|L2.1320|
00045a  f7fffffe          BL       strcat
00045e  4932              LDR      r1,|L2.1320|
000460  4620              MOV      r0,r4                 ;1847
000462  f7fffffe          BL       TEXT_SetText
000466  7868              LDRB     r0,[r5,#1]            ;1848  ; dot_flag
000468  b168              CBZ      r0,|L2.1158|
00046a  7868              LDRB     r0,[r5,#1]            ;1851  ; dot_flag
00046c  2801              CMP      r0,#1                 ;1851
00046e  4648              MOV      r0,r9                 ;1854
000470  d00b              BEQ      |L2.1162|
000472  f7fffffe          BL       atoi
000476  6aa9              LDR      r1,[r5,#0x28]         ;1854  ; dis_gate_v
000478  eb000080          ADD      r0,r0,r0,LSL #2       ;1854
00047c  eb010040          ADD      r0,r1,r0,LSL #1       ;1854
                  |L2.1152|
000480  62a8              STR      r0,[r5,#0x28]         ;1852  ; dis_gate_v
                  |L2.1154|
000482  2006              MOVS     r0,#6                 ;1856
000484  e6ab              B        |L2.478|
                  |L2.1158|
000486  62af              STR      r7,[r5,#0x28]         ;1850  ; dis_gate_v
000488  e7fb              B        |L2.1154|
                  |L2.1162|
00048a  f7fffffe          BL       atoi
00048e  6aa9              LDR      r1,[r5,#0x28]         ;1852  ; dis_gate_v
000490  4408              ADD      r0,r0,r1              ;1852
000492  e7f5              B        |L2.1152|
000494  4649              MOV      r1,r9                 ;1861
000496  4824              LDR      r0,|L2.1320|
000498  f7fffffe          BL       strcat
00049c  4922              LDR      r1,|L2.1320|
00049e  4620              MOV      r0,r4                 ;1862
0004a0  f7fffffe          BL       TEXT_SetText
0004a4  7868              LDRB     r0,[r5,#1]            ;1863  ; dot_flag
0004a6  b118              CBZ      r0,|L2.1200|
0004a8  7868              LDRB     r0,[r5,#1]            ;1866  ; dot_flag
0004aa  2802              CMP      r0,#2                 ;1866
0004ac  d002              BEQ      |L2.1204|
0004ae  e007              B        |L2.1216|
                  |L2.1200|
0004b0  62af              STR      r7,[r5,#0x28]         ;1865  ; dis_gate_v
0004b2  e005              B        |L2.1216|
                  |L2.1204|
0004b4  4648              MOV      r0,r9                 ;1867
0004b6  f7fffffe          BL       atoi
0004ba  6aa9              LDR      r1,[r5,#0x28]         ;1867  ; dis_gate_v
0004bc  4408              ADD      r0,r0,r1              ;1867
0004be  62a8              STR      r0,[r5,#0x28]         ;1867  ; dis_gate_v
                  |L2.1216|
0004c0  4650              MOV      r0,r10                ;1869
0004c2  e68c              B        |L2.478|
                  |L2.1220|
0004c4  4648              MOV      r0,r9                 ;1883
0004c6  f7fffffe          BL       atoi
0004ca  82a8              STRH     r0,[r5,#0x14]         ;1883
                  |L2.1228|
0004cc  4649              MOV      r1,r9                 ;1884
0004ce  4816              LDR      r0,|L2.1320|
0004d0  f7fffffe          BL       strcat
0004d4  4914              LDR      r1,|L2.1320|
0004d6  4620              MOV      r0,r4                 ;1885
0004d8  e6a2              B        |L2.544|
                  |L2.1242|
0004da  4648              MOV      r0,r9                 ;1891
0004dc  f7fffffe          BL       atoi
0004e0  4601              MOV      r1,r0                 ;1891
0004e2  8aa8              LDRH     r0,[r5,#0x14]         ;1891  ; steptime
0004e4  eb000080          ADD      r0,r0,r0,LSL #2       ;1891
0004e8  eb010040          ADD      r0,r1,r0,LSL #1       ;1891
0004ec  82a8              STRH     r0,[r5,#0x14]         ;1891
0004ee  4649              MOV      r1,r9                 ;1892
0004f0  480d              LDR      r0,|L2.1320|
0004f2  f7fffffe          BL       strcat
0004f6  490c              LDR      r1,|L2.1320|
0004f8  4620              MOV      r0,r4                 ;1893
0004fa  f7fffffe          BL       TEXT_SetText
0004fe  e75f              B        |L2.960|
                  |L2.1280|
000500  4648              MOV      r0,r9                 ;1899
000502  f7fffffe          BL       atoi
000506  4601              MOV      r1,r0                 ;1899
000508  8aa8              LDRH     r0,[r5,#0x14]         ;1899  ; steptime
00050a  eb000080          ADD      r0,r0,r0,LSL #2       ;1899
00050e  eb010040          ADD      r0,r1,r0,LSL #1       ;1899
000512  82a8              STRH     r0,[r5,#0x14]         ;1899
000514  4649              MOV      r1,r9                 ;1900
000516  4804              LDR      r0,|L2.1320|
000518  f7fffffe          BL       strcat
00051c  4902              LDR      r1,|L2.1320|
00051e  4620              MOV      r0,r4                 ;1901
000520  f7fffffe          BL       TEXT_SetText
000524  e765              B        |L2.1010|
;;;1919   
                          ENDP

000526  0000              DCW      0x0000
                  |L2.1320|
                          DCD      ||.data||+0x44

                          AREA ||i.OC_ADD||, CODE, READONLY, ALIGN=2

                          REQUIRE _printf_percent
                          REQUIRE _printf_widthprec
                          REQUIRE _printf_f
                          REQUIRE _printf_fp_dec
                  OC_ADD PROC
;;;1958              
;;;1959   void OC_ADD(void){
000000  e92d4ff0          PUSH     {r4-r11,lr}
000004  ed2d8b06          VPUSH    {d8-d10}
000008  b083              SUB      sp,sp,#0xc
;;;1960       WM_HWIN hItem;
;;;1961       char sbs_c[6];
;;;1962       float change_sbs_c;
;;;1963       static vu16 csum;
;;;1964                
;;;1965       if(v - /*DISS_Voltage*/DISS_Voltage > v*0.9 && para_set2 == set_2_on)
;;;1966       {
;;;1967           if(oc_mode == 0)
;;;1968           {
;;;1969               //        oc_data = (float)(SET_Current_Laod+csum)/1000;       
;;;1970               oc_data = crec2;
;;;1971               SET_Current_Laod = set_init_c;
;;;1972               hItem = WM_GetDialogItem(hWinR, ID_TEXT_47);
00000a  f640086c          MOV      r8,#0x86c
;;;1973               change_sbs_c = (float)set_sbs_c/1000;
00000e  ed9faa47          VLDR     s20,|L3.300|
;;;1974               sprintf(sbs_c,"%.3f",change_sbs_c);
;;;1975               TEXT_SetText(hItem,sbs_c);
;;;1976               GPIO_ResetBits(GPIOA,GPIO_Pin_15);//关闭负载   
000012  f8dfb11c          LDR      r11,|L3.304|
;;;1977               t_onoff = 0;
000016  4e47              LDR      r6,|L3.308|
000018  f44f4a00          MOV      r10,#0x8000           ;1976
;;;1978               stepcount = 0;
;;;1979               oct_sw = oct_off;
;;;1980               finish = 1;
00001c  f04f0901          MOV      r9,#1
;;;1981               crec1 = 0;
000020  eddf9a45          VLDR     s19,|L3.312|
000024  4c46              LDR      r4,|L3.320|
000026  4f45              LDR      r7,|L3.316|
000028  2500              MOVS     r5,#0                 ;1977
00002a  6b20              LDR      r0,[r4,#0x30]         ;1965  ; v
00002c  ee090a10          VMOV     s18,r0                ;1965
000030  f7fffffe          BL       __aeabi_f2d
000034  ed9f1b43          VLDR     d1,|L3.324|
000038  ec532b11          VMOV     r2,r3,d1              ;1965
00003c  f7fffffe          BL       __aeabi_dmul
000040  ec410b18          VMOV     d8,r0,r1              ;1965
000044  4841              LDR      r0,|L3.332|
000046  ed900a00          VLDR     s0,[r0,#0]            ;1965
00004a  ee390a40          VSUB.F32 s0,s18,s0             ;1965
00004e  ee100a10          VMOV     r0,s0                 ;1965
000052  f7fffffe          BL       __aeabi_f2d
000056  ec532b18          VMOV     r2,r3,d8              ;1965
00005a  f7fffffe          BL       __aeabi_cdrcmple
00005e  d202              BCS      |L3.102|
000060  78e0              LDRB     r0,[r4,#3]            ;1965  ; para_set2
000062  28ff              CMP      r0,#0xff              ;1965
000064  d016              BEQ      |L3.148|
                  |L3.102|
;;;1982               crec2 = 0;
;;;1983           }else if(oc_mode == 1){
;;;1984               oc_data = crec2;
;;;1985               GPIO_ResetBits(GPIOA,GPIO_Pin_15);//关闭负载   
;;;1986               t_onoff = 0;
;;;1987               stepcount = 0;
;;;1988               oct_sw = oct_off;
;;;1989               finish = 1;
;;;1990               crec1 = 0;
;;;1991               crec2 = 0;
;;;1992           }
;;;1993   
;;;1994       }else{
;;;1995           if(oc_mode == 0)
000066  7ca0              LDRB     r0,[r4,#0x12]  ; oc_mode
000068  b380              CBZ      r0,|L3.204|
;;;1996           {
;;;1997               SET_Current_Laod = SET_Current_Laod + set_sbs_c;
;;;1998               
;;;1999               if(crec1 < crec2)
;;;2000               {
;;;2001                   oc_data = crec2;
;;;2002                   SET_Current_Laod = set_init_c;
;;;2003                   hItem = WM_GetDialogItem(hWinR, ID_TEXT_47);
;;;2004                   change_sbs_c = (float)set_sbs_c/1000;
;;;2005                   sprintf(sbs_c,"%.3f",change_sbs_c);
;;;2006                   TEXT_SetText(hItem,sbs_c);
;;;2007                   GPIO_ResetBits(GPIOA,GPIO_Pin_15);//关闭负载   
;;;2008                   t_onoff = 0;
;;;2009                   stepcount = 0;
;;;2010                   oct_sw = oct_off;
;;;2011                   finish = 1;
;;;2012                   crec1 = 0;
;;;2013                   crec2 = 0;
;;;2014               }
;;;2015           }else if(oc_mode == 1){
00006a  7ca0              LDRB     r0,[r4,#0x12]  ; oc_mode
00006c  2801              CMP      r0,#1
00006e  d125              BNE      |L3.188|
;;;2016               SET_Voltage_Laod = 0;
000070  60fd              STR      r5,[r7,#0xc]  ; Run_Control
;;;2017               crec2 = crec1;
000072  ed940a0f          VLDR     s0,[r4,#0x3c]
;;;2018               crec1 = DISS_Current;
000076  4836              LDR      r0,|L3.336|
000078  ed840a10          VSTR     s0,[r4,#0x40]         ;2017
00007c  edd00a00          VLDR     s1,[r0,#0]
000080  edc40a0f          VSTR     s1,[r4,#0x3c]
;;;2019               if(crec1 < crec2)
000084  eef40ac0          VCMPE.F32 s1,s0
000088  eef1fa10          VMRS     APSR_nzcv,FPSCR
00008c  d216              BCS      |L3.188|
;;;2020               {
;;;2021                   oc_data = crec2;
00008e  ed840a0b          VSTR     s0,[r4,#0x2c]
;;;2022                   GPIO_ResetBits(GPIOA,GPIO_Pin_15);//关闭负载   
;;;2023                   t_onoff = 0;
;;;2024                   stepcount = 0;
;;;2025                   oct_sw = oct_off;
;;;2026                   finish = 1;
;;;2027                   crec1 = 0;
;;;2028                   crec2 = 0;
000092  e006              B        |L3.162|
                  |L3.148|
000094  7ca0              LDRB     r0,[r4,#0x12]         ;1967  ; oc_mode
000096  b1b0              CBZ      r0,|L3.198|
000098  7ca0              LDRB     r0,[r4,#0x12]         ;1983  ; oc_mode
00009a  2801              CMP      r0,#1                 ;1983
00009c  d10e              BNE      |L3.188|
00009e  6c20              LDR      r0,[r4,#0x40]         ;1984  ; crec2
0000a0  62e0              STR      r0,[r4,#0x2c]         ;1984  ; oc_data
                  |L3.162|
0000a2  4651              MOV      r1,r10                ;1976
0000a4  4658              MOV      r0,r11                ;1976
0000a6  f7fffffe          BL       GPIO_ResetBits
0000aa  7035              STRB     r5,[r6,#0]            ;1977
0000ac  8325              STRH     r5,[r4,#0x18]         ;1978
0000ae  7325              STRB     r5,[r4,#0xc]          ;1979
0000b0  f884900a          STRB     r9,[r4,#0xa]          ;1980
0000b4  edc49a0f          VSTR     s19,[r4,#0x3c]        ;1981
0000b8  edc49a10          VSTR     s19,[r4,#0x40]        ;1982
                  |L3.188|
;;;2029               }
;;;2030           }       
;;;2031       }        
;;;2032   }
0000bc  b003              ADD      sp,sp,#0xc
0000be  ecbd8b06          VPOP     {d8-d10}
0000c2  e8bd8ff0          POP      {r4-r11,pc}
                  |L3.198|
0000c6  6c20              LDR      r0,[r4,#0x40]         ;1970  ; crec2
0000c8  62e0              STR      r0,[r4,#0x2c]         ;1982  ; oc_data
0000ca  e00f              B        |L3.236|
                  |L3.204|
0000cc  e7ff              B        |L3.206|
                  |L3.206|
0000ce  6938              LDR      r0,[r7,#0x10]         ;1997  ; Run_Control
0000d0  6df9              LDR      r1,[r7,#0x5c]         ;1997  ; Run_Control
0000d2  4408              ADD      r0,r0,r1              ;1997
0000d4  6138              STR      r0,[r7,#0x10]         ;1997  ; Run_Control
0000d6  edd40a0f          VLDR     s1,[r4,#0x3c]         ;1999
0000da  ed940a10          VLDR     s0,[r4,#0x40]         ;1999
0000de  eef40ac0          VCMPE.F32 s1,s0                 ;1999
0000e2  eef1fa10          VMRS     APSR_nzcv,FPSCR       ;1999
0000e6  d2e9              BCS      |L3.188|
0000e8  ed840a0b          VSTR     s0,[r4,#0x2c]         ;2001
                  |L3.236|
0000ec  6db8              LDR      r0,[r7,#0x58]         ;2002  ; Run_Control
0000ee  6138              STR      r0,[r7,#0x10]         ;2002  ; Run_Control
0000f0  4641              MOV      r1,r8                 ;2003
0000f2  6a60              LDR      r0,[r4,#0x24]         ;2003  ; hWinR
0000f4  f7fffffe          BL       WM_GetDialogItem
0000f8  4680              MOV      r8,r0                 ;2003
0000fa  6df8              LDR      r0,[r7,#0x5c]         ;2004  ; Run_Control
0000fc  ee000a10          VMOV     s0,r0                 ;2004
000100  eef80a40          VCVT.F32.U32 s1,s0                 ;2004
000104  ee800a8a          VDIV.F32 s0,s1,s20             ;2004
000108  ee100a10          VMOV     r0,s0                 ;2005
00010c  f7fffffe          BL       __aeabi_f2d
000110  ec410b10          VMOV     d0,r0,r1              ;2005
000114  a10f              ADR      r1,|L3.340|
000116  ec532b10          VMOV     r2,r3,d0              ;2005
00011a  4668              MOV      r0,sp                 ;2005
00011c  f7fffffe          BL       __2sprintf
000120  4669              MOV      r1,sp                 ;2006
000122  4640              MOV      r0,r8                 ;2006
000124  f7fffffe          BL       TEXT_SetText
000128  e7bb              B        |L3.162|
;;;2033   
                          ENDP

00012a  0000              DCW      0x0000
                  |L3.300|
00012c  447a0000          DCFS     0x447a0000 ; 1000
                  |L3.304|
                          DCD      0x40020000
                  |L3.308|
                          DCD      t_onoff
                  |L3.312|
000138  00000000          DCFS     0x00000000 ; 0
                  |L3.316|
                          DCD      Run_Control
                  |L3.320|
                          DCD      ||.data||
                  |L3.324|
000144  cccccccd          DCFD     0x3feccccccccccccd ; 0.90000000000000002
000148  3feccccc
                  |L3.332|
                          DCD      DISS_Voltage
                  |L3.336|
                          DCD      DISS_Current
                  |L3.340|
000154  252e3366          DCB      "%.3f",0
000158  00      
000159  00                DCB      0
00015a  00                DCB      0
00015b  00                DCB      0

                          AREA ||i.OC_CHECK||, CODE, READONLY, ALIGN=2

                          REQUIRE _printf_percent
                          REQUIRE _printf_widthprec
                          REQUIRE _printf_f
                          REQUIRE _printf_fp_dec
                  OC_CHECK PROC
;;;1919   
;;;1920   void OC_CHECK(void){
000000  e92d4ff0          PUSH     {r4-r11,lr}
;;;1921       WM_HWIN hItem;
;;;1922       char sbs_c[6];
;;;1923       float change_sbs_c;   
;;;1924       crec2 = crec1;
000004  4c3b              LDR      r4,|L4.244|
;;;1925       crec1 = DISS_Current;         
000006  483c              LDR      r0,|L4.248|
000008  ed2d8b04          VPUSH    {d8-d9}               ;1920
00000c  b083              SUB      sp,sp,#0xc            ;1920
00000e  edd40a0f          VLDR     s1,[r4,#0x3c]         ;1924
000012  edc40a10          VSTR     s1,[r4,#0x40]         ;1924
000016  ed900a00          VLDR     s0,[r0,#0]
00001a  ed840a0f          VSTR     s0,[r4,#0x3c]
;;;1926       if((crec1 < crec2 || v - /*DISS_Voltage*/DISS_Voltage > v*0.9) && para_set2 == set_2_on)
00001e  eeb40ae0          VCMPE.F32 s0,s1
000022  eef1fa10          VMRS     APSR_nzcv,FPSCR
000026  d31a              BCC      |L4.94|
000028  6b20              LDR      r0,[r4,#0x30]  ; v
00002a  ee090a10          VMOV     s18,r0
00002e  f7fffffe          BL       __aeabi_f2d
000032  ed9f1b32          VLDR     d1,|L4.252|
000036  ec532b11          VMOV     r2,r3,d1
00003a  f7fffffe          BL       __aeabi_dmul
00003e  ec410b18          VMOV     d8,r0,r1
000042  4830              LDR      r0,|L4.260|
000044  ed900a00          VLDR     s0,[r0,#0]
000048  ee390a40          VSUB.F32 s0,s18,s0
00004c  ee100a10          VMOV     r0,s0
000050  f7fffffe          BL       __aeabi_f2d
000054  ec532b18          VMOV     r2,r3,d8
000058  f7fffffe          BL       __aeabi_cdrcmple
00005c  d220              BCS      |L4.160|
                  |L4.94|
00005e  78e0              LDRB     r0,[r4,#3]  ; para_set2
000060  28ff              CMP      r0,#0xff
000062  d11d              BNE      |L4.160|
;;;1927       {
;;;1928           if(oc_mode == 0)
000064  7ca0              LDRB     r0,[r4,#0x12]  ; oc_mode
;;;1929           {
;;;1930               //        oc_data = (float)(SET_Current_Laod+csum)/1000;       
;;;1931               oc_data = crec2;
;;;1932               SET_Current_Laod = set_init_c;
;;;1933               hItem = WM_GetDialogItem(hWinR, ID_TEXT_47);
;;;1934               change_sbs_c = (float)set_sbs_c/1000;
;;;1935               sprintf(sbs_c,"%.3f",change_sbs_c);
;;;1936               TEXT_SetText(hItem,sbs_c);
;;;1937               GPIO_ResetBits(GPIOA,GPIO_Pin_15);//关闭负载   
000066  f8dfb0a0          LDR      r11,|L4.264|
;;;1938               t_onoff = 0;
00006a  4f28              LDR      r7,|L4.268|
;;;1939               stepcount = 0;
;;;1940               oct_sw = oct_off;
;;;1941               finish = 1;
;;;1942               crec1 = 0;
00006c  ed9f8a28          VLDR     s16,|L4.272|
000070  f44f4a00          MOV      r10,#0x8000           ;1937
000074  2600              MOVS     r6,#0                 ;1938
000076  f04f0901          MOV      r9,#1                 ;1941
00007a  b1b0              CBZ      r0,|L4.170|
;;;1943               crec2 = 0;
;;;1944           }else if(oc_mode == 1){
00007c  7ca0              LDRB     r0,[r4,#0x12]  ; oc_mode
00007e  2801              CMP      r0,#1
000080  d10e              BNE      |L4.160|
;;;1945               oc_data = crec2;
000082  6c20              LDR      r0,[r4,#0x40]  ; crec2
000084  62e0              STR      r0,[r4,#0x2c]  ; oc_data
                  |L4.134|
000086  4651              MOV      r1,r10                ;1937
000088  4658              MOV      r0,r11                ;1937
00008a  f7fffffe          BL       GPIO_ResetBits
00008e  703e              STRB     r6,[r7,#0]            ;1938
000090  8326              STRH     r6,[r4,#0x18]         ;1939
000092  7326              STRB     r6,[r4,#0xc]          ;1940
000094  f884900a          STRB     r9,[r4,#0xa]          ;1941
000098  ed848a0f          VSTR     s16,[r4,#0x3c]        ;1942
00009c  ed848a10          VSTR     s16,[r4,#0x40]        ;1943
                  |L4.160|
;;;1946               GPIO_ResetBits(GPIOA,GPIO_Pin_15);//关闭负载   
;;;1947               t_onoff = 0;
;;;1948               stepcount = 0;
;;;1949               oct_sw = oct_off;
;;;1950               finish = 1;
;;;1951               crec1 = 0;
;;;1952               crec2 = 0;
;;;1953           }
;;;1954   
;;;1955       }
;;;1956   }
0000a0  b003              ADD      sp,sp,#0xc
0000a2  ecbd8b04          VPOP     {d8-d9}
0000a6  e8bd8ff0          POP      {r4-r11,pc}
                  |L4.170|
0000aa  4d1a              LDR      r5,|L4.276|
0000ac  6c20              LDR      r0,[r4,#0x40]         ;1931  ; crec2
0000ae  62e0              STR      r0,[r4,#0x2c]         ;1932  ; oc_data
0000b0  6da8              LDR      r0,[r5,#0x58]         ;1932  ; Run_Control
0000b2  6128              STR      r0,[r5,#0x10]         ;1932  ; Run_Control
0000b4  f640016c          MOV      r1,#0x86c             ;1933
0000b8  6a60              LDR      r0,[r4,#0x24]         ;1933  ; hWinR
0000ba  f7fffffe          BL       WM_GetDialogItem
0000be  4680              MOV      r8,r0                 ;1933
0000c0  6de8              LDR      r0,[r5,#0x5c]         ;1934  ; Run_Control
0000c2  ed9f1a15          VLDR     s2,|L4.280|
0000c6  ee000a10          VMOV     s0,r0                 ;1934
0000ca  eef80a40          VCVT.F32.U32 s1,s0                 ;1934
0000ce  ee800a81          VDIV.F32 s0,s1,s2              ;1934
0000d2  ee100a10          VMOV     r0,s0                 ;1935
0000d6  f7fffffe          BL       __aeabi_f2d
0000da  ec410b10          VMOV     d0,r0,r1              ;1935
0000de  a10f              ADR      r1,|L4.284|
0000e0  ec532b10          VMOV     r2,r3,d0              ;1935
0000e4  4668              MOV      r0,sp                 ;1935
0000e6  f7fffffe          BL       __2sprintf
0000ea  4669              MOV      r1,sp                 ;1936
0000ec  4640              MOV      r0,r8                 ;1936
0000ee  f7fffffe          BL       TEXT_SetText
0000f2  e7c8              B        |L4.134|
;;;1957   
                          ENDP

                  |L4.244|
                          DCD      ||.data||
                  |L4.248|
                          DCD      DISS_Current
                  |L4.252|
0000fc  cccccccd          DCFD     0x3feccccccccccccd ; 0.90000000000000002
000100  3feccccc
                  |L4.260|
                          DCD      DISS_Voltage
                  |L4.264|
                          DCD      0x40020000
                  |L4.268|
                          DCD      t_onoff
                  |L4.272|
000110  00000000          DCFS     0x00000000 ; 0
                  |L4.276|
                          DCD      Run_Control
                  |L4.280|
000118  447a0000          DCFS     0x447a0000 ; 1000
                  |L4.284|
00011c  252e3366          DCB      "%.3f",0
000120  00      
000121  00                DCB      0
000122  00                DCB      0
000123  00                DCB      0

                          AREA ||i.OC_OP_DOWN||, CODE, READONLY, ALIGN=2

                  OC_OP_DOWN PROC
;;;1226   void OC_OP_DOWN(void);
;;;1227   void OC_OP_DOWN(void)
000000  e92d5ff0          PUSH     {r4-r12,lr}
;;;1228   {
;;;1229       switch(oc_sw)
000004  4d4f              LDR      r5,|L5.324|
000006  79a9              LDRB     r1,[r5,#6]  ; oc_sw
000008  4628              MOV      r0,r5
;;;1230       {
;;;1231           case set_72:
;;;1232           {
;;;1233               WM_HWIN hItem;
;;;1234   //            WM_InvalidateWindow(hWinR);
;;;1235               hItem = WM_GetDialogItem(hWinR, ID_TEXT_1);
;;;1236               TEXT_SetBkColor(hItem,GUI_INVALID_COLOR);
;;;1237               TEXT_SetTextColor(hItem, GUI_WHITE);
;;;1238               
;;;1239               hItem = WM_GetDialogItem(hWinR, ID_TEXT_44);
00000a  f6400669          MOV      r6,#0x869
;;;1240               TEXT_SetBkColor(hItem,0x00BFFFFF);
00000e  f8dfb138          LDR      r11,|L5.328|
;;;1241               TEXT_SetTextColor(hItem, GUI_BLACK);
;;;1242               
;;;1243               oc_sw = set_20;
;;;1244               break;
;;;1245           }
;;;1246           
;;;1247           case set_20:
;;;1248           {
;;;1249               WM_HWIN hItem;
;;;1250   //            WM_InvalidateWindow(hWinR);
;;;1251               hItem = WM_GetDialogItem(hWinR, ID_TEXT_44);
;;;1252               TEXT_SetBkColor(hItem,GUI_INVALID_COLOR);
;;;1253               TEXT_SetTextColor(hItem, GUI_WHITE);
;;;1254               
;;;1255               hItem = WM_GetDialogItem(hWinR, ID_TEXT_45);
;;;1256               TEXT_SetBkColor(hItem,0x00BFFFFF);
;;;1257               TEXT_SetTextColor(hItem, GUI_BLACK);
;;;1258               
;;;1259               oc_sw = set_21;
;;;1260               break;
;;;1261           }
;;;1262           case set_21:
;;;1263           {
;;;1264               WM_HWIN hItem;
;;;1265   //            WM_InvalidateWindow(hWinR);
;;;1266               hItem = WM_GetDialogItem(hWinR, ID_TEXT_45);
;;;1267               TEXT_SetBkColor(hItem,GUI_INVALID_COLOR);
;;;1268               TEXT_SetTextColor(hItem, GUI_WHITE);
;;;1269               
;;;1270               hItem = WM_GetDialogItem(hWinR, ID_TEXT_118);
;;;1271               TEXT_SetBkColor(hItem,0x00BFFFFF);
;;;1272               TEXT_SetTextColor(hItem, GUI_BLACK);
;;;1273               
;;;1274               oc_sw = set_64;
;;;1275               break;
;;;1276           }
;;;1277           case set_64:
;;;1278           {
;;;1279               WM_HWIN hItem;
;;;1280   //            WM_InvalidateWindow(hWinR);
;;;1281               hItem = WM_GetDialogItem(hWinR, ID_TEXT_118);
;;;1282               TEXT_SetBkColor(hItem,GUI_INVALID_COLOR);
;;;1283               TEXT_SetTextColor(hItem, GUI_WHITE);
;;;1284               
;;;1285               hItem = WM_GetDialogItem(hWinR, ID_TEXT_43);
000012  1e74              SUBS     r4,r6,#1
000014  6a40              LDR      r0,[r0,#0x24]         ;1235
000016  f06f4970          MVN      r9,#0xf0000000        ;1236
00001a  f06f4a7f          MVN      r10,#0xff000000       ;1237
00001e  f6401808          MOV      r8,#0x908             ;1270
000022  293f              CMP      r1,#0x3f              ;1229
000024  d057              BEQ      |L5.214|
000026  dc1e              BGT      |L5.102|
000028  f640076a          MOV      r7,#0x86a             ;1255
00002c  2913              CMP      r1,#0x13              ;1229
00002e  d039              BEQ      |L5.164|
000030  2914              CMP      r1,#0x14              ;1229
000032  d17d              BNE      |L5.304|
000034  4639              MOV      r1,r7                 ;1266
000036  f7fffffe          BL       WM_GetDialogItem
00003a  4604              MOV      r4,r0                 ;1266
00003c  4649              MOV      r1,r9                 ;1267
00003e  f7fffffe          BL       TEXT_SetBkColor
000042  4651              MOV      r1,r10                ;1268
000044  4620              MOV      r0,r4                 ;1268
000046  f7fffffe          BL       TEXT_SetTextColor
00004a  4641              MOV      r1,r8                 ;1270
00004c  6a68              LDR      r0,[r5,#0x24]         ;1270  ; hWinR
00004e  f7fffffe          BL       WM_GetDialogItem
000052  4604              MOV      r4,r0                 ;1270
000054  4659              MOV      r1,r11                ;1271
000056  f7fffffe          BL       TEXT_SetBkColor
00005a  2100              MOVS     r1,#0                 ;1272
00005c  4620              MOV      r0,r4                 ;1272
00005e  f7fffffe          BL       TEXT_SetTextColor
000062  203f              MOVS     r0,#0x3f              ;1274
000064  e06a              B        |L5.316|
                  |L5.102|
000066  f6400714          MOV      r7,#0x814             ;1235
00006a  2945              CMP      r1,#0x45              ;1229
00006c  d04c              BEQ      |L5.264|
00006e  2947              CMP      r1,#0x47              ;1229
000070  d165              BNE      |L5.318|
000072  4639              MOV      r1,r7                 ;1235
000074  f7fffffe          BL       WM_GetDialogItem
000078  4604              MOV      r4,r0                 ;1235
00007a  4649              MOV      r1,r9                 ;1236
00007c  f7fffffe          BL       TEXT_SetBkColor
000080  4651              MOV      r1,r10                ;1237
000082  4620              MOV      r0,r4                 ;1237
000084  f7fffffe          BL       TEXT_SetTextColor
000088  4631              MOV      r1,r6                 ;1239
00008a  6a68              LDR      r0,[r5,#0x24]         ;1239  ; hWinR
00008c  f7fffffe          BL       WM_GetDialogItem
000090  4604              MOV      r4,r0                 ;1239
000092  4659              MOV      r1,r11                ;1240
000094  f7fffffe          BL       TEXT_SetBkColor
000098  2100              MOVS     r1,#0                 ;1241
00009a  4620              MOV      r0,r4                 ;1241
00009c  f7fffffe          BL       TEXT_SetTextColor
0000a0  2013              MOVS     r0,#0x13              ;1243
0000a2  e04b              B        |L5.316|
                  |L5.164|
0000a4  4631              MOV      r1,r6                 ;1251
0000a6  f7fffffe          BL       WM_GetDialogItem
0000aa  4604              MOV      r4,r0                 ;1251
0000ac  4649              MOV      r1,r9                 ;1252
0000ae  f7fffffe          BL       TEXT_SetBkColor
0000b2  4651              MOV      r1,r10                ;1253
0000b4  4620              MOV      r0,r4                 ;1253
0000b6  f7fffffe          BL       TEXT_SetTextColor
0000ba  4639              MOV      r1,r7                 ;1255
0000bc  6a68              LDR      r0,[r5,#0x24]         ;1255  ; hWinR
0000be  f7fffffe          BL       WM_GetDialogItem
0000c2  4604              MOV      r4,r0                 ;1255
0000c4  4659              MOV      r1,r11                ;1256
0000c6  f7fffffe          BL       TEXT_SetBkColor
0000ca  2100              MOVS     r1,#0                 ;1257
0000cc  4620              MOV      r0,r4                 ;1257
0000ce  f7fffffe          BL       TEXT_SetTextColor
0000d2  2014              MOVS     r0,#0x14              ;1259
0000d4  e032              B        |L5.316|
                  |L5.214|
0000d6  4641              MOV      r1,r8                 ;1281
0000d8  f7fffffe          BL       WM_GetDialogItem
0000dc  4606              MOV      r6,r0                 ;1281
0000de  4649              MOV      r1,r9                 ;1282
0000e0  f7fffffe          BL       TEXT_SetBkColor
0000e4  4651              MOV      r1,r10                ;1283
0000e6  4630              MOV      r0,r6                 ;1283
0000e8  f7fffffe          BL       TEXT_SetTextColor
0000ec  4621              MOV      r1,r4
0000ee  6a68              LDR      r0,[r5,#0x24]  ; hWinR
0000f0  f7fffffe          BL       WM_GetDialogItem
0000f4  4604              MOV      r4,r0
;;;1286               TEXT_SetBkColor(hItem,0x00BFFFFF);
0000f6  4659              MOV      r1,r11
0000f8  f7fffffe          BL       TEXT_SetBkColor
;;;1287               TEXT_SetTextColor(hItem, GUI_BLACK);
0000fc  2100              MOVS     r1,#0
0000fe  4620              MOV      r0,r4
000100  f7fffffe          BL       TEXT_SetTextColor
;;;1288               
;;;1289               oc_sw = set_70;
000104  2045              MOVS     r0,#0x45
;;;1290               break;
000106  e019              B        |L5.316|
                  |L5.264|
;;;1291           }
;;;1292           case set_70:
;;;1293           {
;;;1294               WM_HWIN hItem;
;;;1295   //            WM_InvalidateWindow(hWinR);
;;;1296               hItem = WM_GetDialogItem(hWinR, ID_TEXT_43);
000108  4621              MOV      r1,r4
00010a  f7fffffe          BL       WM_GetDialogItem
00010e  4604              MOV      r4,r0
;;;1297               TEXT_SetBkColor(hItem,GUI_INVALID_COLOR);
000110  4649              MOV      r1,r9
000112  f7fffffe          BL       TEXT_SetBkColor
;;;1298               TEXT_SetTextColor(hItem, GUI_WHITE);
000116  4651              MOV      r1,r10
000118  4620              MOV      r0,r4
00011a  f7fffffe          BL       TEXT_SetTextColor
;;;1299               
;;;1300               hItem = WM_GetDialogItem(hWinR, ID_TEXT_1);
00011e  4639              MOV      r1,r7
000120  6a68              LDR      r0,[r5,#0x24]  ; hWinR
000122  f7fffffe          BL       WM_GetDialogItem
000126  4604              MOV      r4,r0
;;;1301               TEXT_SetBkColor(hItem,0x00BFFFFF);
000128  4659              MOV      r1,r11
00012a  f7fffffe          BL       TEXT_SetBkColor
;;;1302               TEXT_SetTextColor(hItem, GUI_BLACK);
00012e  e000              B        |L5.306|
                  |L5.304|
000130  e005              B        |L5.318|
                  |L5.306|
000132  2100              MOVS     r1,#0
000134  4620              MOV      r0,r4
000136  f7fffffe          BL       TEXT_SetTextColor
;;;1303               
;;;1304               oc_sw = set_72;
00013a  2047              MOVS     r0,#0x47
                  |L5.316|
00013c  71a8              STRB     r0,[r5,#6]
                  |L5.318|
;;;1305               break;
;;;1306           }
;;;1307           
;;;1308       }
;;;1309       
;;;1310   }
00013e  e8bd9ff0          POP      {r4-r12,pc}
;;;1311   
                          ENDP

000142  0000              DCW      0x0000
                  |L5.324|
                          DCD      ||.data||
                  |L5.328|
                          DCD      0x00bfffff

                          AREA ||i.OC_OP_UP||, CODE, READONLY, ALIGN=2

                  OC_OP_UP PROC
;;;1312   void OC_OP_UP(void);
;;;1313   void OC_OP_UP(void)
000000  e92d47f0          PUSH     {r4-r10,lr}
;;;1314   {
;;;1315       switch(oc_sw)
000004  4d4f              LDR      r5,|L6.324|
000006  79a9              LDRB     r1,[r5,#6]  ; oc_sw
000008  4628              MOV      r0,r5
;;;1316       {
;;;1317           case set_72:
;;;1318           {
;;;1319               WM_HWIN hItem;
;;;1320   //            WM_InvalidateWindow(hWinR);
;;;1321               hItem = WM_GetDialogItem(hWinR, ID_TEXT_1);
;;;1322               TEXT_SetBkColor(hItem,GUI_INVALID_COLOR);
;;;1323               TEXT_SetTextColor(hItem, GUI_WHITE);
;;;1324               
;;;1325               hItem = WM_GetDialogItem(hWinR, ID_TEXT_43);
;;;1326               TEXT_SetBkColor(hItem,0x00BFFFFF);
00000a  f8dfa13c          LDR      r10,|L6.328|
00000e  6a40              LDR      r0,[r0,#0x24]         ;1321
000010  f6400614          MOV      r6,#0x814             ;1321
000014  f06f4870          MVN      r8,#0xf0000000        ;1322
000018  f06f497f          MVN      r9,#0xff000000        ;1323
;;;1327               TEXT_SetTextColor(hItem, GUI_BLACK);
;;;1328               
;;;1329               oc_sw = set_70;
;;;1330               break;
;;;1331           }
;;;1332           
;;;1333           case set_20:
;;;1334           {
;;;1335               WM_HWIN hItem;
;;;1336   //            WM_InvalidateWindow(hWinR);
;;;1337               hItem = WM_GetDialogItem(hWinR, ID_TEXT_44);
;;;1338               TEXT_SetBkColor(hItem,GUI_INVALID_COLOR);
;;;1339               TEXT_SetTextColor(hItem, GUI_WHITE);
;;;1340               
;;;1341               hItem = WM_GetDialogItem(hWinR, ID_TEXT_1);
;;;1342               TEXT_SetBkColor(hItem,0x00BFFFFF);
;;;1343               TEXT_SetTextColor(hItem, GUI_BLACK);
;;;1344               
;;;1345               oc_sw = set_72;
;;;1346               break;
;;;1347           }
;;;1348           case set_21:
;;;1349           {
;;;1350               WM_HWIN hItem;
;;;1351   //            WM_InvalidateWindow(hWinR);
;;;1352               hItem = WM_GetDialogItem(hWinR, ID_TEXT_45);
00001c  f640076a          MOV      r7,#0x86a
;;;1353               TEXT_SetBkColor(hItem,GUI_INVALID_COLOR);
;;;1354               TEXT_SetTextColor(hItem, GUI_WHITE);
;;;1355               
;;;1356               
;;;1357               hItem = WM_GetDialogItem(hWinR, ID_TEXT_44);
;;;1358               TEXT_SetBkColor(hItem,0x00BFFFFF);
;;;1359               TEXT_SetTextColor(hItem, GUI_BLACK);
;;;1360               
;;;1361               oc_sw = set_20;
;;;1362               break;
;;;1363           }
;;;1364           case set_64:
;;;1365           {
;;;1366               WM_HWIN hItem;
;;;1367   //            WM_InvalidateWindow(hWinR);
;;;1368               hItem = WM_GetDialogItem(hWinR, ID_TEXT_118);
000020  f6401408          MOV      r4,#0x908
000024  293f              CMP      r1,#0x3f              ;1315
000026  d057              BEQ      |L6.216|
000028  dc1e              BGT      |L6.104|
00002a  f6400469          MOV      r4,#0x869             ;1337
00002e  2913              CMP      r1,#0x13              ;1315
000030  d039              BEQ      |L6.166|
000032  2914              CMP      r1,#0x14              ;1315
000034  d17e              BNE      |L6.308|
000036  4639              MOV      r1,r7                 ;1352
000038  f7fffffe          BL       WM_GetDialogItem
00003c  4606              MOV      r6,r0                 ;1352
00003e  4641              MOV      r1,r8                 ;1353
000040  f7fffffe          BL       TEXT_SetBkColor
000044  4649              MOV      r1,r9                 ;1354
000046  4630              MOV      r0,r6                 ;1354
000048  f7fffffe          BL       TEXT_SetTextColor
00004c  4621              MOV      r1,r4                 ;1357
00004e  6a68              LDR      r0,[r5,#0x24]         ;1357  ; hWinR
000050  f7fffffe          BL       WM_GetDialogItem
000054  4604              MOV      r4,r0                 ;1357
000056  4651              MOV      r1,r10                ;1358
000058  f7fffffe          BL       TEXT_SetBkColor
00005c  2100              MOVS     r1,#0                 ;1359
00005e  4620              MOV      r0,r4                 ;1359
000060  f7fffffe          BL       TEXT_SetTextColor
000064  2013              MOVS     r0,#0x13              ;1361
000066  e06a              B        |L6.318|
                  |L6.104|
000068  f6400768          MOV      r7,#0x868             ;1325
00006c  2945              CMP      r1,#0x45              ;1315
00006e  d04c              BEQ      |L6.266|
000070  2947              CMP      r1,#0x47              ;1315
000072  d165              BNE      |L6.320|
000074  4631              MOV      r1,r6                 ;1321
000076  f7fffffe          BL       WM_GetDialogItem
00007a  4604              MOV      r4,r0                 ;1321
00007c  4641              MOV      r1,r8                 ;1322
00007e  f7fffffe          BL       TEXT_SetBkColor
000082  4649              MOV      r1,r9                 ;1323
000084  4620              MOV      r0,r4                 ;1323
000086  f7fffffe          BL       TEXT_SetTextColor
00008a  4639              MOV      r1,r7                 ;1325
00008c  6a68              LDR      r0,[r5,#0x24]         ;1325  ; hWinR
00008e  f7fffffe          BL       WM_GetDialogItem
000092  4604              MOV      r4,r0                 ;1325
000094  4651              MOV      r1,r10                ;1326
000096  f7fffffe          BL       TEXT_SetBkColor
00009a  2100              MOVS     r1,#0                 ;1327
00009c  4620              MOV      r0,r4                 ;1327
00009e  f7fffffe          BL       TEXT_SetTextColor
0000a2  2045              MOVS     r0,#0x45              ;1329
0000a4  e04b              B        |L6.318|
                  |L6.166|
0000a6  4621              MOV      r1,r4                 ;1337
0000a8  f7fffffe          BL       WM_GetDialogItem
0000ac  4604              MOV      r4,r0                 ;1337
0000ae  4641              MOV      r1,r8                 ;1338
0000b0  f7fffffe          BL       TEXT_SetBkColor
0000b4  4649              MOV      r1,r9                 ;1339
0000b6  4620              MOV      r0,r4                 ;1339
0000b8  f7fffffe          BL       TEXT_SetTextColor
0000bc  4631              MOV      r1,r6                 ;1341
0000be  6a68              LDR      r0,[r5,#0x24]         ;1341  ; hWinR
0000c0  f7fffffe          BL       WM_GetDialogItem
0000c4  4604              MOV      r4,r0                 ;1341
0000c6  4651              MOV      r1,r10                ;1342
0000c8  f7fffffe          BL       TEXT_SetBkColor
0000cc  2100              MOVS     r1,#0                 ;1343
0000ce  4620              MOV      r0,r4                 ;1343
0000d0  f7fffffe          BL       TEXT_SetTextColor
0000d4  2047              MOVS     r0,#0x47              ;1345
0000d6  e032              B        |L6.318|
                  |L6.216|
0000d8  4621              MOV      r1,r4
0000da  f7fffffe          BL       WM_GetDialogItem
0000de  4604              MOV      r4,r0
;;;1369               TEXT_SetBkColor(hItem,GUI_INVALID_COLOR);
0000e0  4641              MOV      r1,r8
0000e2  f7fffffe          BL       TEXT_SetBkColor
;;;1370               TEXT_SetTextColor(hItem, GUI_WHITE);
0000e6  4649              MOV      r1,r9
0000e8  4620              MOV      r0,r4
0000ea  f7fffffe          BL       TEXT_SetTextColor
;;;1371               
;;;1372               hItem = WM_GetDialogItem(hWinR, ID_TEXT_45);
0000ee  4639              MOV      r1,r7
0000f0  6a68              LDR      r0,[r5,#0x24]  ; hWinR
0000f2  f7fffffe          BL       WM_GetDialogItem
0000f6  4604              MOV      r4,r0
;;;1373               TEXT_SetBkColor(hItem,0x00BFFFFF);
0000f8  4651              MOV      r1,r10
0000fa  f7fffffe          BL       TEXT_SetBkColor
;;;1374               TEXT_SetTextColor(hItem, GUI_BLACK);
0000fe  2100              MOVS     r1,#0
000100  4620              MOV      r0,r4
000102  f7fffffe          BL       TEXT_SetTextColor
;;;1375               
;;;1376               oc_sw = set_21;
000106  2014              MOVS     r0,#0x14
;;;1377               break;
000108  e019              B        |L6.318|
                  |L6.266|
;;;1378           }
;;;1379           case set_70:
;;;1380           {
;;;1381               WM_HWIN hItem;
;;;1382   //            WM_InvalidateWindow(hWinR);
;;;1383               hItem = WM_GetDialogItem(hWinR, ID_TEXT_43);
00010a  4639              MOV      r1,r7
00010c  f7fffffe          BL       WM_GetDialogItem
000110  4606              MOV      r6,r0
;;;1384               TEXT_SetBkColor(hItem,GUI_INVALID_COLOR);
000112  4641              MOV      r1,r8
000114  f7fffffe          BL       TEXT_SetBkColor
;;;1385               TEXT_SetTextColor(hItem, GUI_WHITE);
000118  4649              MOV      r1,r9
00011a  4630              MOV      r0,r6
00011c  f7fffffe          BL       TEXT_SetTextColor
;;;1386               
;;;1387               hItem = WM_GetDialogItem(hWinR, ID_TEXT_118);
000120  4621              MOV      r1,r4
000122  6a68              LDR      r0,[r5,#0x24]  ; hWinR
000124  f7fffffe          BL       WM_GetDialogItem
000128  4604              MOV      r4,r0
;;;1388               TEXT_SetBkColor(hItem,0x00BFFFFF);
00012a  4651              MOV      r1,r10
00012c  f7fffffe          BL       TEXT_SetBkColor
;;;1389               TEXT_SetTextColor(hItem, GUI_BLACK);
000130  2100              MOVS     r1,#0
000132  e000              B        |L6.310|
                  |L6.308|
000134  e004              B        |L6.320|
                  |L6.310|
000136  4620              MOV      r0,r4
000138  f7fffffe          BL       TEXT_SetTextColor
;;;1390               
;;;1391               oc_sw = set_64;
00013c  203f              MOVS     r0,#0x3f
                  |L6.318|
00013e  71a8              STRB     r0,[r5,#6]
                  |L6.320|
;;;1392               break;
;;;1393           }
;;;1394           
;;;1395       }
;;;1396       
;;;1397   }
000140  e8bd87f0          POP      {r4-r10,pc}
;;;1398   
                          ENDP

                  |L6.324|
                          DCD      ||.data||
                  |L6.328|
                          DCD      0x00bfffff

                          AREA ||i.OC_SET||, CODE, READONLY, ALIGN=2

                          REQUIRE _printf_percent
                          REQUIRE _printf_widthprec
                          REQUIRE _printf_f
                          REQUIRE _printf_fp_dec
                          REQUIRE _printf_pre_padding
                          REQUIRE _printf_d
                          REQUIRE _printf_int_dec
                  OC_SET PROC
;;;1400   void OC_SET(void);
;;;1401   void OC_SET(void) {
000000  e92d4ff0          PUSH     {r4-r11,lr}
;;;1402       vu8 i;
;;;1403       char  buf[6];
;;;1404   
;;;1405       float dis_init_c;
;;;1406       float dis_sbs_c;
;;;1407       vu16 dis_steptime = steptime;
000004  4fd1              LDR      r7,|L7.844|
000006  ed2d8b02          VPUSH    {d8}                  ;1401
00000a  b083              SUB      sp,sp,#0xc            ;1401
00000c  8abc              LDRH     r4,[r7,#0x14]  ; steptime
;;;1408       switch(oc_sw)
00000e  79b9              LDRB     r1,[r7,#6]  ; oc_sw
;;;1409       {
;;;1410           case set_20:
;;;1411           {
;;;1412               WM_HWIN hItem;
;;;1413   //            WM_InvalidateWindow(hWinR);
;;;1414               hItem = WM_GetDialogItem(hWinR, ID_TEXT_44);
;;;1415               TEXT_SetBkColor(hItem,GUI_INVALID_COLOR);
;;;1416               TEXT_SetTextColor(hItem, GUI_WHITE);
;;;1417               
;;;1418               
;;;1419               hItem = WM_GetDialogItem(hWinR, ID_TEXT_46);
;;;1420               TEXT_SetBkColor(hItem,0x00BFFFFF);
;;;1421               TEXT_SetTextColor(hItem, GUI_BLACK);
;;;1422               for(i=0;i<5;i++)
;;;1423               {
;;;1424                   set_limit[i] = '\0';
;;;1425               }
;;;1426               oc_sw = set_22;
;;;1427               break;
;;;1428           }
;;;1429           case set_22:
;;;1430           {
;;;1431               WM_HWIN hItem;
;;;1432   //            WM_InvalidateWindow(hWinR);
;;;1433               hItem = WM_GetDialogItem(hWinR, ID_TEXT_46);
;;;1434               TEXT_SetBkColor(hItem,GUI_INVALID_COLOR);
;;;1435               TEXT_SetTextColor(hItem, GUI_WHITE);
;;;1436               SET_Current_Laod = set_init_c;
;;;1437               if(SET_Current_Laod > 55000){
;;;1438                   SET_Current_Laod = 0;
;;;1439               }
;;;1440               dis_init_c = (float)set_init_c/1000;
000010  ed9f8acf          VLDR     s16,|L7.848|
000014  4638              MOV      r0,r7                 ;1407
;;;1441               sprintf(buf,"%.3f",dis_init_c);
;;;1442               TEXT_SetText(hItem,buf);
;;;1443               
;;;1444               hItem = WM_GetDialogItem(hWinR, ID_TEXT_44);
;;;1445               TEXT_SetBkColor(hItem,0x00BFFFFF);
;;;1446               TEXT_SetTextColor(hItem, GUI_BLACK);
;;;1447               Write_Limits();
;;;1448               
;;;1449               oc_sw = set_20;
;;;1450               bit =1;
000016  2601              MOVS     r6,#1
000018  6a40              LDR      r0,[r0,#0x24]         ;1414
00001a  2500              MOVS     r5,#0                 ;1421
;;;1451               dot_flag = 0;
;;;1452               break;
;;;1453           }
;;;1454           case set_21:
;;;1455           {
;;;1456               WM_HWIN hItem;
;;;1457   //            WM_InvalidateWindow(hWinR);
;;;1458               hItem = WM_GetDialogItem(hWinR, ID_TEXT_45);
;;;1459               TEXT_SetBkColor(hItem,GUI_INVALID_COLOR);
;;;1460               TEXT_SetTextColor(hItem, GUI_WHITE);
;;;1461               
;;;1462               
;;;1463               hItem = WM_GetDialogItem(hWinR, ID_TEXT_47);
;;;1464               TEXT_SetBkColor(hItem,0x00BFFFFF);
;;;1465               TEXT_SetTextColor(hItem, GUI_BLACK);
;;;1466               for(i=0;i<5;i++)
;;;1467               {
;;;1468                   set_limit[i] = '\0';
;;;1469               }
;;;1470               
;;;1471               oc_sw = set_23;
;;;1472               break;
;;;1473           }
;;;1474           case set_23:
;;;1475           {
;;;1476               WM_HWIN hItem;
;;;1477   //            WM_InvalidateWindow(hWinR);
;;;1478               hItem = WM_GetDialogItem(hWinR, ID_TEXT_47);
;;;1479               TEXT_SetBkColor(hItem,GUI_INVALID_COLOR);
;;;1480               TEXT_SetTextColor(hItem, GUI_WHITE);
;;;1481               dis_sbs_c = (float)set_sbs_c/1000;
;;;1482               sprintf(buf,"%.3f",dis_sbs_c);
;;;1483               TEXT_SetText(hItem,buf);
;;;1484               
;;;1485               hItem = WM_GetDialogItem(hWinR, ID_TEXT_45);
;;;1486               TEXT_SetBkColor(hItem,0x00BFFFFF);
;;;1487               TEXT_SetTextColor(hItem, GUI_BLACK);
;;;1488               Write_Limits();
;;;1489               
;;;1490               oc_sw = set_21;
;;;1491               bit = 1;
;;;1492               dot_flag = 0;
;;;1493               break;
;;;1494           }
;;;1495           case set_64:
;;;1496           {
;;;1497               WM_HWIN hItem;
;;;1498   //            WM_InvalidateWindow(hWinR);
;;;1499               hItem = WM_GetDialogItem(hWinR, ID_TEXT_118);
00001c  f6401908          MOV      r9,#0x908
;;;1500               TEXT_SetBkColor(hItem,GUI_INVALID_COLOR);
;;;1501               TEXT_SetTextColor(hItem, GUI_WHITE);
;;;1502               
;;;1503               
;;;1504               hItem = WM_GetDialogItem(hWinR, ID_TEXT_97);
000020  f6401a05          MOV      r10,#0x905
000024  f1070844          ADD      r8,r7,#0x44           ;1424
000028  293f              CMP      r1,#0x3f              ;1408
00002a  d07d              BEQ      |L7.296|
00002c  dc43              BGT      |L7.182|
00002e  f6400a69          MOV      r10,#0x869            ;1414
000032  f6400b6b          MOV      r11,#0x86b            ;1419
000036  2913              CMP      r1,#0x13              ;1408
000038  d054              BEQ      |L7.228|
00003a  f640096a          MOV      r9,#0x86a             ;1458
00003e  2914              CMP      r1,#0x14              ;1408
000040  d073              BEQ      |L7.298|
000042  4cc4              LDR      r4,|L7.852|
000044  2915              CMP      r1,#0x15              ;1408
000046  d072              BEQ      |L7.302|
000048  2916              CMP      r1,#0x16              ;1408
00004a  d146              BNE      |L7.218|
00004c  f640016c          MOV      r1,#0x86c             ;1478
000050  f7fffffe          BL       WM_GetDialogItem
000054  4680              MOV      r8,r0                 ;1478
000056  f06f4170          MVN      r1,#0xf0000000        ;1479
00005a  f7fffffe          BL       TEXT_SetBkColor
00005e  f06f417f          MVN      r1,#0xff000000        ;1480
000062  4640              MOV      r0,r8                 ;1480
000064  f7fffffe          BL       TEXT_SetTextColor
000068  6de0              LDR      r0,[r4,#0x5c]         ;1481  ; Run_Control
00006a  ee000a10          VMOV     s0,r0                 ;1481
00006e  eef80a40          VCVT.F32.U32 s1,s0                 ;1481
000072  ee800a88          VDIV.F32 s0,s1,s16             ;1481
000076  ee100a10          VMOV     r0,s0                 ;1482
00007a  f7fffffe          BL       __aeabi_f2d
00007e  ec410b10          VMOV     d0,r0,r1              ;1482
000082  a1b5              ADR      r1,|L7.856|
000084  ec532b10          VMOV     r2,r3,d0              ;1482
000088  4668              MOV      r0,sp                 ;1482
00008a  f7fffffe          BL       __2sprintf
00008e  4669              MOV      r1,sp                 ;1483
000090  4640              MOV      r0,r8                 ;1483
000092  f7fffffe          BL       TEXT_SetText
000096  4649              MOV      r1,r9                 ;1485
000098  6a78              LDR      r0,[r7,#0x24]         ;1485  ; hWinR
00009a  f7fffffe          BL       WM_GetDialogItem
00009e  4604              MOV      r4,r0                 ;1485
0000a0  49af              LDR      r1,|L7.864|
0000a2  f7fffffe          BL       TEXT_SetBkColor
0000a6  2100              MOVS     r1,#0                 ;1487
0000a8  4620              MOV      r0,r4                 ;1487
0000aa  f7fffffe          BL       TEXT_SetTextColor
0000ae  f7fffffe          BL       Write_Limits
0000b2  2014              MOVS     r0,#0x14              ;1490
0000b4  e0f5              B        |L7.674|
                  |L7.182|
0000b6  2940              CMP      r1,#0x40              ;1408
0000b8  d075              BEQ      |L7.422|
;;;1505               TEXT_SetBkColor(hItem,0x00BFFFFF);
;;;1506               TEXT_SetTextColor(hItem, GUI_BLACK);
;;;1507               for(i=0;i<5;i++)
;;;1508               {
;;;1509                   set_limit[i] = '\0';
;;;1510               }
;;;1511               
;;;1512               oc_sw = set_65;
;;;1513               break;
;;;1514           }
;;;1515           case set_65:
;;;1516           {
;;;1517               WM_HWIN hItem;
;;;1518   //            WM_InvalidateWindow(hWinR);
;;;1519               hItem = WM_GetDialogItem(hWinR, ID_TEXT_97);
;;;1520               TEXT_SetBkColor(hItem,GUI_INVALID_COLOR);
;;;1521               TEXT_SetTextColor(hItem, GUI_WHITE);
;;;1522               gate_v = (float)dis_gate_v/1000;
;;;1523               sprintf(buf,"%.3f",gate_v);
;;;1524               TEXT_SetText(hItem,buf);
;;;1525               
;;;1526               hItem = WM_GetDialogItem(hWinR, ID_TEXT_118);
;;;1527               TEXT_SetBkColor(hItem,0x00BFFFFF);
;;;1528               TEXT_SetTextColor(hItem, GUI_BLACK);
;;;1529               Write_Limits();
;;;1530               
;;;1531               oc_sw = set_64;
;;;1532               bit = 1;
;;;1533               dot_flag = 0;
;;;1534               break;
;;;1535           }
;;;1536           case set_70:
;;;1537           {
;;;1538               WM_HWIN hItem;
;;;1539   //            WM_InvalidateWindow(hWinR);
;;;1540               hItem = WM_GetDialogItem(hWinR, ID_TEXT_43);
0000ba  f6400968          MOV      r9,#0x868
;;;1541               TEXT_SetBkColor(hItem,GUI_INVALID_COLOR);
;;;1542               TEXT_SetTextColor(hItem, GUI_WHITE);
;;;1543               
;;;1544               
;;;1545               hItem = WM_GetDialogItem(hWinR, ID_TEXT_130);
0000be  f6401a0e          MOV      r10,#0x90e
0000c2  2945              CMP      r1,#0x45              ;1408
0000c4  d070              BEQ      |L7.424|
0000c6  2946              CMP      r1,#0x46              ;1408
0000c8  d06f              BEQ      |L7.426|
0000ca  2947              CMP      r1,#0x47              ;1408
0000cc  d105              BNE      |L7.218|
;;;1546               TEXT_SetBkColor(hItem,0x00BFFFFF);
;;;1547               TEXT_SetTextColor(hItem, GUI_BLACK);
;;;1548               for(i=0;i<5;i++)
;;;1549               {
;;;1550                   set_limit[i] = '\0';
;;;1551               }
;;;1552               
;;;1553               oc_sw = set_71;
;;;1554               break;
;;;1555           }
;;;1556           case set_71:
;;;1557           {
;;;1558               WM_HWIN hItem;
;;;1559   //            WM_InvalidateWindow(hWinR);
;;;1560               hItem = WM_GetDialogItem(hWinR, ID_TEXT_130);
;;;1561               TEXT_SetBkColor(hItem,GUI_INVALID_COLOR);
;;;1562               TEXT_SetTextColor(hItem, GUI_WHITE);
;;;1563               sprintf(buf,"%4d",dis_steptime);
;;;1564               TEXT_SetText(hItem,buf);
;;;1565               
;;;1566               hItem = WM_GetDialogItem(hWinR, ID_TEXT_43);
;;;1567               TEXT_SetBkColor(hItem,0x00BFFFFF);
;;;1568               TEXT_SetTextColor(hItem, GUI_BLACK);
;;;1569               Write_Limits();
;;;1570               
;;;1571               oc_sw = set_70;
;;;1572               bit = 1;
;;;1573               dot_flag = 0;
;;;1574               Wrtite_step();
;;;1575               break;
;;;1576           }
;;;1577           
;;;1578           case set_72:
;;;1579           {
;;;1580               WM_HWIN hItem;
;;;1581               if(oc_mode == 0)
0000ce  7cb8              LDRB     r0,[r7,#0x12]  ; oc_mode
0000d0  2800              CMP      r0,#0
0000d2  d06b              BEQ      |L7.428|
;;;1582               {
;;;1583                   oc_mode = 1;
;;;1584               }else{
;;;1585                   oc_mode = 0;
0000d4  74bd              STRB     r5,[r7,#0x12]
                  |L7.214|
;;;1586               }
;;;1587               Write_Limits();
0000d6  f7fffffe          BL       Write_Limits
                  |L7.218|
;;;1588               break;
;;;1589           }
;;;1590           
;;;1591       }
;;;1592   }
0000da  b003              ADD      sp,sp,#0xc
0000dc  ecbd8b02          VPOP     {d8}
0000e0  e8bd8ff0          POP      {r4-r11,pc}
                  |L7.228|
0000e4  4651              MOV      r1,r10                ;1414
0000e6  f7fffffe          BL       WM_GetDialogItem
0000ea  4604              MOV      r4,r0                 ;1414
0000ec  f06f4170          MVN      r1,#0xf0000000        ;1415
0000f0  f7fffffe          BL       TEXT_SetBkColor
0000f4  f06f417f          MVN      r1,#0xff000000        ;1416
0000f8  4620              MOV      r0,r4                 ;1416
0000fa  f7fffffe          BL       TEXT_SetTextColor
0000fe  4659              MOV      r1,r11                ;1419
000100  6a78              LDR      r0,[r7,#0x24]         ;1419  ; hWinR
000102  f7fffffe          BL       WM_GetDialogItem
000106  4604              MOV      r4,r0                 ;1419
000108  4995              LDR      r1,|L7.864|
00010a  f7fffffe          BL       TEXT_SetBkColor
00010e  2100              MOVS     r1,#0                 ;1421
000110  4620              MOV      r0,r4                 ;1421
000112  f7fffffe          BL       TEXT_SetTextColor
000116  2000              MOVS     r0,#0                 ;1422
                  |L7.280|
000118  f8085000          STRB     r5,[r8,r0]            ;1424
00011c  1c40              ADDS     r0,r0,#1              ;1422
00011e  b2c0              UXTB     r0,r0                 ;1422
000120  2805              CMP      r0,#5                 ;1422
000122  d3f9              BCC      |L7.280|
000124  2015              MOVS     r0,#0x15              ;1426
000126  e0e1              B        |L7.748|
                  |L7.296|
000128  e064              B        |L7.500|
                  |L7.298|
00012a  e040              B        |L7.430|
00012c  e7ff              B        |L7.302|
                  |L7.302|
00012e  4659              MOV      r1,r11                ;1433
000130  f7fffffe          BL       WM_GetDialogItem
000134  4680              MOV      r8,r0                 ;1433
000136  f06f4170          MVN      r1,#0xf0000000        ;1434
00013a  f7fffffe          BL       TEXT_SetBkColor
00013e  f06f417f          MVN      r1,#0xff000000        ;1435
000142  4640              MOV      r0,r8                 ;1435
000144  f7fffffe          BL       TEXT_SetTextColor
000148  6da0              LDR      r0,[r4,#0x58]         ;1436  ; Run_Control
00014a  6120              STR      r0,[r4,#0x10]         ;1436  ; Run_Control
00014c  6920              LDR      r0,[r4,#0x10]         ;1437  ; Run_Control
00014e  f24d61d8          MOV      r1,#0xd6d8            ;1437
000152  4288              CMP      r0,r1                 ;1437
000154  d900              BLS      |L7.344|
000156  6125              STR      r5,[r4,#0x10]         ;1438  ; Run_Control
                  |L7.344|
000158  6da0              LDR      r0,[r4,#0x58]         ;1440  ; Run_Control
00015a  ee000a10          VMOV     s0,r0                 ;1440
00015e  eef80a40          VCVT.F32.U32 s1,s0                 ;1440
000162  ee800a88          VDIV.F32 s0,s1,s16             ;1440
000166  ee100a10          VMOV     r0,s0                 ;1441
00016a  f7fffffe          BL       __aeabi_f2d
00016e  ec410b10          VMOV     d0,r0,r1              ;1441
000172  a179              ADR      r1,|L7.856|
000174  ec532b10          VMOV     r2,r3,d0              ;1441
000178  4668              MOV      r0,sp                 ;1441
00017a  f7fffffe          BL       __2sprintf
00017e  4669              MOV      r1,sp                 ;1442
000180  4640              MOV      r0,r8                 ;1442
000182  f7fffffe          BL       TEXT_SetText
000186  4651              MOV      r1,r10                ;1444
000188  6a78              LDR      r0,[r7,#0x24]         ;1444  ; hWinR
00018a  f7fffffe          BL       WM_GetDialogItem
00018e  4604              MOV      r4,r0                 ;1444
000190  4973              LDR      r1,|L7.864|
000192  f7fffffe          BL       TEXT_SetBkColor
000196  2100              MOVS     r1,#0                 ;1446
000198  4620              MOV      r0,r4                 ;1446
00019a  f7fffffe          BL       TEXT_SetTextColor
00019e  f7fffffe          BL       Write_Limits
0001a2  2013              MOVS     r0,#0x13              ;1449
0001a4  e07d              B        |L7.674|
                  |L7.422|
0001a6  e047              B        |L7.568|
                  |L7.424|
0001a8  e07f              B        |L7.682|
                  |L7.426|
0001aa  e0a1              B        |L7.752|
                  |L7.428|
0001ac  e0cb              B        |L7.838|
                  |L7.430|
0001ae  4649              MOV      r1,r9                 ;1458
0001b0  f7fffffe          BL       WM_GetDialogItem
0001b4  4604              MOV      r4,r0                 ;1458
0001b6  f06f4170          MVN      r1,#0xf0000000        ;1459
0001ba  f7fffffe          BL       TEXT_SetBkColor
0001be  f06f417f          MVN      r1,#0xff000000        ;1460
0001c2  4620              MOV      r0,r4                 ;1460
0001c4  f7fffffe          BL       TEXT_SetTextColor
0001c8  f640016c          MOV      r1,#0x86c             ;1463
0001cc  6a78              LDR      r0,[r7,#0x24]         ;1463  ; hWinR
0001ce  f7fffffe          BL       WM_GetDialogItem
0001d2  4604              MOV      r4,r0                 ;1463
0001d4  4962              LDR      r1,|L7.864|
0001d6  f7fffffe          BL       TEXT_SetBkColor
0001da  2100              MOVS     r1,#0                 ;1465
0001dc  4620              MOV      r0,r4                 ;1465
0001de  f7fffffe          BL       TEXT_SetTextColor
0001e2  2000              MOVS     r0,#0                 ;1466
                  |L7.484|
0001e4  f8085000          STRB     r5,[r8,r0]            ;1468
0001e8  1c40              ADDS     r0,r0,#1              ;1466
0001ea  b2c0              UXTB     r0,r0                 ;1466
0001ec  2805              CMP      r0,#5                 ;1466
0001ee  d3f9              BCC      |L7.484|
0001f0  2016              MOVS     r0,#0x16              ;1471
0001f2  e07b              B        |L7.748|
                  |L7.500|
0001f4  4649              MOV      r1,r9                 ;1499
0001f6  f7fffffe          BL       WM_GetDialogItem
0001fa  4604              MOV      r4,r0                 ;1499
0001fc  f06f4170          MVN      r1,#0xf0000000        ;1500
000200  f7fffffe          BL       TEXT_SetBkColor
000204  f06f417f          MVN      r1,#0xff000000        ;1501
000208  4620              MOV      r0,r4                 ;1501
00020a  f7fffffe          BL       TEXT_SetTextColor
00020e  4651              MOV      r1,r10                ;1504
000210  6a78              LDR      r0,[r7,#0x24]         ;1504  ; hWinR
000212  f7fffffe          BL       WM_GetDialogItem
000216  4604              MOV      r4,r0                 ;1504
000218  4951              LDR      r1,|L7.864|
00021a  f7fffffe          BL       TEXT_SetBkColor
00021e  2100              MOVS     r1,#0                 ;1506
000220  4620              MOV      r0,r4                 ;1506
000222  f7fffffe          BL       TEXT_SetTextColor
000226  2000              MOVS     r0,#0                 ;1507
                  |L7.552|
000228  f8085000          STRB     r5,[r8,r0]            ;1509
00022c  1c40              ADDS     r0,r0,#1              ;1507
00022e  b2c0              UXTB     r0,r0                 ;1507
000230  2805              CMP      r0,#5                 ;1507
000232  d3f9              BCC      |L7.552|
000234  2040              MOVS     r0,#0x40              ;1512
000236  e059              B        |L7.748|
                  |L7.568|
000238  4651              MOV      r1,r10                ;1519
00023a  f7fffffe          BL       WM_GetDialogItem
00023e  4604              MOV      r4,r0                 ;1519
000240  f06f4170          MVN      r1,#0xf0000000        ;1520
000244  f7fffffe          BL       TEXT_SetBkColor
000248  f06f417f          MVN      r1,#0xff000000        ;1521
00024c  4620              MOV      r0,r4                 ;1521
00024e  f7fffffe          BL       TEXT_SetTextColor
000252  6ab8              LDR      r0,[r7,#0x28]         ;1522  ; dis_gate_v
000254  ee000a10          VMOV     s0,r0                 ;1522
000258  eef80a40          VCVT.F32.U32 s1,s0                 ;1522
00025c  ee800a88          VDIV.F32 s0,s1,s16             ;1522
000260  ed870a08          VSTR     s0,[r7,#0x20]         ;1522
000264  ee100a10          VMOV     r0,s0                 ;1523
000268  f7fffffe          BL       __aeabi_f2d
00026c  ec410b10          VMOV     d0,r0,r1              ;1523
000270  a139              ADR      r1,|L7.856|
000272  ec532b10          VMOV     r2,r3,d0              ;1523
000276  4668              MOV      r0,sp                 ;1523
000278  f7fffffe          BL       __2sprintf
00027c  4669              MOV      r1,sp                 ;1524
00027e  4620              MOV      r0,r4                 ;1524
000280  f7fffffe          BL       TEXT_SetText
000284  4649              MOV      r1,r9                 ;1526
000286  6a78              LDR      r0,[r7,#0x24]         ;1526  ; hWinR
000288  f7fffffe          BL       WM_GetDialogItem
00028c  4604              MOV      r4,r0                 ;1526
00028e  4934              LDR      r1,|L7.864|
000290  f7fffffe          BL       TEXT_SetBkColor
000294  2100              MOVS     r1,#0                 ;1528
000296  4620              MOV      r0,r4                 ;1528
000298  f7fffffe          BL       TEXT_SetTextColor
00029c  f7fffffe          BL       Write_Limits
0002a0  203f              MOVS     r0,#0x3f              ;1531
                  |L7.674|
0002a2  71b8              STRB     r0,[r7,#6]            ;1531
0002a4  703e              STRB     r6,[r7,#0]            ;1532
0002a6  707d              STRB     r5,[r7,#1]            ;1533
0002a8  e717              B        |L7.218|
                  |L7.682|
0002aa  4649              MOV      r1,r9                 ;1540
0002ac  f7fffffe          BL       WM_GetDialogItem
0002b0  4604              MOV      r4,r0                 ;1540
0002b2  f06f4170          MVN      r1,#0xf0000000        ;1541
0002b6  f7fffffe          BL       TEXT_SetBkColor
0002ba  f06f417f          MVN      r1,#0xff000000        ;1542
0002be  4620              MOV      r0,r4                 ;1542
0002c0  f7fffffe          BL       TEXT_SetTextColor
0002c4  4651              MOV      r1,r10                ;1545
0002c6  6a78              LDR      r0,[r7,#0x24]         ;1545  ; hWinR
0002c8  f7fffffe          BL       WM_GetDialogItem
0002cc  4604              MOV      r4,r0                 ;1545
0002ce  4924              LDR      r1,|L7.864|
0002d0  f7fffffe          BL       TEXT_SetBkColor
0002d4  2100              MOVS     r1,#0                 ;1547
0002d6  4620              MOV      r0,r4                 ;1547
0002d8  f7fffffe          BL       TEXT_SetTextColor
0002dc  2000              MOVS     r0,#0                 ;1548
                  |L7.734|
0002de  f8085000          STRB     r5,[r8,r0]            ;1550
0002e2  1c40              ADDS     r0,r0,#1              ;1548
0002e4  b2c0              UXTB     r0,r0                 ;1548
0002e6  2805              CMP      r0,#5                 ;1548
0002e8  d3f9              BCC      |L7.734|
0002ea  2046              MOVS     r0,#0x46              ;1553
                  |L7.748|
0002ec  71b8              STRB     r0,[r7,#6]            ;1553
0002ee  e6f4              B        |L7.218|
                  |L7.752|
0002f0  4651              MOV      r1,r10                ;1560
0002f2  f7fffffe          BL       WM_GetDialogItem
0002f6  4680              MOV      r8,r0                 ;1560
0002f8  f06f4170          MVN      r1,#0xf0000000        ;1561
0002fc  f7fffffe          BL       TEXT_SetBkColor
000300  f06f417f          MVN      r1,#0xff000000        ;1562
000304  4640              MOV      r0,r8                 ;1562
000306  f7fffffe          BL       TEXT_SetTextColor
00030a  4622              MOV      r2,r4                 ;1563
00030c  a115              ADR      r1,|L7.868|
00030e  4668              MOV      r0,sp                 ;1563
000310  f7fffffe          BL       __2sprintf
000314  4669              MOV      r1,sp                 ;1564
000316  4640              MOV      r0,r8                 ;1564
000318  f7fffffe          BL       TEXT_SetText
00031c  4649              MOV      r1,r9                 ;1566
00031e  6a78              LDR      r0,[r7,#0x24]         ;1566  ; hWinR
000320  f7fffffe          BL       WM_GetDialogItem
000324  4604              MOV      r4,r0                 ;1566
000326  490e              LDR      r1,|L7.864|
000328  f7fffffe          BL       TEXT_SetBkColor
00032c  2100              MOVS     r1,#0                 ;1568
00032e  4620              MOV      r0,r4                 ;1568
000330  f7fffffe          BL       TEXT_SetTextColor
000334  f7fffffe          BL       Write_Limits
000338  2045              MOVS     r0,#0x45              ;1571
00033a  71b8              STRB     r0,[r7,#6]            ;1571
00033c  703e              STRB     r6,[r7,#0]            ;1572
00033e  707d              STRB     r5,[r7,#1]            ;1573
000340  f7fffffe          BL       Wrtite_step
000344  e6c9              B        |L7.218|
                  |L7.838|
000346  74be              STRB     r6,[r7,#0x12]         ;1583
000348  e6c5              B        |L7.214|
;;;1593   
                          ENDP

00034a  0000              DCW      0x0000
                  |L7.844|
                          DCD      ||.data||
                  |L7.848|
000350  447a0000          DCFS     0x447a0000 ; 1000
                  |L7.852|
                          DCD      Run_Control
                  |L7.856|
000358  252e3366          DCB      "%.3f",0
00035c  00      
00035d  00                DCB      0
00035e  00                DCB      0
00035f  00                DCB      0
                  |L7.864|
                          DCD      0x00bfffff
                  |L7.868|
000364  25346400          DCB      "%4d",0

                          AREA ||i.ResetR||, CODE, READONLY, ALIGN=2

                  ResetR PROC
;;;1219   
;;;1220   WM_HWIN ResetR(void) {
000000  b51c              PUSH     {r2-r4,lr}
;;;1221     hWinR = GUI_CreateDialogBox(_aDialogCreate, GUI_COUNTOF(_aDialogCreate), _cbDialog, WM_HBKWIN, 0, 0);
000002  f7fffffe          BL       WM_GetDesktopWindow
000006  4603              MOV      r3,r0
000008  2000              MOVS     r0,#0
00000a  9000              STR      r0,[sp,#0]
00000c  9001              STR      r0,[sp,#4]
00000e  4a04              LDR      r2,|L8.32|
000010  2120              MOVS     r1,#0x20
000012  4804              LDR      r0,|L8.36|
000014  f7fffffe          BL       GUI_CreateDialogBox
000018  4903              LDR      r1,|L8.40|
00001a  6248              STR      r0,[r1,#0x24]  ; hWinR
;;;1222     return hWinR;
;;;1223   }
00001c  bd1c              POP      {r2-r4,pc}
;;;1224   
                          ENDP

00001e  0000              DCW      0x0000
                  |L8.32|
                          DCD      _cbDialog
                  |L8.36|
                          DCD      ||.constdata||
                  |L8.40|
                          DCD      ||.data||

                          AREA ||i._cbDialog||, CODE, READONLY, ALIGN=2

                          REQUIRE _printf_pre_padding
                          REQUIRE _printf_percent
                          REQUIRE _printf_widthprec
                          REQUIRE _printf_d
                          REQUIRE _printf_int_dec
                          REQUIRE _printf_f
                          REQUIRE _printf_fp_dec
                          REQUIRE _printf_flags
                  _cbDialog PROC
;;;205    */
;;;206    static void _cbDialog(WM_MESSAGE * pMsg) {
000000  e92d4ff0          PUSH     {r4-r11,lr}
000004  ed2d8b08          VPUSH    {d8-d11}
000008  4604              MOV      r4,r0
00000a  b083              SUB      sp,sp,#0xc
;;;207        WM_HWIN hItem;
;;;208    //     int     NCode;
;;;209    //     int     Id;
;;;210        char  buf[5];
;;;211        float dis_init_c = (float)set_init_c/1000;
00000c  4dfe              LDR      r5,|L9.1032|
00000e  6da8              LDR      r0,[r5,#0x58]  ; Run_Control
000010  ee000a10          VMOV     s0,r0
000014  eeb80a40          VCVT.F32.U32 s0,s0
000018  ed9fbafc          VLDR     s22,|L9.1036|
;;;212        float dis_sbs_c = (float)set_sbs_c/1000;
00001c  6de8              LDR      r0,[r5,#0x5c]  ; Run_Control
00001e  ee808a0b          VDIV.F32 s16,s0,s22            ;211
000022  ee000a10          VMOV     s0,r0
;;;213        static vu8 led_sw = 0;
;;;214    
;;;215    
;;;216      // USER START (Optionally insert additional variables)
;;;217      // USER END
;;;218    //    int i;
;;;219            
;;;220    
;;;221    
;;;222      switch (pMsg->MsgId) {
000026  6820              LDR      r0,[r4,#0]
;;;223    		
;;;224    	case WM_PAINT:
;;;225    	GUI_SetColor(GUI_WHITE);//设置画笔颜色
;;;226    	GUI_FillRect(0,25,480,26);//画一条实线
;;;227        GUI_SetColor(GUI_ORANGE);
;;;228    	GUI_SetFont(&GUI_Fontsymbol);
;;;229    	GUI_UC_SetEncodeUTF8();
;;;230    	GUI_SetTextMode(GUI_TM_TRANS);//设置文本模式为底色透明
;;;231    	GUI_DispStringAt("Jinko", 5, 1);//SET
;;;232    	GUI_SetColor(GUI_WHITE);
;;;233    	GUI_SetFont(&GUI_FontHZ20S);
;;;234    	GUI_UC_SetEncodeUTF8();
;;;235    	GUI_SetTextMode(GUI_TM_TRANS);//设置文本模式为底色透明
;;;236    	GUI_DispStringAt("测量显示", 130, 3);//SET
;;;237        
;;;238        GUI_SetColor(GUI_GREEN);
;;;239        GUI_SetFont(&GUI_Fontunit);
;;;240        GUI_DispStringAt("°",342, 2);
;;;241        GUI_SetFont(&GUI_Font24_1);
;;;242        GUI_DispStringAt("C",350, 2);
;;;243    //    GUI_DispDecAt(R_VLUE,50,140,4);//显示内阻值
;;;244    //      GUI_GotoXY(220,4);
;;;245    //      GUI_DispDec(short_time,6);
;;;246        
;;;247    // 	GUI_SetColor(GUI_WHITE);//设置前景色为白色
;;;248    // 	GUI_SetFont(&GUI_FontD24x32);//
;;;249    // 	GUI_GotoXY(95,48);//
;;;250    // 	GUI_DispFloatFix(DISS_Voltage,5,2);//显示电压值
;;;251    //     
;;;252    //     if(R_VLUE == 0){
;;;253    //         GUI_SetFont(&GUI_Font24_1);
;;;254    //         GUI_DispStringAt("___", 130, 116);
;;;255    //     }
;;;256    //     else if(R_VLUE >= 1000){
;;;257    //         GUI_SetFont(&GUI_FontEN40);
;;;258    //         GUI_DispStringAt("OVER", 112, 120);
;;;259    //     }else{
;;;260    //         GUI_GotoXY(95,116);//
;;;261    //         GUI_DispDec(R_VLUE,count_num(R_VLUE));//显示内阻值
;;;262    //     }
;;;263        
;;;264    
;;;265        switch(para_set2){
;;;266                case set_2_on:
;;;267                {
;;;268    //                 GUI_SetFont(&GUI_FontD24x32);
;;;269    //                 GUI_GotoXY(95,184);//
;;;270    //                 GUI_DispFloatFix(DISS_Current,5,2);
;;;271                    GUI_SetFont(&GUI_FontEN40);
;;;272                    GUI_SetColor(GUI_LIGHTGRAY);
000028  f8df93e4          LDR      r9,|L9.1040|
00002c  eeb80a40          VCVT.F32.U32 s0,s0                 ;212
000030  4ff8              LDR      r7,|L9.1044|
000032  280f              CMP      r0,#0xf               ;222
000034  eec08a0b          VDIV.F32 s17,s0,s22            ;212
000038  d012              BEQ      |L9.96|
;;;273                    GUI_DispStringAt("I:", 28, 190);
;;;274                    GUI_DispStringAt("R:", 28, 120);
;;;275                    GUI_SetColor(GUI_LIGHTGRAY);
;;;276                    GUI_DispStringAt("A", 240, 187);
;;;277                    GUI_SetFont(&GUI_Font24_1);
;;;278                    GUI_SetColor(GUI_WHITE);
;;;279                    GUI_DispStringAt("A",460,75);
;;;280                    GUI_DispStringAt("A",460,100);
;;;281                    GUI_DispStringAt("V",460,125);
;;;282                    GUI_DispStringAt("ms",450,150);
;;;283                    GUI_DispStringAt("A",460,175);
;;;284                    GUI_DispStringAt("ms",450,200);
;;;285                    GUI_SetFont(&GUI_Fontset_font);
;;;286                    GUI_DispStringAt("负载电流", 300, 175);
;;;287                    GUI_DispStringAt("短路时间", 300, 200);//SET
;;;288    //                GUI_DispStringAt("过流测试", 340, 30);//SET
;;;289    //                 if(oc_data == 0)
;;;290    //                 {
;;;291    //                     GUI_SetFont(&GUI_Font24_1);
;;;292    //                     GUI_DispStringAt("__", 410, 140);
;;;293    
;;;294    //                 }else{
;;;295    //                     GUI_SetFont(&GUI_Font24_1);
;;;296    //                     GUI_GotoXY(400,150);//
;;;297    //                     GUI_DispFloatFix(oc_data,5,2);
;;;298    //                 }
;;;299                    break;
;;;300                }
;;;301                case set_2_off:
;;;302                {
;;;303                    break;
;;;304                }
;;;305        }
;;;306    	break;
;;;307    	case WM_TIMER://定时模块消息
;;;308    	if(WM_GetTimerId(pMsg->Data.v) == ID_TimerTime)
;;;309    	{
;;;310            if(manual == 0)
;;;311            {
;;;312                hItem = WM_GetDialogItem(pMsg->hWin, ID_TEXT_125);
;;;313                TEXT_SetTextColor(hItem, GUI_RED);//设置字体颜色
;;;314                TEXT_SetFont(hItem,&GUI_Font24_1);//设定文本字体
;;;315                GUI_UC_SetEncodeUTF8();        
;;;316                TEXT_SetText(hItem,"Range");
;;;317                hItem = WM_GetDialogItem(pMsg->hWin, ID_TEXT_126);       
;;;318                TEXT_SetText(hItem,"Auto");
;;;319                hItem = WM_GetDialogItem(pMsg->hWin, ID_TEXT_127);       
;;;320                TEXT_SetText(hItem,"");
;;;321                hItem = WM_GetDialogItem(pMsg->hWin, ID_TEXT_128);       
;;;322                TEXT_SetText(hItem,"");
;;;323                if(R_VLUE < 180 && DISS_Voltage > 1)
;;;324                {
;;;325                    GPIO_ResetBits(GPIOB,GPIO_Pin_13);//R_RALY低档位 
;;;326                    r_raly = 0;
;;;327                }else{
;;;328                    GPIO_SetBits(GPIOB,GPIO_Pin_13);//R_RALY高档位
;;;329                    r_raly = 1;
;;;330                }
;;;331            }else{
;;;332                hItem = WM_GetDialogItem(pMsg->hWin, ID_TEXT_125);
;;;333                TEXT_SetTextColor(hItem, GUI_RED);//设置字体颜色
;;;334                TEXT_SetFont(hItem,&GUI_Font24_1);//设定文本字体
;;;335                GUI_UC_SetEncodeUTF8();        
;;;336                TEXT_SetText(hItem,"Range");
;;;337                if(r_raly == 1)
;;;338                {
;;;339                    hItem = WM_GetDialogItem(pMsg->hWin, ID_TEXT_126);       
;;;340                    TEXT_SetText(hItem,"2000");
;;;341                    hItem = WM_GetDialogItem(pMsg->hWin, ID_TEXT_127);       
;;;342                    TEXT_SetText(hItem,"m");
;;;343                    hItem = WM_GetDialogItem(pMsg->hWin, ID_TEXT_128);       
;;;344                    TEXT_SetText(hItem,"Ω");
;;;345                }else{
;;;346                    hItem = WM_GetDialogItem(pMsg->hWin, ID_TEXT_126);       
;;;347                    TEXT_SetText(hItem,"200");
;;;348                    hItem = WM_GetDialogItem(pMsg->hWin, ID_TEXT_127);       
;;;349                    TEXT_SetText(hItem,"m");
;;;350                    hItem = WM_GetDialogItem(pMsg->hWin, ID_TEXT_128);       
;;;351                    TEXT_SetText(hItem,"Ω");
;;;352                }
;;;353            }
;;;354            
;;;355            
;;;356           
;;;357            
;;;358            if(para_set2 == set_2_on)
;;;359            {
;;;360                if(oc_mode == 0)
;;;361                {
;;;362                    GPIO_ResetBits(GPIOC,GPIO_Pin_10);//CC
;;;363                    flag_Load_CC = 1;
;;;364                    hItem = WM_GetDialogItem(pMsg->hWin, ID_TEXT_132);
;;;365                    TEXT_SetTextColor(hItem, GUI_WHITE);//设置字体颜色
;;;366                    TEXT_SetFont(hItem,&GUI_Font24_1);//设定文本字体
;;;367                    GUI_UC_SetEncodeUTF8();        
;;;368                    TEXT_SetText(hItem,"CC");
;;;369                }else if(oc_mode == 1){
;;;370                    GPIO_SetBits(GPIOC,GPIO_Pin_10);//CV
;;;371                    flag_Load_CC = 0;
;;;372                    hItem = WM_GetDialogItem(pMsg->hWin, ID_TEXT_132);
;;;373                    TEXT_SetTextColor(hItem, GUI_WHITE);//设置字体颜色
;;;374                    TEXT_SetFont(hItem,&GUI_Font24_1);//设定文本字体
;;;375                    GUI_UC_SetEncodeUTF8();        
;;;376                    TEXT_SetText(hItem,"CV");
;;;377                }
;;;378            
;;;379                if(short_finish == 1)
;;;380                {
;;;381                    if(gate_v == 0)
;;;382                    {
;;;383                        if(GUI_GetTime()/500 - test_ftime == 1)
;;;384                        {
;;;385                            setmode_r();
;;;386    //                         GPIO_ResetBits(GPIOB,GPIO_Pin_13);
;;;387    //                         Mode_SW_CONT(0x01);
;;;388                        }
;;;389                        if(/*mode_sw == mode_pow && */DISS_Voltage < 0.3  && GUI_GetTime()/500 - test_ftime > 1 /*&& R_VLUE < 50*/)
;;;390                        {
;;;391    //                         GPIO_ResetBits(GPIOB,GPIO_Pin_13);
;;;392    //                         Mode_SW_CONT(0x01);
;;;393                            setmode_r();
;;;394                            finish = 0;
;;;395                            con_flag = 0;
;;;396                            short_finish = 0;
;;;397                            test_finish = 0;
;;;398                            r_test = 0;
;;;399                            if(manual == 0)
;;;400                            {
;;;401                                GPIO_SetBits(GPIOB,GPIO_Pin_13);//R_RALY
;;;402                                r_raly=1;
;;;403                            }
;;;404                        }
;;;405                    }else{
;;;406                        if(GUI_GetTime()/500 - test_ftime == 2)
;;;407                        {
;;;408    //                         GPIO_ResetBits(GPIOB,GPIO_Pin_13);
;;;409    //                         Mode_SW_CONT(0x01);
;;;410                            setmode_r();
;;;411                        }
;;;412                        if(/* mode_sw == mode_pow && */(r_test == 0 || DISS_Voltage < gate_v) && GUI_GetTime()/500 - test_ftime > 1/*&& R_VLUE < 50*/)
;;;413                        { 
;;;414    //                         GPIO_ResetBits(GPIOB,GPIO_Pin_13);
;;;415    //                         Mode_SW_CONT(0x01);
;;;416                            setmode_r();
;;;417                            finish = 0;
;;;418                            con_flag = 0;
;;;419                            short_finish = 0;
;;;420                            test_finish = 0;
;;;421                            r_test = 0;
;;;422                            GPIO_SetBits(GPIOB,GPIO_Pin_13);//R_RALY
;;;423                            r_raly=1;
;;;424                        }
;;;425                    }                    
;;;426                }else{
;;;427                    if(para_set2 == set_2_on)
;;;428                    {
;;;429                        if(gate_v == 0)
;;;430                        {
;;;431                            if(DISS_Voltage > 1 && R_VLUE > 50 && con_flag == 0 && finish == 0)
;;;432                            {
;;;433                                con_flag = 1;
;;;434                                time1 = (float)GUI_GetTime()/500.0;
;;;435                            }
;;;436                            
;;;437                            if(con_flag == 1 && oct_sw == oct_off && finish == 0)
;;;438                            {
;;;439                                 if((float)(GUI_GetTime()/500.0 - time1) > 1.5)
;;;440                                {
;;;441                                    r = R_VLUE;
;;;442                                    v = DISS_Voltage;
;;;443                                    oct_sw = oct_on;
;;;444                                    clear_flag1 = 0;
;;;445                                }
;;;446                            }
;;;447                        }else{
;;;448                            if(DISS_Voltage > gate_v && R_VLUE > 50 && con_flag == 0 && finish == 0 && r_test == 1)
;;;449                            {
;;;450                                con_flag = 1;
;;;451                                time1 = (float)GUI_GetTime()/500.0;
;;;452                            }                       
;;;453                            if(con_flag == 1 && oct_sw == oct_off && finish == 0)
;;;454                            {
;;;455                                 if((float)(GUI_GetTime()/500.0 - time1) > 1.5)
;;;456                                 {
;;;457                                    r = R_VLUE;
;;;458                                    v = DISS_Voltage;
;;;459                                    oct_sw = oct_on;
;;;460                                    clear_flag1 = 0;
;;;461                                 }
;;;462                            }
;;;463                        }
;;;464                    }
;;;465                    
;;;466                }
;;;467                
;;;468                
;;;469                
;;;470                if(oct_sw == oct_on && para_set2 == set_2_on)
;;;471                {
;;;472    //                 Mode_SW_CONT(0x02);
;;;473    //                 GPIO_ResetBits(GPIOC,GPIO_Pin_1);
;;;474                    GPIO_ResetBits(GPIOC,GPIO_Pin_1);//关闭电源输出
;;;475                    GPIO_SetBits(GPIOC,GPIO_Pin_13);//关闭电源输出继电器
;;;476    //                GPIO_ResetBits(GPIOC,GPIO_Pin_12);//CC
;;;477                    GPIO_ResetBits(GPIOA,GPIO_Pin_15);//电子负载On
;;;478                    oc_test = 1;
;;;479                    hItem = WM_GetDialogItem(pMsg->hWin, ID_TEXT_81);
;;;480                    TEXT_SetFont(hItem,&GUI_FontD24x32);
;;;481                    sprintf(buf,"%4d",r);       
;;;482                    TEXT_SetText(hItem,buf);
;;;483                    
;;;484        //             if(status_flash == 0){
;;;485                        hItem = WM_GetDialogItem(pMsg->hWin, ID_TEXT_98);
;;;486                        TEXT_SetTextColor(hItem, GUI_RED);
;;;487                        TEXT_SetText(hItem, "测试中");
;;;488    //                    status_flash = 1;
;;;489                        
;;;490        //             }else{
;;;491        //                 hItem = WM_GetDialogItem(pMsg->hWin, ID_TEXT_98);
;;;492        //                 TEXT_SetText(hItem,"");
;;;493        //                 status_flash = 0;
;;;494        //             }
;;;495                    
;;;496                }else
;;;497                {
;;;498                    hItem = WM_GetDialogItem(pMsg->hWin, ID_TEXT_98);
;;;499                    TEXT_SetTextColor(hItem, GUI_WHITE);
;;;500                    TEXT_SetText(hItem, "未测试");
;;;501                }
;;;502                
;;;503                if(oct_sw == oct_off && finish == 0)
;;;504                {
;;;505                    if(DISS_Voltage > 1 && r_stable == 0)
;;;506                    {
;;;507                        r_stable = 1;
;;;508                        stable_time = GUI_GetTime()/500;
;;;509                    }else if(DISS_Voltage < 1){
;;;510                        r_stable = 0;
;;;511                    }                    
;;;512                    if(clear_flag1 == 1 && DISS_Voltage <= clear_v)
;;;513                    {
;;;514                        hItem = WM_GetDialogItem(pMsg->hWin, ID_TEXT_80);
;;;515                        sprintf(buf,"%.3f",0.000);       
00003a  ed9f9bf7          VLDR     d9,|L9.1048|
00003e  f8dfa3e0          LDR      r10,|L9.1056|
000042  4ef8              LDR      r6,|L9.1060|
000044  281d              CMP      r0,#0x1d              ;222
000046  d07d              BEQ      |L9.324|
000048  f5a07080          SUB      r0,r0,#0x100          ;222
00004c  3813              SUBS     r0,r0,#0x13           ;222
00004e  d07a              BEQ      |L9.326|
;;;516                        TEXT_SetText(hItem,buf);
;;;517                    }else{
;;;518                        hItem = WM_GetDialogItem(pMsg->hWin, ID_TEXT_80);
;;;519                        sprintf(buf,"%.3f",DISS_Voltage);       
;;;520                        TEXT_SetText(hItem,buf);
;;;521                    }
;;;522                    if(clear_flag1 == 1 && R_VLUE <= clear_r)
;;;523                    {
;;;524                        hItem = WM_GetDialogItem(pMsg->hWin, ID_TEXT_81);
;;;525                        sprintf(buf,"%4d",0);       
;;;526                        TEXT_SetText(hItem,buf);
;;;527                    }
;;;528                    else if(R_VLUE >= 2000)
;;;529                    {
;;;530                        hItem = WM_GetDialogItem(pMsg->hWin, ID_TEXT_81);
;;;531                        TEXT_SetFont(hItem,&GUI_FontEN40);//设定文本字体
;;;532                        TEXT_SetText(hItem,"");
;;;533                    }else{
;;;534                            if(GUI_GetTime()/500 - stable_time == 1 && r_stable == 1)
;;;535                            {
;;;536                                r = R_VLUE;
;;;537                                hItem = WM_GetDialogItem(pMsg->hWin, ID_TEXT_81);
;;;538                                TEXT_SetFont(hItem,&GUI_FontD24x32);
;;;539                                sprintf(buf,"%4d",r);       
;;;540                                TEXT_SetText(hItem,buf);
;;;541                            }else if(r_stable == 0)
;;;542                            {
;;;543                                if(DISS_Voltage < 0.3)
;;;544                                {
;;;545                                    if(para_set1 == set_1_on)
;;;546                                    {
;;;547                                        GPIO_ResetBits(GPIOD,GPIO_Pin_12);
;;;548                                        TM1650_SET_LED(0x48,0x71);
;;;549                                        TM1650_SET_LED(0x68,0xF2);//PASS灯
;;;550                                    }
;;;551                                    hItem = WM_GetDialogItem(pMsg->hWin, ID_TEXT_81);
;;;552                                    TEXT_SetFont(hItem,&GUI_FontD24x32);
;;;553                                    TEXT_SetTextColor(hItem, GUI_GREEN);
;;;554                                    sprintf(buf,"%4d",0);       
;;;555                                    TEXT_SetText(hItem,buf);
;;;556                                }else{
;;;557                                    
;;;558                                    hItem = WM_GetDialogItem(pMsg->hWin, ID_TEXT_81);
;;;559                                    TEXT_SetFont(hItem,&GUI_FontD24x32);
;;;560                                    
;;;561                                    sprintf(buf,"%4d",R_VLUE);       
;;;562                                    TEXT_SetText(hItem,buf);
;;;563                                }
;;;564                            }                        
;;;565                    }
;;;566                    short_time = 0;
;;;567                    hItem = WM_GetDialogItem(pMsg->hWin, ID_TEXT_117);
;;;568                    sprintf(buf,"%4d",short_time);
;;;569                    TEXT_SetFont(hItem,&GUI_Font24_1);//设定文本字体      
;;;570                    TEXT_SetText(hItem,buf);
;;;571                    
;;;572                    oc_data = 0;
;;;573                    hItem = WM_GetDialogItem(pMsg->hWin, ID_TEXT_82);
;;;574                    sprintf(buf,"%.3f",oc_data);
;;;575                    TEXT_SetText(hItem,buf);
;;;576                }else{
;;;577                    if(para_set2 == set_2_on)
;;;578                    {
;;;579                        hItem = WM_GetDialogItem(pMsg->hWin, ID_TEXT_80);
;;;580                        sprintf(buf,"%.3f",v);       
;;;581                        TEXT_SetText(hItem,buf);
;;;582                        
;;;583                        hItem = WM_GetDialogItem(pMsg->hWin, ID_TEXT_81);
;;;584                        TEXT_SetFont(hItem,&GUI_FontD24x32);
;;;585                        sprintf(buf,"%4d",r);       
;;;586                        TEXT_SetText(hItem,buf);
;;;587                        
;;;588                        hItem = WM_GetDialogItem(pMsg->hWin, ID_TEXT_117);
;;;589                        sprintf(buf,"%4d",short_time);
;;;590                        TEXT_SetFont(hItem,&GUI_Font24_1);//设定文本字体      
;;;591                        TEXT_SetText(hItem,buf);
;;;592                        
;;;593                        if(short_finish == 0 ){
;;;594                            if(DISS_Voltage < 1 && short_flag == 0 && oct_sw == oct_off)
;;;595                            {
;;;596                                SET_Voltage =3000;
;;;597                                SET_Current = 1000;
;;;598    //                             Mode_SW_CONT(0x03);
;;;599                                GPIO_SetBits(GPIOA,GPIO_Pin_15);//电子负载OFF
;;;600                                GPIO_ResetBits(GPIOC,GPIO_Pin_13);//打开电源输出继电器
;;;601                                GPIO_SetBits(GPIOC,GPIO_Pin_1);//打开电源输出
;;;602    //                             //GPIO_ResetBits(GPIOB,GPIO_Pin_13);
;;;603                            }else if(DISS_Voltage > 1 && oct_sw == oct_off && short_flag == 0){
;;;604                                
;;;605    //                             Mode_SW_CONT(0x02);
;;;606                                SET_Current_Laod = (int)(oc_data*1000) + 5000;
;;;607                                short_flag =1;
;;;608                                short_start = GUI_GetTime()*2;
;;;609                            }
;;;610                            if(short_flag == 1)
;;;611                            {
;;;612                                GPIO_ResetBits(GPIOC,GPIO_Pin_1);//关闭电源输出
;;;613                                GPIO_SetBits(GPIOC,GPIO_Pin_13);//关闭电源输出继电器
;;;614                                GPIO_ResetBits(GPIOA,GPIO_Pin_15);//电子负载On
;;;615    //                             GPIO_ResetBits(GPIOC,GPIO_Pin_1);
;;;616                                if(DISS_Voltage < 1){
;;;617                                    SET_Current_Laod = set_init_c;
;;;618                                    short_time = GUI_GetTime()*2 - short_start;
;;;619                                    short_flag = 0;
;;;620                                    short_finish = 1;
;;;621                                    hItem = WM_GetDialogItem(pMsg->hWin, ID_TEXT_117);
;;;622                                    sprintf(buf,"%4d",short_time);     
;;;623                                    TEXT_SetText(hItem,buf);
;;;624                                }
;;;625                            }
;;;626                        }
;;;627                        if(short_finish == 1 && test_finish == 0)
;;;628                        {
;;;629                            GPIO_SetBits(GPIOA,GPIO_Pin_15);//电子负载OFF
;;;630                            //GPIO_SetBits(GPIOC,GPIO_Pin_1);
;;;631    //                         Mode_SW_CONT(0x03);
;;;632                            SET_Voltage = 3000;
;;;633                            SET_Current = 1000;
;;;634                            GPIO_ResetBits(GPIOC,GPIO_Pin_13);//打开电源输出继电器
;;;635                            GPIO_SetBits(GPIOC,GPIO_Pin_1);//打开电源输出
;;;636                            
;;;637                            
;;;638    //                         GPIO_ResetBits(GPIOB,GPIO_Pin_13);                                                
;;;639    // //                         Mode_SW_CONT(0x01);
;;;640                            
;;;641                            test_ftime = GUI_GetTime()/500;
;;;642                            test_finish = 1;
;;;643                        } 
;;;644                        
;;;645                    }
;;;646                    
;;;647                    
;;;648                    
;;;649        //             if(R_VLUE >= 1000)
;;;650        //             {
;;;651        //                 hItem = WM_GetDialogItem(pMsg->hWin, ID_TEXT_81);
;;;652        //                 TEXT_SetFont(hItem,&GUI_FontEN40);//设定文本字体
;;;653        //                 TEXT_SetText(hItem,"");
;;;654        //             }else{
;;;655                        
;;;656        //             }
;;;657                }
;;;658                
;;;659                
;;;660                
;;;661                
;;;662                        
;;;663                hItem = WM_GetDialogItem(pMsg->hWin, ID_TEXT_82);
;;;664                sprintf(buf,"%.3f",oc_data);
;;;665                TEXT_SetText(hItem,buf);
;;;666                
;;;667                hItem = WM_GetDialogItem(pMsg->hWin, ID_TEXT_83);
;;;668                sprintf(buf,"%.3f",DISS_Current);
;;;669                TEXT_SetText(hItem,buf); 
;;;670            }else{
;;;671    //             GPIO_ResetBits(GPIOC,GPIO_Pin_1);//关闭电源输出
;;;672    //             GPIO_SetBits(GPIOA,GPIO_Pin_15);//电子负载OFF
;;;673                if(DISS_Voltage > 1 && r_stable == 0)
;;;674                {
;;;675                    r_stable = 1;
;;;676                    stable_time = GUI_GetTime()/500;
;;;677                }else if(DISS_Voltage < 1){
;;;678                    r_stable = 0;
;;;679                    if(manual == 0)
;;;680                    {
;;;681                        GPIO_SetBits(GPIOB,GPIO_Pin_13);//R_RALY高档位
;;;682                        r_raly = 1;
;;;683                    }
;;;684                }
;;;685                    
;;;686                if(clear_flag1 == 1 && DISS_Voltage <= clear_v)
;;;687                    {
;;;688                        hItem = WM_GetDialogItem(pMsg->hWin, ID_TEXT_80);
;;;689                        sprintf(buf,"%.3f",0.000);       
;;;690                        TEXT_SetText(hItem,buf);
;;;691                    }else{
;;;692                        hItem = WM_GetDialogItem(pMsg->hWin, ID_TEXT_80);
;;;693                        sprintf(buf,"%.3f",DISS_Voltage);       
;;;694                        TEXT_SetText(hItem,buf);
;;;695                    }
;;;696                    if(clear_flag1 == 1 && R_VLUE <= clear_r)
;;;697                    {
;;;698                        hItem = WM_GetDialogItem(pMsg->hWin, ID_TEXT_81);
;;;699                        sprintf(buf,"%4d",0);       
;;;700                        TEXT_SetText(hItem,buf);
;;;701                    }
;;;702                    else if(R_VLUE >= 2000)
;;;703                    {
;;;704                        hItem = WM_GetDialogItem(pMsg->hWin, ID_TEXT_81);
;;;705                        TEXT_SetFont(hItem,&GUI_FontEN40);//设定文本字体
;;;706                        TEXT_SetText(hItem,"");
;;;707                    }else{
;;;708                        if(GUI_GetTime()/500 - stable_time == 1 && r_stable == 1)
;;;709                        {
;;;710                            r = R_VLUE;
;;;711                            hItem = WM_GetDialogItem(pMsg->hWin, ID_TEXT_81);
;;;712                            TEXT_SetFont(hItem,&GUI_FontD24x32);
;;;713                            sprintf(buf,"%4d",r);       
;;;714                            TEXT_SetText(hItem,buf);
;;;715                        }else if(r_stable == 0)
;;;716                        {
;;;717                            if(DISS_Voltage < 0.3)
;;;718                                {
;;;719                                    if(para_set1 == set_1_on)
;;;720                                    {
;;;721                                        GPIO_ResetBits(GPIOD,GPIO_Pin_12);
;;;722                                        TM1650_SET_LED(0x48,0x71);
;;;723                                        TM1650_SET_LED(0x68,0xF2);//PASS灯
;;;724                                    }
;;;725                                    hItem = WM_GetDialogItem(pMsg->hWin, ID_TEXT_81);
;;;726                                    TEXT_SetFont(hItem,&GUI_FontD24x32);
;;;727                                    TEXT_SetTextColor(hItem, GUI_GREEN);
;;;728                                    sprintf(buf,"%4d",0);       
;;;729                                    TEXT_SetText(hItem,buf);
;;;730                                }else{
;;;731                                    
;;;732                                    hItem = WM_GetDialogItem(pMsg->hWin, ID_TEXT_81);
;;;733                                    TEXT_SetFont(hItem,&GUI_FontD24x32);
;;;734                                    
;;;735                                    sprintf(buf,"%4d",R_VLUE);       
;;;736                                    TEXT_SetText(hItem,buf);
;;;737                                }
;;;738                        }
;;;739                    }
;;;740                
;;;741            }
;;;742                   
;;;743    
;;;744    
;;;745            if(para_set1 == set_1_on && oct_sw == oct_off && DISS_Voltage > 1)
;;;746            {
;;;747                 test_r();
;;;748            }else if(led_sw == 0)
;;;749            {
;;;750                TM1650_SET_LED(0x68,0x70);
;;;751                GPIO_ResetBits(GPIOD,GPIO_Pin_12);//灭灯
;;;752                led_sw = 1;
;;;753            }
;;;754    
;;;755            
;;;756            if(oct_sw == oct_off)
;;;757            {
;;;758                switch(b_type)
;;;759                {
;;;760                    case Lion:
;;;761                    {
;;;762                        if(R_VLUE != 0  && DISS_Voltage >= 3.4 && DISS_Voltage <= 4.2)
;;;763                        {
;;;764                            hItem = WM_GetDialogItem(pMsg->hWin, ID_TEXT_96);
;;;765                            TEXT_SetTextColor(hItem, GUI_WHITE);//设置字体颜色      
;;;766                            TEXT_SetText(hItem,"锂电池");
;;;767                        }else{
;;;768                            hItem = WM_GetDialogItem(pMsg->hWin, ID_TEXT_96);
;;;769                            TEXT_SetTextColor(hItem, GUI_RED);//设置字体颜色      
;;;770                            TEXT_SetText(hItem,"");
;;;771                        }
;;;772                        break;
;;;773                    }
;;;774                    case NiMH:
;;;775                    {
;;;776                        if(R_VLUE != 0  && DISS_Voltage >= 0.9 && DISS_Voltage <= 1.4)
;;;777                        {
;;;778                            hItem = WM_GetDialogItem(pMsg->hWin, ID_TEXT_96);
;;;779                            TEXT_SetTextColor(hItem, GUI_WHITE);//设置字体颜色      
;;;780                            TEXT_SetText(hItem,"镍氢电池");
;;;781                        }else{
;;;782                            hItem = WM_GetDialogItem(pMsg->hWin, ID_TEXT_96);
;;;783                            TEXT_SetTextColor(hItem, GUI_RED);//设置字体颜色      
;;;784                            TEXT_SetText(hItem,"");
;;;785                        }
;;;786                        break;
;;;787                    }
;;;788                    case NiCd:
;;;789                    {
;;;790                        if(R_VLUE != 0 && DISS_Voltage >= 0.9 && DISS_Voltage <= 1.4)
;;;791                        {
;;;792                            hItem = WM_GetDialogItem(pMsg->hWin, ID_TEXT_96);
;;;793                            TEXT_SetTextColor(hItem, GUI_WHITE);//设置字体颜色      
;;;794                            TEXT_SetText(hItem,"镍镉电池");
;;;795                        }else{
;;;796                            hItem = WM_GetDialogItem(pMsg->hWin, ID_TEXT_96);
;;;797                            TEXT_SetTextColor(hItem, GUI_RED);//设置字体颜色      
;;;798                            TEXT_SetText(hItem,"");
;;;799                        }
;;;800                        break;
;;;801                    }
;;;802                    case SLA:
;;;803                    {
;;;804                        if(R_VLUE != 0  && DISS_Voltage >= 1.8 && DISS_Voltage <= 2.4)
;;;805                        {
;;;806                            hItem = WM_GetDialogItem(pMsg->hWin, ID_TEXT_96);
;;;807                            TEXT_SetTextColor(hItem, GUI_WHITE);//设置字体颜色      
;;;808                            TEXT_SetText(hItem,"小型铅酸电池");
;;;809                        }else{
;;;810                            hItem = WM_GetDialogItem(pMsg->hWin, ID_TEXT_96);
;;;811                            TEXT_SetTextColor(hItem, GUI_RED);//设置字体颜色      
;;;812                            TEXT_SetText(hItem,"");
;;;813                        }
;;;814                        break;
;;;815                    }
;;;816                    case LiMH:
;;;817                    {
;;;818                        if(R_VLUE != 0  && DISS_Voltage >= 2.8 && DISS_Voltage <= 3.3)
;;;819                        {
;;;820                            hItem = WM_GetDialogItem(pMsg->hWin, ID_TEXT_96);
;;;821                            TEXT_SetTextColor(hItem, GUI_WHITE);//设置字体颜色      
;;;822                            TEXT_SetText(hItem,"锂锰电池");
;;;823                        }else{
;;;824                            hItem = WM_GetDialogItem(pMsg->hWin, ID_TEXT_96);
;;;825                            TEXT_SetTextColor(hItem, GUI_RED);//设置字体颜色      
;;;826                            TEXT_SetText(hItem,"");
;;;827                        }
;;;828                        break;
;;;829                    }
;;;830                }
;;;831            }
;;;832    
;;;833            hItem = WM_GetDialogItem(pMsg->hWin, ID_TEXT_124);       
;;;834            sprintf(buf,"%.1f",temp);
;;;835            TEXT_SetText(hItem,buf);
;;;836    //         
;;;837    //        WM_InvalidateWindow(hWinR);
;;;838    		WM_RestartTimer(pMsg->Data.v, 50);//复位定时器数值越大刷新时间越短
;;;839    	}
;;;840    	break;
;;;841        
;;;842    		
;;;843      case WM_INIT_DIALOG:
;;;844        //
;;;845        // Initialization of 'R'
;;;846    	
;;;847        //
;;;848            hItem = pMsg->hWin;
;;;849            WINDOW_SetBkColor(hItem, GUI_BLACK);
;;;850    		WM_CreateTimer(hItem,ID_TimerTime,500,0);//创建本窗口定时器  
;;;851            
;;;852    	
;;;853    	
;;;854    		hItem = WM_GetDialogItem(pMsg->hWin, ID_BUTTON_13);
;;;855    //		BUTTON_SetTextColor(hItem,0,GUI_WHITE);//设置字体颜色为黑色
;;;856    //        BUTTON_SetBkColor(hItem,BUTTON_CI_PRESSED,GUI_BLUE);
;;;857            BUTTON_SetPressed(hItem,1);
;;;858    		BUTTON_SetFont      (hItem,    &GUI_FontHZ16);//设定按钮文本字体
;;;859    		GUI_UC_SetEncodeUTF8();
;;;860    		BUTTON_SetText(hItem,"内阻测试");
;;;861    	
;;;862    		hItem = WM_GetDialogItem(pMsg->hWin, ID_BUTTON_14);
;;;863    //		BUTTON_SetTextColor(hItem,0,GUI_BLACK);//设置字体颜色为黑色
;;;864    		BUTTON_SetFont      (hItem,    &GUI_FontHZ16);//设定按钮文本字体
;;;865    		GUI_UC_SetEncodeUTF8();
;;;866    		BUTTON_SetText(hItem,"程控负载");
;;;867    		
;;;868    		hItem = WM_GetDialogItem(pMsg->hWin, ID_BUTTON_15);
;;;869    //		BUTTON_SetTextColor(hItem,0,GUI_BLACK);//设置字体颜色为黑色
;;;870    		BUTTON_SetFont      (hItem,    &GUI_FontHZ16);//设定按钮文本字体
;;;871    		GUI_UC_SetEncodeUTF8();
;;;872    		BUTTON_SetText(hItem,"程控电源");
;;;873    		
;;;874    		hItem = WM_GetDialogItem(pMsg->hWin, ID_BUTTON_16);
;;;875    //		BUTTON_SetTextColor(hItem,0,GUI_BLACK);//设置字体颜色为黑色
;;;876    		BUTTON_SetFont      (hItem,    &GUI_FontHZ16);//设定按钮文本字体
;;;877    		GUI_UC_SetEncodeUTF8();
;;;878    		BUTTON_SetText(hItem,"充放电");
;;;879            
;;;880            
;;;881    		
;;;882    		hItem = WM_GetDialogItem(pMsg->hWin, ID_BUTTON_17);
;;;883    //		BUTTON_SetTextColor(hItem,0,GUI_BLACK);//设置字体颜色为黑色
;;;884    		BUTTON_SetFont      (hItem,&GUI_FontHZ16);//设定按钮文本字体
;;;885    		GUI_UC_SetEncodeUTF8();
;;;886    		BUTTON_SetText(hItem,"曲线");
;;;887    		
;;;888        // Initialization of 'Text'
;;;889        //
;;;890            hItem = WM_GetDialogItem(pMsg->hWin, ID_TEXT_0);
;;;891            TEXT_SetTextColor(hItem, GUI_LIGHTGRAY);
;;;892            TEXT_SetFont(hItem,&GUI_FontEN40);//设定文本字体
;;;893            GUI_UC_SetEncodeUTF8();
;;;894    		TEXT_SetText(hItem,"V:");
;;;895        //
;;;896        // Initialization of 'Text'
;;;897        //
;;;898        //
;;;899        // Initialization of 'Text'
;;;900        //
;;;901    		hItem = WM_GetDialogItem(pMsg->hWin, ID_TEXT_3);
;;;902    		TEXT_SetText(hItem, "V");
;;;903            TEXT_SetTextColor(hItem, GUI_LIGHTGRAY);
;;;904            TEXT_SetFont(hItem, &GUI_FontEN40);
;;;905        //
;;;906        // Initialization of 'Text'
;;;907        //
;;;908            hItem = WM_GetDialogItem(pMsg->hWin, ID_TEXT_4);
;;;909    		GUI_UC_SetEncodeUTF8();
;;;910    		TEXT_SetText(hItem, "Ω");
;;;911            TEXT_SetTextColor(hItem, GUI_LIGHTGRAY);
;;;912    		TEXT_SetFont(hItem,&GUI_FontHZ32);//设定按钮文本字体
;;;913        //
;;;914        // Initialization of 'Text'
;;;915        //		
;;;916    		hItem = WM_GetDialogItem(pMsg->hWin, ID_TEXT_6);
;;;917            GUI_UC_SetEncodeUTF8();
;;;918    		TEXT_SetText(hItem, "m");
;;;919            TEXT_SetTextColor(hItem, GUI_LIGHTGRAY);
;;;920    		TEXT_SetFont(hItem, &GUI_FontEN40);
;;;921            
;;;922            hItem = WM_GetDialogItem(pMsg->hWin, ID_TEXT_80);
;;;923            sprintf(buf,"%.3f",DISS_Voltage);
;;;924            TEXT_SetTextColor(hItem, GUI_GREEN);//设置字体颜色
;;;925            TEXT_SetFont(hItem,&GUI_FontD24x32);//设定文本字体
;;;926            GUI_UC_SetEncodeUTF8();        
;;;927            TEXT_SetText(hItem,buf);
;;;928                
;;;929            hItem = WM_GetDialogItem(pMsg->hWin, ID_TEXT_81);
;;;930            sprintf(buf,"%04d",0);
;;;931            TEXT_SetTextColor(hItem, GUI_GREEN);//设置字体颜色
;;;932            TEXT_SetFont(hItem,&GUI_FontD24x32);//设定文本字体
;;;933            GUI_UC_SetEncodeUTF8();        
;;;934            TEXT_SetText(hItem,buf);
;;;935            
;;;936            hItem = WM_GetDialogItem(pMsg->hWin, ID_TEXT_96);
;;;937            TEXT_SetTextColor(hItem, GUI_WHITE);//设置字体颜色
;;;938            TEXT_SetFont(hItem,&GUI_Fontset_font);//设定文本字体
;;;939            GUI_UC_SetEncodeUTF8();        
;;;940            TEXT_SetText(hItem,"");
;;;941            
;;;942            hItem = WM_GetDialogItem(pMsg->hWin, ID_TEXT_124);
;;;943            TEXT_SetTextColor(hItem, GUI_GREEN);//设置字体颜色
;;;944            TEXT_SetFont(hItem,&GUI_Font24_1);//设定文本字体       
;;;945            sprintf(buf,"%.1f",temp);
;;;946            TEXT_SetText(hItem,buf);
;;;947            
;;;948            if(manual == 0)
;;;949                    {
;;;950                        hItem = WM_GetDialogItem(pMsg->hWin, ID_TEXT_125);
;;;951                        TEXT_SetTextColor(hItem, GUI_RED);//设置字体颜色
;;;952                        TEXT_SetFont(hItem,&GUI_Font24_1);//设定文本字体
;;;953                        GUI_UC_SetEncodeUTF8();        
;;;954                        TEXT_SetText(hItem,"Range");
;;;955                        hItem = WM_GetDialogItem(pMsg->hWin, ID_TEXT_126);
;;;956                        TEXT_SetTextColor(hItem, GUI_RED);//设置字体颜色
;;;957                        TEXT_SetFont(hItem,&GUI_Font24_1);//设定文本字体
;;;958                        GUI_UC_SetEncodeUTF8();        
;;;959                        TEXT_SetText(hItem,"Auto");
;;;960                        
;;;961                        hItem = WM_GetDialogItem(pMsg->hWin, ID_TEXT_127);
;;;962                        TEXT_SetTextColor(hItem, GUI_RED);//设置字体颜色
;;;963                        TEXT_SetFont(hItem,&GUI_Font24_1);//设定文本字体
;;;964                        GUI_UC_SetEncodeUTF8(); 
;;;965                        TEXT_SetText(hItem,"");
;;;966                        hItem = WM_GetDialogItem(pMsg->hWin, ID_TEXT_128);
;;;967                        TEXT_SetTextColor(hItem, GUI_RED);//设置字体颜色
;;;968                        TEXT_SetFont(hItem,&GUI_FontHZ16);//设定文本字体
;;;969                        GUI_UC_SetEncodeUTF8();                         
;;;970                        TEXT_SetText(hItem,"");  
;;;971                            
;;;972                    }else{
;;;973                        hItem = WM_GetDialogItem(pMsg->hWin, ID_TEXT_125);
;;;974                        TEXT_SetTextColor(hItem, GUI_RED);//设置字体颜色
;;;975                        TEXT_SetFont(hItem,&GUI_Font24_1);//设定文本字体
;;;976                        GUI_UC_SetEncodeUTF8();        
;;;977                        TEXT_SetText(hItem,"Range");
;;;978                        
;;;979                        if(r_raly == 1)
;;;980                        {
;;;981                            hItem = WM_GetDialogItem(pMsg->hWin, ID_TEXT_126);
;;;982                            TEXT_SetTextColor(hItem, GUI_RED);//设置字体颜色
;;;983                            TEXT_SetFont(hItem,&GUI_Font24_1);//设定文本字体
;;;984                            GUI_UC_SetEncodeUTF8();        
;;;985                            TEXT_SetText(hItem,"2000"); 
;;;986    
;;;987                            hItem = WM_GetDialogItem(pMsg->hWin, ID_TEXT_127);
;;;988                            TEXT_SetTextColor(hItem, GUI_RED);//设置字体颜色
;;;989                            TEXT_SetFont(hItem,&GUI_Font24_1);//设定文本字体
;;;990                            GUI_UC_SetEncodeUTF8(); 
;;;991                            TEXT_SetText(hItem,"m");
;;;992                            hItem = WM_GetDialogItem(pMsg->hWin, ID_TEXT_128);
;;;993                            TEXT_SetTextColor(hItem, GUI_RED);//设置字体颜色
;;;994                            TEXT_SetFont(hItem,&GUI_FontHZ16);//设定文本字体
;;;995                            GUI_UC_SetEncodeUTF8();                         
;;;996                            TEXT_SetText(hItem,"Ω");                        
;;;997                        }else{
;;;998                            hItem = WM_GetDialogItem(pMsg->hWin, ID_TEXT_126);
;;;999                            TEXT_SetTextColor(hItem, GUI_RED);//设置字体颜色
;;;1000                           TEXT_SetFont(hItem,&GUI_Font24_1);//设定文本字体
;;;1001                           GUI_UC_SetEncodeUTF8();        
;;;1002                           TEXT_SetText(hItem,"200");
;;;1003                           
;;;1004                           hItem = WM_GetDialogItem(pMsg->hWin, ID_TEXT_127);
;;;1005                           TEXT_SetTextColor(hItem, GUI_RED);//设置字体颜色
;;;1006                           TEXT_SetFont(hItem,&GUI_Font24_1);//设定文本字体
;;;1007                           GUI_UC_SetEncodeUTF8(); 
;;;1008                           TEXT_SetText(hItem,"m");
;;;1009                           hItem = WM_GetDialogItem(pMsg->hWin, ID_TEXT_128);
;;;1010                           TEXT_SetTextColor(hItem, GUI_RED);//设置字体颜色
;;;1011                           TEXT_SetFont(hItem,&GUI_FontHZ16);//设定文本字体
;;;1012                           GUI_UC_SetEncodeUTF8();                         
;;;1013                           TEXT_SetText(hItem,"Ω");  
;;;1014                       }
;;;1015                   }
;;;1016           
;;;1017           switch(para_set2){
;;;1018               case set_2_on:
;;;1019               {
;;;1020                   hItem = WM_GetDialogItem(pMsg->hWin, ID_TEXT_1);
;;;1021                   GUI_UC_SetEncodeUTF8();
;;;1022                   TEXT_SetText(hItem, "过流模式");
;;;1023                   TEXT_SetBkColor(hItem,0x00BFFFFF);
;;;1024                   TEXT_SetTextColor(hItem, GUI_BLACK);
;;;1025                   TEXT_SetFont(hItem, &GUI_Fontset_font);
;;;1026                   
;;;1027                   hItem = WM_GetDialogItem(pMsg->hWin, ID_TEXT_43);
;;;1028                   GUI_UC_SetEncodeUTF8();
;;;1029                   TEXT_SetText(hItem, "步进时间");
;;;1030                   TEXT_SetTextColor(hItem, GUI_WHITE);
;;;1031                   TEXT_SetFont(hItem, &GUI_Fontset_font);
;;;1032                   
;;;1033                   hItem = WM_GetDialogItem(pMsg->hWin, ID_TEXT_44);
;;;1034                   GUI_UC_SetEncodeUTF8();
;;;1035                   TEXT_SetText(hItem, "起始电流");
;;;1036                   TEXT_SetTextColor(hItem, GUI_WHITE);
;;;1037                   TEXT_SetFont(hItem, &GUI_Fontset_font);
;;;1038                   
;;;1039                   hItem = WM_GetDialogItem(pMsg->hWin, ID_TEXT_45);
;;;1040                   GUI_UC_SetEncodeUTF8();
;;;1041                   TEXT_SetText(hItem, "步进电流");
;;;1042                   TEXT_SetTextColor(hItem, GUI_WHITE);
;;;1043                   TEXT_SetFont(hItem, &GUI_Fontset_font);
;;;1044                   
;;;1045                   hItem = WM_GetDialogItem(pMsg->hWin, ID_TEXT_118);
;;;1046                   GUI_UC_SetEncodeUTF8();
;;;1047                   TEXT_SetText(hItem, "门槛电压");
;;;1048                   TEXT_SetTextColor(hItem, GUI_WHITE);
;;;1049                   TEXT_SetFont(hItem, &GUI_Fontset_font);
;;;1050                   
;;;1051                   hItem = WM_GetDialogItem(pMsg->hWin, ID_TEXT_97);
;;;1052                   sprintf(buf,"%.3f",gate_v);
;;;1053                   TEXT_SetFont(hItem,&GUI_Font24_1);//设定文本字体
;;;1054                   TEXT_SetText(hItem,buf);
;;;1055                   TEXT_SetTextColor(hItem, GUI_WHITE);
;;;1056                   
;;;1057                   
;;;1058                   hItem = WM_GetDialogItem(pMsg->hWin, ID_TEXT_98);
;;;1059                   GUI_UC_SetEncodeUTF8();
;;;1060                   TEXT_SetText(hItem, "未测试");
;;;1061                   TEXT_SetTextColor(hItem, GUI_WHITE);
;;;1062                   TEXT_SetFont(hItem, &GUI_Fontset_font);
;;;1063                   
;;;1064                   hItem = WM_GetDialogItem(pMsg->hWin, ID_TEXT_46);
;;;1065                   sprintf(buf,"%.3f",dis_init_c);
;;;1066                   TEXT_SetTextColor(hItem, GUI_WHITE);//设置字体颜色
;;;1067                   TEXT_SetFont(hItem,&GUI_Font24_1);//设定文本字体
;;;1068                   GUI_UC_SetEncodeUTF8();        
;;;1069                   TEXT_SetText(hItem,buf);
;;;1070   //                SET_Current_Laod = set_init_c;
;;;1071   
;;;1072                   hItem = WM_GetDialogItem(pMsg->hWin, ID_TEXT_47);
;;;1073                   sprintf(buf,"%.3f",dis_sbs_c);
;;;1074                   TEXT_SetTextColor(hItem, GUI_WHITE);//设置字体颜色
;;;1075                   TEXT_SetFont(hItem,&GUI_Font24_1);//设定文本字体
;;;1076                   GUI_UC_SetEncodeUTF8();        
;;;1077                   TEXT_SetText(hItem,buf);
;;;1078                   
;;;1079                   hItem = WM_GetDialogItem(pMsg->hWin, ID_TEXT_82);
;;;1080                   sprintf(buf,"%.3f",0.000);
;;;1081                   TEXT_SetTextColor(hItem, GUI_GREEN);//设置字体颜色
;;;1082                   TEXT_SetFont(hItem,&GUI_FontD24x32);//设定文本字体
;;;1083                   GUI_UC_SetEncodeUTF8();        
;;;1084                   TEXT_SetText(hItem,buf);
;;;1085                   
;;;1086                   hItem = WM_GetDialogItem(pMsg->hWin, ID_TEXT_83);
;;;1087                   sprintf(buf,"%.3f",DISS_Current);
;;;1088                   TEXT_SetTextColor(hItem, GUI_WHITE);//设置字体颜色
;;;1089                   TEXT_SetFont(hItem,&GUI_Font24_1);//设定文本字体
;;;1090                   GUI_UC_SetEncodeUTF8();        
;;;1091                   TEXT_SetText(hItem,buf);
;;;1092                   
;;;1093                   hItem = WM_GetDialogItem(pMsg->hWin, ID_TEXT_117);
;;;1094                   sprintf(buf,"%4d",short_time);
;;;1095                   TEXT_SetTextColor(hItem, GUI_WHITE);//设置字体颜色
;;;1096                   TEXT_SetFont(hItem,&GUI_Font24_1);//设定文本字体
;;;1097                   GUI_UC_SetEncodeUTF8();        
;;;1098                   TEXT_SetText(hItem,buf);
;;;1099                   
;;;1100                   hItem = WM_GetDialogItem(pMsg->hWin,ID_TEXT_130);
;;;1101                   sprintf(buf,"%4d",steptime);
;;;1102                   TEXT_SetTextColor(hItem, GUI_WHITE);//设置字体颜色
;;;1103                   TEXT_SetFont(hItem,&GUI_Font24_1);//设定文本字体
;;;1104                   GUI_UC_SetEncodeUTF8();        
;;;1105                   TEXT_SetText(hItem,buf);
;;;1106                   
;;;1107                   if(oc_mode == 0)
;;;1108                   {
;;;1109                       hItem = WM_GetDialogItem(pMsg->hWin, ID_TEXT_132);
;;;1110                       TEXT_SetTextColor(hItem, GUI_WHITE);//设置字体颜色
;;;1111                       TEXT_SetFont(hItem,&GUI_Font24_1);//设定文本字体
;;;1112                       GUI_UC_SetEncodeUTF8();        
;;;1113                       TEXT_SetText(hItem,"CC");
;;;1114                   }else if(oc_mode == 1){
;;;1115                       hItem = WM_GetDialogItem(pMsg->hWin, ID_TEXT_132);
;;;1116                       TEXT_SetTextColor(hItem, GUI_WHITE);//设置字体颜色
;;;1117                       TEXT_SetFont(hItem,&GUI_Font24_1);//设定文本字体
;;;1118                       GUI_UC_SetEncodeUTF8();        
;;;1119                       TEXT_SetText(hItem,"CV");
;;;1120                   }
;;;1121                   
;;;1122                   
;;;1123                   
;;;1124                   break;
;;;1125               }
;;;1126               case set_2_off:
;;;1127               {
;;;1128                   hItem = WM_GetDialogItem(pMsg->hWin, ID_TEXT_1);
;;;1129                   TEXT_SetText(hItem, "");
;;;1130                   TEXT_SetTextColor(hItem, GUI_INVALID_COLOR);
;;;1131                   
;;;1132                   hItem = WM_GetDialogItem(pMsg->hWin, ID_TEXT_43);
;;;1133                   TEXT_SetText(hItem, "");
;;;1134                   TEXT_SetTextColor(hItem, GUI_INVALID_COLOR);
;;;1135                   
;;;1136                   hItem = WM_GetDialogItem(pMsg->hWin, ID_TEXT_44);
;;;1137                   TEXT_SetText(hItem, "");
;;;1138                   TEXT_SetTextColor(hItem, GUI_INVALID_COLOR);
;;;1139                  
;;;1140                   
;;;1141                   hItem = WM_GetDialogItem(pMsg->hWin, ID_TEXT_45);
;;;1142                   TEXT_SetText(hItem, "");
;;;1143                   TEXT_SetTextColor(hItem, GUI_INVALID_COLOR);
;;;1144                   
;;;1145                   hItem = WM_GetDialogItem(pMsg->hWin, ID_TEXT_46);
;;;1146                   TEXT_SetText(hItem, "");
;;;1147                   TEXT_SetTextColor(hItem, GUI_INVALID_COLOR);
;;;1148   
;;;1149                   hItem = WM_GetDialogItem(pMsg->hWin, ID_TEXT_47);
;;;1150                   TEXT_SetText(hItem, "");
;;;1151                   TEXT_SetTextColor(hItem, GUI_INVALID_COLOR);
;;;1152                   
;;;1153                   hItem = WM_GetDialogItem(pMsg->hWin, ID_TEXT_97);
;;;1154                   TEXT_SetText(hItem, "");
;;;1155                   TEXT_SetTextColor(hItem, GUI_INVALID_COLOR);
;;;1156                   
;;;1157                   hItem = WM_GetDialogItem(pMsg->hWin, ID_TEXT_118);
;;;1158                   TEXT_SetText(hItem, "");
;;;1159                   TEXT_SetTextColor(hItem, GUI_INVALID_COLOR);
;;;1160                   
;;;1161                   hItem = WM_GetDialogItem(pMsg->hWin, ID_TEXT_98);
;;;1162                   TEXT_SetText(hItem, "");
;;;1163                   TEXT_SetTextColor(hItem, GUI_INVALID_COLOR);
;;;1164                   
;;;1165                   hItem = WM_GetDialogItem(pMsg->hWin, ID_TEXT_117);
;;;1166                   TEXT_SetText(hItem, "");      
;;;1167                   TEXT_SetTextColor(hItem, GUI_INVALID_COLOR);
;;;1168                   
;;;1169                   hItem = WM_GetDialogItem(pMsg->hWin, ID_TEXT_130);
;;;1170                   TEXT_SetText(hItem, "");      
;;;1171                   TEXT_SetTextColor(hItem, GUI_INVALID_COLOR);
;;;1172                   
;;;1173                   hItem = WM_GetDialogItem(pMsg->hWin, ID_TEXT_132);
;;;1174                   TEXT_SetText(hItem, "");
;;;1175                   TEXT_SetTextColor(hItem, GUI_INVALID_COLOR);
;;;1176                   break;
;;;1177               }
;;;1178           }
;;;1179           
;;;1180       // USER START (Optionally insert additional code for further widget initialization)
;;;1181       // USER END
;;;1182           break;
;;;1183           
;;;1184     // USER START (Optionally insert additional message handling)
;;;1185     // USER END
;;;1186       default:
;;;1187           WM_DefaultProc(pMsg);
000050  4620              MOV      r0,r4
000052  f7fffffe          BL       WM_DefaultProc
                  |L9.86|
;;;1188       break;
;;;1189     }
;;;1190   }
000056  b003              ADD      sp,sp,#0xc
000058  ecbd8b08          VPOP     {d8-d11}
00005c  e8bd8ff0          POP      {r4-r11,pc}
                  |L9.96|
000060  f06f447f          MVN      r4,#0xff000000        ;225
000064  4620              MOV      r0,r4                 ;225
000066  f7fffffe          BL       GUI_SetColor
00006a  231a              MOVS     r3,#0x1a              ;226
00006c  f44f72f0          MOV      r2,#0x1e0             ;226
000070  2119              MOVS     r1,#0x19              ;226
000072  2000              MOVS     r0,#0                 ;226
000074  f7fffffe          BL       GUI_FillRect
000078  f24a50ff          MOV      r0,#0xa5ff            ;227
00007c  f7fffffe          BL       GUI_SetColor
000080  48e9              LDR      r0,|L9.1064|
000082  f7fffffe          BL       GUI_SetFont
000086  f7fffffe          BL       GUI_UC_SetEncodeUTF8
00008a  2002              MOVS     r0,#2                 ;230
00008c  f7fffffe          BL       GUI_SetTextMode
000090  2201              MOVS     r2,#1                 ;231
000092  2105              MOVS     r1,#5                 ;231
000094  a0e5              ADR      r0,|L9.1068|
000096  f7fffffe          BL       GUI_DispStringAt
00009a  4620              MOV      r0,r4                 ;232
00009c  f7fffffe          BL       GUI_SetColor
0000a0  48e4              LDR      r0,|L9.1076|
0000a2  f7fffffe          BL       GUI_SetFont
0000a6  f7fffffe          BL       GUI_UC_SetEncodeUTF8
0000aa  2002              MOVS     r0,#2                 ;235
0000ac  f7fffffe          BL       GUI_SetTextMode
0000b0  2203              MOVS     r2,#3                 ;236
0000b2  2182              MOVS     r1,#0x82              ;236
0000b4  a0e0              ADR      r0,|L9.1080|
0000b6  f7fffffe          BL       GUI_DispStringAt
0000ba  f44f407f          MOV      r0,#0xff00            ;238
0000be  f7fffffe          BL       GUI_SetColor
0000c2  48e1              LDR      r0,|L9.1096|
0000c4  f7fffffe          BL       GUI_SetFont
0000c8  2202              MOVS     r2,#2                 ;240
0000ca  f44f71ab          MOV      r1,#0x156             ;240
0000ce  a0df              ADR      r0,|L9.1100|
0000d0  f7fffffe          BL       GUI_DispStringAt
0000d4  48de              LDR      r0,|L9.1104|
0000d6  f7fffffe          BL       GUI_SetFont
0000da  2202              MOVS     r2,#2                 ;242
0000dc  f44f71af          MOV      r1,#0x15e             ;242
0000e0  a0dc              ADR      r0,|L9.1108|
0000e2  f7fffffe          BL       GUI_DispStringAt
0000e6  78f9              LDRB     r1,[r7,#3]            ;265  ; para_set2
0000e8  2900              CMP      r1,#0                 ;265
0000ea  d0b4              BEQ      |L9.86|
0000ec  29ff              CMP      r1,#0xff              ;265
0000ee  d1b2              BNE      |L9.86|
0000f0  48d9              LDR      r0,|L9.1112|
0000f2  f7fffffe          BL       GUI_SetFont
0000f6  464d              MOV      r5,r9                 ;272
0000f8  4648              MOV      r0,r9                 ;272
0000fa  f7fffffe          BL       GUI_SetColor
0000fe  22be              MOVS     r2,#0xbe              ;273
000100  211c              MOVS     r1,#0x1c              ;273
000102  a0d6              ADR      r0,|L9.1116|
000104  f7fffffe          BL       GUI_DispStringAt
000108  2278              MOVS     r2,#0x78              ;274
00010a  211c              MOVS     r1,#0x1c              ;274
00010c  a0d4              ADR      r0,|L9.1120|
00010e  f7fffffe          BL       GUI_DispStringAt
000112  4628              MOV      r0,r5                 ;275
000114  f7fffffe          BL       GUI_SetColor
000118  22bb              MOVS     r2,#0xbb              ;276
00011a  21f0              MOVS     r1,#0xf0              ;276
00011c  a0d1              ADR      r0,|L9.1124|
00011e  f7fffffe          BL       GUI_DispStringAt
000122  48cb              LDR      r0,|L9.1104|
000124  f7fffffe          BL       GUI_SetFont
000128  4620              MOV      r0,r4                 ;278
00012a  f7fffffe          BL       GUI_SetColor
00012e  f44f74e6          MOV      r4,#0x1cc             ;279
000132  224b              MOVS     r2,#0x4b              ;279
000134  4621              MOV      r1,r4                 ;279
000136  a0cb              ADR      r0,|L9.1124|
000138  f7fffffe          BL       GUI_DispStringAt
00013c  2264              MOVS     r2,#0x64              ;280
00013e  4621              MOV      r1,r4                 ;280
000140  a0c8              ADR      r0,|L9.1124|
000142  e001              B        |L9.328|
                  |L9.324|
000144  e3da              B        |L9.2300|
                  |L9.326|
000146  e027              B        |L9.408|
                  |L9.328|
000148  f7fffffe          BL       GUI_DispStringAt
00014c  227d              MOVS     r2,#0x7d              ;281
00014e  4621              MOV      r1,r4                 ;281
000150  a0c5              ADR      r0,|L9.1128|
000152  f7fffffe          BL       GUI_DispStringAt
000156  f44f75e1          MOV      r5,#0x1c2             ;282
00015a  2296              MOVS     r2,#0x96              ;282
00015c  4629              MOV      r1,r5                 ;282
00015e  a0c3              ADR      r0,|L9.1132|
000160  f7fffffe          BL       GUI_DispStringAt
000164  22af              MOVS     r2,#0xaf              ;283
000166  4621              MOV      r1,r4                 ;283
000168  a0be              ADR      r0,|L9.1124|
00016a  f7fffffe          BL       GUI_DispStringAt
00016e  22c8              MOVS     r2,#0xc8              ;284
000170  4629              MOV      r1,r5                 ;284
000172  a0be              ADR      r0,|L9.1132|
000174  f7fffffe          BL       GUI_DispStringAt
000178  48bd              LDR      r0,|L9.1136|
00017a  f7fffffe          BL       GUI_SetFont
00017e  f44f7496          MOV      r4,#0x12c             ;286
000182  22af              MOVS     r2,#0xaf              ;286
000184  4621              MOV      r1,r4                 ;286
000186  a0bb              ADR      r0,|L9.1140|
000188  f7fffffe          BL       GUI_DispStringAt
00018c  22c8              MOVS     r2,#0xc8              ;287
00018e  4621              MOV      r1,r4                 ;287
000190  a0bc              ADR      r0,|L9.1156|
000192  f7fffffe          BL       GUI_DispStringAt
                  |L9.406|
000196  e75e              B        |L9.86|
                  |L9.408|
000198  68e0              LDR      r0,[r4,#0xc]          ;308
00019a  f7fffffe          BL       WM_GetTimerId
00019e  2801              CMP      r0,#1                 ;308
0001a0  d1f9              BNE      |L9.406|
0001a2  7bb8              LDRB     r0,[r7,#0xe]          ;310  ; manual
0001a4  46bb              MOV      r11,r7                ;310
0001a6  2701              MOVS     r7,#1                 ;231
0001a8  2800              CMP      r0,#0                 ;310
0001aa  6860              LDR      r0,[r4,#4]            ;310
0001ac  f04f0900          MOV      r9,#0                 ;226
0001b0  f640110a          MOV      r1,#0x90a             ;332
0001b4  d042              BEQ      |L9.572|
0001b6  f7fffffe          BL       WM_GetDialogItem
0001ba  4680              MOV      r8,r0                 ;332
0001bc  21ff              MOVS     r1,#0xff              ;333
0001be  f7fffffe          BL       TEXT_SetTextColor
0001c2  49a3              LDR      r1,|L9.1104|
0001c4  4640              MOV      r0,r8                 ;334
0001c6  f7fffffe          BL       TEXT_SetFont
0001ca  f7fffffe          BL       GUI_UC_SetEncodeUTF8
0001ce  a1b1              ADR      r1,|L9.1172|
0001d0  4640              MOV      r0,r8                 ;336
0001d2  f7fffffe          BL       TEXT_SetText
0001d6  f89a0000          LDRB     r0,[r10,#0]           ;337  ; r_raly
0001da  f640110b          MOV      r1,#0x90b             ;346
0001de  2801              CMP      r0,#1                 ;337
0001e0  6860              LDR      r0,[r4,#4]            ;337
0001e2  d06a              BEQ      |L9.698|
0001e4  f7fffffe          BL       WM_GetDialogItem
0001e8  a1ac              ADR      r1,|L9.1180|
                  |L9.490|
0001ea  f7fffffe          BL       TEXT_SetText
0001ee  f640110c          MOV      r1,#0x90c             ;341
0001f2  6860              LDR      r0,[r4,#4]            ;341
0001f4  f7fffffe          BL       WM_GetDialogItem
0001f8  a1a9              ADR      r1,|L9.1184|
0001fa  f7fffffe          BL       TEXT_SetText
0001fe  f640110d          MOV      r1,#0x90d             ;343
000202  6860              LDR      r0,[r4,#4]            ;343
000204  f7fffffe          BL       WM_GetDialogItem
000208  a1a6              ADR      r1,|L9.1188|
00020a  f7fffffe          BL       TEXT_SetText
                  |L9.526|
00020e  f89b0003          LDRB     r0,[r11,#3]           ;358  ; para_set2
000212  28ff              CMP      r0,#0xff              ;358
000214  d055              BEQ      |L9.706|
000216  6830              LDR      r0,[r6,#0]            ;673  ; DISS_Voltage
000218  f04f537e          MOV      r3,#0x3f800000        ;673
00021c  4298              CMP      r0,r3                 ;673
00021e  dd04              BLE      |L9.554|
000220  f89b1005          LDRB     r1,[r11,#5]           ;673  ; r_stable
000224  465a              MOV      r2,r11                ;673
000226  2900              CMP      r1,#0                 ;673
000228  d072              BEQ      |L9.784|
                  |L9.554|
00022a  4298              CMP      r0,r3                 ;677
00022c  da05              BGE      |L9.570|
00022e  f88b9005          STRB     r9,[r11,#5]           ;678
000232  f89b000e          LDRB     r0,[r11,#0xe]         ;679  ; manual
000236  2800              CMP      r0,#0                 ;679
000238  d06b              BEQ      |L9.786|
                  |L9.570|
00023a  e3fd              B        |L9.2616|
                  |L9.572|
00023c  f7fffffe          BL       WM_GetDialogItem
000240  4680              MOV      r8,r0                 ;312
000242  21ff              MOVS     r1,#0xff              ;313
000244  f7fffffe          BL       TEXT_SetTextColor
000248  4981              LDR      r1,|L9.1104|
00024a  4640              MOV      r0,r8                 ;314
00024c  f7fffffe          BL       TEXT_SetFont
000250  f7fffffe          BL       GUI_UC_SetEncodeUTF8
000254  a18f              ADR      r1,|L9.1172|
000256  4640              MOV      r0,r8                 ;316
000258  f7fffffe          BL       TEXT_SetText
00025c  f640110b          MOV      r1,#0x90b             ;317
000260  6860              LDR      r0,[r4,#4]            ;317
000262  f7fffffe          BL       WM_GetDialogItem
000266  a190              ADR      r1,|L9.1192|
000268  f7fffffe          BL       TEXT_SetText
00026c  f640110c          MOV      r1,#0x90c             ;319
000270  6860              LDR      r0,[r4,#4]            ;319
000272  f7fffffe          BL       WM_GetDialogItem
000276  a173              ADR      r1,|L9.1092|
000278  f7fffffe          BL       TEXT_SetText
00027c  f640110d          MOV      r1,#0x90d             ;321
000280  6860              LDR      r0,[r4,#4]            ;321
000282  f7fffffe          BL       WM_GetDialogItem
000286  a16f              ADR      r1,|L9.1092|
000288  f7fffffe          BL       TEXT_SetText
00028c  6b68              LDR      r0,[r5,#0x34]         ;323  ; Run_Control
00028e  28b4              CMP      r0,#0xb4              ;323
000290  d20b              BCS      |L9.682|
000292  6830              LDR      r0,[r6,#0]            ;323  ; DISS_Voltage
000294  f1b05f7e          CMP      r0,#0x3f800000        ;323
000298  dd07              BLE      |L9.682|
00029a  f44f5100          MOV      r1,#0x2000            ;325
00029e  4884              LDR      r0,|L9.1200|
0002a0  f7fffffe          BL       GPIO_ResetBits
0002a4  f88a9000          STRB     r9,[r10,#0]           ;326
0002a8  e7b1              B        |L9.526|
                  |L9.682|
0002aa  f44f5100          MOV      r1,#0x2000            ;328
0002ae  4880              LDR      r0,|L9.1200|
0002b0  f7fffffe          BL       GPIO_SetBits
0002b4  f88a7000          STRB     r7,[r10,#0]           ;329
0002b8  e7a9              B        |L9.526|
                  |L9.698|
0002ba  f7fffffe          BL       WM_GetDialogItem
0002be  a17d              ADR      r1,|L9.1204|
0002c0  e793              B        |L9.490|
                  |L9.706|
0002c2  f89b0012          LDRB     r0,[r11,#0x12]        ;360  ; oc_mode
0002c6  f8df81f4          LDR      r8,|L9.1212|
0002ca  f44f6180          MOV      r1,#0x400             ;362
0002ce  b120              CBZ      r0,|L9.730|
0002d0  f89b0012          LDRB     r0,[r11,#0x12]        ;369  ; oc_mode
0002d4  2801              CMP      r0,#1                 ;369
0002d6  d01d              BEQ      |L9.788|
0002d8  e039              B        |L9.846|
                  |L9.730|
0002da  4879              LDR      r0,|L9.1216|
0002dc  f7fffffe          BL       GPIO_ResetBits
0002e0  f8d81000          LDR      r1,[r8,#0]            ;363  ; flagD
0002e4  f0410180          ORR      r1,r1,#0x80           ;363
0002e8  f8c81000          STR      r1,[r8,#0]            ;364  ; flagD
0002ec  f6401121          MOV      r1,#0x921             ;364
0002f0  6860              LDR      r0,[r4,#4]            ;364
0002f2  f7fffffe          BL       WM_GetDialogItem
0002f6  4680              MOV      r8,r0                 ;364
0002f8  f06f417f          MVN      r1,#0xff000000        ;365
0002fc  f7fffffe          BL       TEXT_SetTextColor
000300  4953              LDR      r1,|L9.1104|
000302  4640              MOV      r0,r8                 ;366
000304  f7fffffe          BL       TEXT_SetFont
000308  f7fffffe          BL       GUI_UC_SetEncodeUTF8
00030c  a16d              ADR      r1,|L9.1220|
00030e  e01b              B        |L9.840|
                  |L9.784|
000310  e3e0              B        |L9.2772|
                  |L9.786|
000312  e3ea              B        |L9.2794|
                  |L9.788|
000314  486a              LDR      r0,|L9.1216|
000316  f7fffffe          BL       GPIO_SetBits
00031a  f8d81000          LDR      r1,[r8,#0]            ;371  ; flagD
00031e  f0210180          BIC      r1,r1,#0x80           ;371
000322  f8c81000          STR      r1,[r8,#0]            ;372  ; flagD
000326  f6401121          MOV      r1,#0x921             ;372
00032a  6860              LDR      r0,[r4,#4]            ;372
00032c  f7fffffe          BL       WM_GetDialogItem
000330  4680              MOV      r8,r0                 ;372
000332  f06f417f          MVN      r1,#0xff000000        ;373
000336  f7fffffe          BL       TEXT_SetTextColor
00033a  4945              LDR      r1,|L9.1104|
00033c  4640              MOV      r0,r8                 ;374
00033e  f7fffffe          BL       TEXT_SetFont
000342  f7fffffe          BL       GUI_UC_SetEncodeUTF8
000346  a160              ADR      r1,|L9.1224|
                  |L9.840|
000348  4640              MOV      r0,r8                 ;376
00034a  f7fffffe          BL       TEXT_SetText
                  |L9.846|
00034e  f89b0009          LDRB     r0,[r11,#9]           ;379  ; short_finish
000352  46d8              MOV      r8,r11                ;379
000354  2801              CMP      r0,#1                 ;379
000356  d004              BEQ      |L9.866|
000358  f8981003          LDRB     r1,[r8,#3]            ;427  ; para_set2
00035c  29ff              CMP      r1,#0xff              ;427
00035e  d051              BEQ      |L9.1028|
000360  e13a              B        |L9.1496|
                  |L9.866|
000362  ed980a08          VLDR     s0,[r8,#0x20]         ;381
000366  eeb50ac0          VCMPE.F32 s0,#0.0               ;381
00036a  eef1fa10          VMRS     APSR_nzcv,FPSCR       ;381
00036e  d134              BNE      |L9.986|
000370  f7fffffe          BL       GUI_GetTime
000374  f44f71fa          MOV      r1,#0x1f4             ;383
000378  fb90f1f1          SDIV     r1,r0,r1              ;383
00037c  f8d80038          LDR      r0,[r8,#0x38]         ;383  ; test_ftime
000380  1a08              SUBS     r0,r1,r0              ;383
000382  2801              CMP      r0,#1                 ;383
000384  d101              BNE      |L9.906|
000386  f7fffffe          BL       setmode_r
                  |L9.906|
00038a  4950              LDR      r1,|L9.1228|
00038c  6830              LDR      r0,[r6,#0]            ;389  ; DISS_Voltage
00038e  4288              CMP      r0,r1                 ;389
000390  da22              BGE      |L9.984|
000392  f7fffffe          BL       GUI_GetTime
000396  f44f71fa          MOV      r1,#0x1f4             ;389
00039a  fb90f1f1          SDIV     r1,r0,r1              ;389
00039e  f8d80038          LDR      r0,[r8,#0x38]         ;389  ; test_ftime
0003a2  1a08              SUBS     r0,r1,r0              ;389
0003a4  2801              CMP      r0,#1                 ;389
0003a6  dd17              BLE      |L9.984|
0003a8  f7fffffe          BL       setmode_r
0003ac  f888900a          STRB     r9,[r8,#0xa]          ;394
0003b0  f8889007          STRB     r9,[r8,#7]            ;395
0003b4  f8889009          STRB     r9,[r8,#9]            ;396
0003b8  f888900b          STRB     r9,[r8,#0xb]          ;397
0003bc  4a44              LDR      r2,|L9.1232|
0003be  f8829000          STRB     r9,[r2,#0]            ;398
0003c2  f898000e          LDRB     r0,[r8,#0xe]          ;399  ; manual
0003c6  2800              CMP      r0,#0                 ;399
0003c8  d106              BNE      |L9.984|
                  |L9.970|
0003ca  f44f5100          MOV      r1,#0x2000            ;401
0003ce  4838              LDR      r0,|L9.1200|
0003d0  f7fffffe          BL       GPIO_SetBits
0003d4  f88a7000          STRB     r7,[r10,#0]           ;402
                  |L9.984|
0003d8  e0fe              B        |L9.1496|
                  |L9.986|
0003da  f7fffffe          BL       GUI_GetTime
0003de  f44f71fa          MOV      r1,#0x1f4             ;406
0003e2  fb90f1f1          SDIV     r1,r0,r1              ;406
0003e6  f8d80038          LDR      r0,[r8,#0x38]         ;406  ; test_ftime
0003ea  1a08              SUBS     r0,r1,r0              ;406
0003ec  2802              CMP      r0,#2                 ;406
0003ee  d101              BNE      |L9.1012|
0003f0  f7fffffe          BL       setmode_r
                  |L9.1012|
0003f4  4836              LDR      r0,|L9.1232|
0003f6  7800              LDRB     r0,[r0,#0]            ;412  ; r_test
0003f8  b128              CBZ      r0,|L9.1030|
0003fa  ed960a00          VLDR     s0,[r6,#0]            ;412
0003fe  edd80a08          VLDR     s1,[r8,#0x20]         ;412
000402  e067              B        |L9.1236|
                  |L9.1028|
000404  e084              B        |L9.1296|
                  |L9.1030|
000406  e06a              B        |L9.1246|
                  |L9.1032|
                          DCD      Run_Control
                  |L9.1036|
00040c  447a0000          DCFS     0x447a0000 ; 1000
                  |L9.1040|
                          DCD      0x00d3d3d3
                  |L9.1044|
                          DCD      ||.data||
                  |L9.1048|
000418  00000000          DCFD     0x0000000000000000 ; 0
00041c  00000000
                  |L9.1056|
                          DCD      r_raly
                  |L9.1060|
                          DCD      DISS_Voltage
                  |L9.1064|
                          DCD      GUI_Fontsymbol
                  |L9.1068|
00042c  4a696e6b          DCB      "Jinko",0
000430  6f00    
000432  00                DCB      0
000433  00                DCB      0
                  |L9.1076|
                          DCD      GUI_FontHZ20S
                  |L9.1080|
000438  e6b58be9          DCB      230,181,139,233,135,143,230,152,190,231,164,186
00043c  878fe698
000440  bee7a4ba
                  |L9.1092|
000444  00                DCB      0
000445  00                DCB      0
000446  00                DCB      0
000447  00                DCB      0
                  |L9.1096|
                          DCD      GUI_Fontunit
                  |L9.1100|
00044c  c2b000            DCB      194,176,0
00044f  00                DCB      0
                  |L9.1104|
                          DCD      GUI_Font24_1
                  |L9.1108|
000454  4300              DCB      "C",0
000456  00                DCB      0
000457  00                DCB      0
                  |L9.1112|
                          DCD      GUI_FontEN40
                  |L9.1116|
00045c  493a00            DCB      "I:",0
00045f  00                DCB      0
                  |L9.1120|
000460  523a00            DCB      "R:",0
000463  00                DCB      0
                  |L9.1124|
000464  4100              DCB      "A",0
000466  00                DCB      0
000467  00                DCB      0
                  |L9.1128|
000468  5600              DCB      "V",0
00046a  00                DCB      0
00046b  00                DCB      0
                  |L9.1132|
00046c  6d7300            DCB      "ms",0
00046f  00                DCB      0
                  |L9.1136|
                          DCD      GUI_Fontset_font
                  |L9.1140|
000474  e8b49fe8          DCB      232,180,159,232,189,189,231,148,181,230,181,129,0
000478  bdbde794
00047c  b5e6b581
000480  00      
000481  00                DCB      0
000482  00                DCB      0
000483  00                DCB      0
                  |L9.1156|
000484  e79fade8          DCB      231,159,173,232,183,175,230,151,182,233,151,180,0
000488  b7afe697
00048c  b6e997b4
000490  00      
000491  00                DCB      0
000492  00                DCB      0
000493  00                DCB      0
                  |L9.1172|
000494  52616e67          DCB      "Range",0
000498  6500    
00049a  00                DCB      0
00049b  00                DCB      0
                  |L9.1180|
00049c  32303000          DCB      "200",0
                  |L9.1184|
0004a0  6d00              DCB      "m",0
0004a2  00                DCB      0
0004a3  00                DCB      0
                  |L9.1188|
0004a4  cea900            DCB      206,169,0
0004a7  00                DCB      0
                  |L9.1192|
0004a8  4175746f          DCB      "Auto",0
0004ac  00      
0004ad  00                DCB      0
0004ae  00                DCB      0
0004af  00                DCB      0
                  |L9.1200|
                          DCD      0x40020400
                  |L9.1204|
0004b4  32303030          DCB      "2000",0
0004b8  00      
0004b9  00                DCB      0
0004ba  00                DCB      0
0004bb  00                DCB      0
                  |L9.1212|
                          DCD      flagD
                  |L9.1216|
                          DCD      0x40020800
                  |L9.1220|
0004c4  434300            DCB      "CC",0
0004c7  00                DCB      0
                  |L9.1224|
0004c8  435600            DCB      "CV",0
0004cb  00                DCB      0
                  |L9.1228|
                          DCD      0x3e99999a
                  |L9.1232|
                          DCD      r_test
                  |L9.1236|
0004d4  eeb40ae0          VCMPE.F32 s0,s1                 ;412
0004d8  eef1fa10          VMRS     APSR_nzcv,FPSCR       ;412
0004dc  d27c              BCS      |L9.1496|
                  |L9.1246|
0004de  f7fffffe          BL       GUI_GetTime
0004e2  f44f71fa          MOV      r1,#0x1f4             ;412
0004e6  fb90f1f1          SDIV     r1,r0,r1              ;412
0004ea  f8d80038          LDR      r0,[r8,#0x38]         ;412  ; test_ftime
0004ee  1a08              SUBS     r0,r1,r0              ;412
0004f0  2801              CMP      r0,#1                 ;412
0004f2  dd71              BLE      |L9.1496|
0004f4  f7fffffe          BL       setmode_r
0004f8  f888900a          STRB     r9,[r8,#0xa]          ;417
0004fc  f8889007          STRB     r9,[r8,#7]            ;418
000500  f8889009          STRB     r9,[r8,#9]            ;419
000504  f888900b          STRB     r9,[r8,#0xb]          ;420
000508  49fd              LDR      r1,|L9.2304|
00050a  f8819000          STRB     r9,[r1,#0]            ;421
00050e  e75c              B        |L9.970|
                  |L9.1296|
000510  ed980a08          VLDR     s0,[r8,#0x20]         ;429
000514  ed9f8afb          VLDR     s16,|L9.2308|
000518  ed9fabfb          VLDR     d10,|L9.2312|
00051c  eeb50ac0          VCMPE.F32 s0,#0.0               ;429
000520  f04f5a7f          MOV      r10,#0x3fc00000       ;439
000524  eef1fa10          VMRS     APSR_nzcv,FPSCR       ;429
000528  d118              BNE      |L9.1372|
00052a  6830              LDR      r0,[r6,#0]            ;431  ; DISS_Voltage
00052c  f1b05f7e          CMP      r0,#0x3f800000        ;431
000530  dd28              BLE      |L9.1412|
000532  6b68              LDR      r0,[r5,#0x34]         ;431  ; Run_Control
000534  2832              CMP      r0,#0x32              ;431
000536  d925              BLS      |L9.1412|
000538  f8981007          LDRB     r1,[r8,#7]            ;431  ; con_flag
00053c  4640              MOV      r0,r8                 ;431
00053e  bb09              CBNZ     r1,|L9.1412|
000540  7a81              LDRB     r1,[r0,#0xa]          ;431  ; finish
000542  b9f9              CBNZ     r1,|L9.1412|
                  |L9.1348|
000544  71c7              STRB     r7,[r0,#7]            ;433
000546  f7fffffe          BL       GUI_GetTime
00054a  ee000a10          VMOV     s0,r0                 ;434
00054e  eeb80ac0          VCVT.F32.S32 s0,s0                 ;434
000552  eec00a08          VDIV.F32 s1,s0,s16             ;434
000556  edc80a0d          VSTR     s1,[r8,#0x34]         ;434
00055a  e013              B        |L9.1412|
                  |L9.1372|
00055c  edd60a00          VLDR     s1,[r6,#0]            ;448
000560  eef40ac0          VCMPE.F32 s1,s0                 ;448
000564  eef1fa10          VMRS     APSR_nzcv,FPSCR       ;448
000568  dd0c              BLE      |L9.1412|
00056a  6b68              LDR      r0,[r5,#0x34]         ;448  ; Run_Control
00056c  2832              CMP      r0,#0x32              ;448
00056e  d909              BLS      |L9.1412|
000570  f8981007          LDRB     r1,[r8,#7]            ;448  ; con_flag
000574  4640              MOV      r0,r8                 ;448
000576  b929              CBNZ     r1,|L9.1412|
000578  7a81              LDRB     r1,[r0,#0xa]          ;448  ; finish
00057a  b919              CBNZ     r1,|L9.1412|
00057c  49e0              LDR      r1,|L9.2304|
00057e  7809              LDRB     r1,[r1,#0]            ;448  ; r_test
000580  2901              CMP      r1,#1                 ;448
000582  d0df              BEQ      |L9.1348|
                  |L9.1412|
000584  f8981007          LDRB     r1,[r8,#7]            ;453  ; con_flag
000588  4640              MOV      r0,r8                 ;453
00058a  2901              CMP      r1,#1                 ;453
00058c  d124              BNE      |L9.1496|
00058e  7b01              LDRB     r1,[r0,#0xc]          ;453  ; oct_sw
000590  bb11              CBNZ     r1,|L9.1496|
000592  7a81              LDRB     r1,[r0,#0xa]          ;453  ; finish
000594  bb01              CBNZ     r1,|L9.1496|
000596  f8d80034          LDR      r0,[r8,#0x34]         ;455  ; time1
00059a  f7fffffe          BL       __aeabi_f2d
00059e  ec410b18          VMOV     d8,r0,r1              ;455
0005a2  f7fffffe          BL       GUI_GetTime
0005a6  f7fffffe          BL       __aeabi_i2d
0005aa  ec532b1a          VMOV     r2,r3,d10             ;455
0005ae  f7fffffe          BL       __aeabi_ddiv
0005b2  ec532b18          VMOV     r2,r3,d8              ;455
0005b6  f7fffffe          BL       __aeabi_dsub
0005ba  f7fffffe          BL       __aeabi_d2f
0005be  4550              CMP      r0,r10                ;455
0005c0  dd0a              BLE      |L9.1496|
0005c2  6b69              LDR      r1,[r5,#0x34]         ;457  ; Run_Control
0005c4  f8a8101a          STRH     r1,[r8,#0x1a]         ;457
0005c8  6831              LDR      r1,[r6,#0]            ;458  ; DISS_Voltage
0005ca  f8c81030          STR      r1,[r8,#0x30]         ;459  ; v
0005ce  f888700c          STRB     r7,[r8,#0xc]          ;459
0005d2  49cf              LDR      r1,|L9.2320|
0005d4  f8819000          STRB     r9,[r1,#0]            ;460
                  |L9.1496|
0005d8  f898000c          LDRB     r0,[r8,#0xc]          ;470  ; oct_sw
0005dc  46c2              MOV      r10,r8                ;470
0005de  2801              CMP      r0,#1                 ;470
0005e0  d103              BNE      |L9.1514|
0005e2  f89a0003          LDRB     r0,[r10,#3]           ;470  ; para_set2
0005e6  28ff              CMP      r0,#0xff              ;470
0005e8  d011              BEQ      |L9.1550|
                  |L9.1514|
0005ea  f6401106          MOV      r1,#0x906             ;498
0005ee  6860              LDR      r0,[r4,#4]            ;498
0005f0  f7fffffe          BL       WM_GetDialogItem
0005f4  4680              MOV      r8,r0                 ;498
0005f6  f06f417f          MVN      r1,#0xff000000        ;499
0005fa  f7fffffe          BL       TEXT_SetTextColor
0005fe  a1c5              ADR      r1,|L9.2324|
                  |L9.1536|
000600  4640              MOV      r0,r8                 ;500
000602  f7fffffe          BL       TEXT_SetText
000606  f89a000c          LDRB     r0,[r10,#0xc]         ;503  ; oct_sw
00060a  b380              CBZ      r0,|L9.1646|
00060c  e033              B        |L9.1654|
                  |L9.1550|
00060e  f8df8310          LDR      r8,|L9.2336|
000612  2102              MOVS     r1,#2                 ;474
000614  4640              MOV      r0,r8                 ;474
000616  f7fffffe          BL       GPIO_ResetBits
00061a  f44f5100          MOV      r1,#0x2000            ;475
00061e  4640              MOV      r0,r8                 ;475
000620  f7fffffe          BL       GPIO_SetBits
000624  f44f4100          MOV      r1,#0x8000            ;477
000628  48be              LDR      r0,|L9.2340|
00062a  f7fffffe          BL       GPIO_ResetBits
00062e  f88a700d          STRB     r7,[r10,#0xd]         ;478
000632  f640018e          MOV      r1,#0x88e             ;479
000636  6860              LDR      r0,[r4,#4]            ;479
000638  f7fffffe          BL       WM_GetDialogItem
00063c  4680              MOV      r8,r0                 ;479
00063e  49ba              LDR      r1,|L9.2344|
000640  f7fffffe          BL       TEXT_SetFont
000644  f8ba201a          LDRH     r2,[r10,#0x1a]        ;481  ; r
000648  a1b8              ADR      r1,|L9.2348|
00064a  4668              MOV      r0,sp                 ;481
00064c  f7fffffe          BL       __2sprintf
000650  4669              MOV      r1,sp                 ;482
000652  4640              MOV      r0,r8                 ;482
000654  f7fffffe          BL       TEXT_SetText
000658  f6401106          MOV      r1,#0x906             ;485
00065c  6860              LDR      r0,[r4,#4]            ;485
00065e  f7fffffe          BL       WM_GetDialogItem
000662  4680              MOV      r8,r0                 ;485
000664  21ff              MOVS     r1,#0xff              ;486
000666  f7fffffe          BL       TEXT_SetTextColor
00066a  a1b1              ADR      r1,|L9.2352|
00066c  e7c8              B        |L9.1536|
                  |L9.1646|
00066e  e7ff              B        |L9.1648|
                  |L9.1648|
000670  f89a000a          LDRB     r0,[r10,#0xa]         ;503  ; finish
000674  b120              CBZ      r0,|L9.1664|
                  |L9.1654|
000676  f89a0003          LDRB     r0,[r10,#3]           ;577  ; para_set2
00067a  28ff              CMP      r0,#0xff              ;577
00067c  d076              BEQ      |L9.1900|
00067e  e1fe              B        |L9.2686|
                  |L9.1664|
000680  6830              LDR      r0,[r6,#0]            ;505  ; DISS_Voltage
000682  f04f537e          MOV      r3,#0x3f800000        ;505
000686  4298              CMP      r0,r3                 ;505
000688  dd03              BLE      |L9.1682|
00068a  f89a1005          LDRB     r1,[r10,#5]           ;505  ; r_stable
00068e  4652              MOV      r2,r10                ;505
000690  b141              CBZ      r1,|L9.1700|
                  |L9.1682|
000692  4298              CMP      r0,r3                 ;509
000694  da01              BGE      |L9.1690|
000696  f88a9005          STRB     r9,[r10,#5]           ;510
                  |L9.1690|
00069a  489d              LDR      r0,|L9.2320|
00069c  7800              LDRB     r0,[r0,#0]            ;512  ; clear_flag1
00069e  2801              CMP      r0,#1                 ;512
0006a0  d00b              BEQ      |L9.1722|
0006a2  e01d              B        |L9.1760|
                  |L9.1700|
0006a4  46d0              MOV      r8,r10                ;507
0006a6  7157              STRB     r7,[r2,#5]            ;507
0006a8  f7fffffe          BL       GUI_GetTime
0006ac  f44f71fa          MOV      r1,#0x1f4             ;508
0006b0  fb90f0f1          SDIV     r0,r0,r1              ;508
0006b4  f8a80016          STRH     r0,[r8,#0x16]         ;508
0006b8  e7ef              B        |L9.1690|
                  |L9.1722|
0006ba  48a0              LDR      r0,|L9.2364|
0006bc  ed960a00          VLDR     s0,[r6,#0]            ;512
0006c0  edd00a00          VLDR     s1,[r0,#0]            ;512
0006c4  eeb40ae0          VCMPE.F32 s0,s1                 ;512
0006c8  eef1fa10          VMRS     APSR_nzcv,FPSCR       ;512
0006cc  d808              BHI      |L9.1760|
0006ce  f640018d          MOV      r1,#0x88d             ;514
0006d2  6860              LDR      r0,[r4,#4]            ;514
0006d4  f7fffffe          BL       WM_GetDialogItem
0006d8  4680              MOV      r8,r0                 ;514
0006da  ec532b19          VMOV     r2,r3,d9              ;515
0006de  e00c              B        |L9.1786|
                  |L9.1760|
0006e0  f640018d          MOV      r1,#0x88d             ;518
0006e4  6860              LDR      r0,[r4,#4]            ;518
0006e6  f7fffffe          BL       WM_GetDialogItem
0006ea  4680              MOV      r8,r0                 ;518
0006ec  6830              LDR      r0,[r6,#0]            ;519  ; DISS_Voltage
0006ee  f7fffffe          BL       __aeabi_f2d
0006f2  ec410b10          VMOV     d0,r0,r1              ;519
0006f6  ec532b10          VMOV     r2,r3,d0              ;519
                  |L9.1786|
0006fa  a191              ADR      r1,|L9.2368|
0006fc  4668              MOV      r0,sp                 ;519
0006fe  f7fffffe          BL       __2sprintf
000702  4669              MOV      r1,sp                 ;520
000704  4640              MOV      r0,r8                 ;520
000706  f7fffffe          BL       TEXT_SetText
00070a  4881              LDR      r0,|L9.2320|
00070c  7800              LDRB     r0,[r0,#0]            ;522  ; clear_flag1
00070e  2801              CMP      r0,#1                 ;522
000710  d10b              BNE      |L9.1834|
000712  6b69              LDR      r1,[r5,#0x34]         ;522  ; Run_Control
000714  488c              LDR      r0,|L9.2376|
000716  7800              LDRB     r0,[r0,#0]            ;522  ; clear_r
000718  4281              CMP      r1,r0                 ;522
00071a  d806              BHI      |L9.1834|
00071c  f640018e          MOV      r1,#0x88e             ;524
000720  6860              LDR      r0,[r4,#4]            ;524
000722  f7fffffe          BL       WM_GetDialogItem
000726  4680              MOV      r8,r0                 ;524
000728  e051              B        |L9.1998|
                  |L9.1834|
00072a  6b68              LDR      r0,[r5,#0x34]         ;528  ; Run_Control
00072c  f5b06ffa          CMP      r0,#0x7d0             ;528
000730  d30a              BCC      |L9.1864|
000732  f640018e          MOV      r1,#0x88e             ;530
000736  6860              LDR      r0,[r4,#4]            ;530
000738  f7fffffe          BL       WM_GetDialogItem
00073c  4680              MOV      r8,r0                 ;530
00073e  4983              LDR      r1,|L9.2380|
000740  f7fffffe          BL       TEXT_SetFont
000744  a17f              ADR      r1,|L9.2372|
000746  e048              B        |L9.2010|
                  |L9.1864|
000748  f7fffffe          BL       GUI_GetTime
00074c  f44f71fa          MOV      r1,#0x1f4             ;534
000750  fb90f1f1          SDIV     r1,r0,r1              ;534
000754  f8ba2016          LDRH     r2,[r10,#0x16]        ;534  ; stable_time
000758  4650              MOV      r0,r10                ;534
00075a  1a89              SUBS     r1,r1,r2              ;534
00075c  2901              CMP      r1,#1                 ;534
00075e  d102              BNE      |L9.1894|
000760  7941              LDRB     r1,[r0,#5]            ;534  ; r_stable
000762  2901              CMP      r1,#1                 ;534
000764  d003              BEQ      |L9.1902|
                  |L9.1894|
000766  7941              LDRB     r1,[r0,#5]            ;541  ; r_stable
000768  b179              CBZ      r1,|L9.1930|
00076a  e039              B        |L9.2016|
                  |L9.1900|
00076c  e074              B        |L9.2136|
                  |L9.1902|
00076e  6b69              LDR      r1,[r5,#0x34]         ;536  ; Run_Control
000770  8341              STRH     r1,[r0,#0x1a]         ;536
000772  f640018e          MOV      r1,#0x88e             ;537
000776  6860              LDR      r0,[r4,#4]            ;537
000778  f7fffffe          BL       WM_GetDialogItem
00077c  4680              MOV      r8,r0                 ;537
00077e  496a              LDR      r1,|L9.2344|
000780  f7fffffe          BL       TEXT_SetFont
000784  f8ba201a          LDRH     r2,[r10,#0x1a]        ;539  ; r
000788  e022              B        |L9.2000|
                  |L9.1930|
00078a  4971              LDR      r1,|L9.2384|
00078c  6832              LDR      r2,[r6,#0]            ;543  ; DISS_Voltage
00078e  428a              CMP      r2,r1                 ;543
000790  da57              BGE      |L9.2114|
000792  7c00              LDRB     r0,[r0,#0x10]         ;545  ; para_set1
000794  28ff              CMP      r0,#0xff              ;545
000796  d10c              BNE      |L9.1970|
000798  f44f5180          MOV      r1,#0x1000            ;547
00079c  486d              LDR      r0,|L9.2388|
00079e  f7fffffe          BL       GPIO_ResetBits
0007a2  2171              MOVS     r1,#0x71              ;548
0007a4  2048              MOVS     r0,#0x48              ;548
0007a6  f7fffffe          BL       TM1650_SET_LED
0007aa  21f2              MOVS     r1,#0xf2              ;549
0007ac  2068              MOVS     r0,#0x68              ;549
0007ae  f7fffffe          BL       TM1650_SET_LED
                  |L9.1970|
0007b2  f640018e          MOV      r1,#0x88e             ;551
0007b6  6860              LDR      r0,[r4,#4]            ;551
0007b8  f7fffffe          BL       WM_GetDialogItem
0007bc  4680              MOV      r8,r0                 ;551
0007be  495a              LDR      r1,|L9.2344|
0007c0  f7fffffe          BL       TEXT_SetFont
0007c4  f44f417f          MOV      r1,#0xff00            ;553
0007c8  4640              MOV      r0,r8                 ;553
0007ca  f7fffffe          BL       TEXT_SetTextColor
                  |L9.1998|
0007ce  2200              MOVS     r2,#0                 ;525
                  |L9.2000|
0007d0  a156              ADR      r1,|L9.2348|
0007d2  4668              MOV      r0,sp                 ;554
0007d4  f7fffffe          BL       __2sprintf
0007d8  4669              MOV      r1,sp                 ;555
                  |L9.2010|
0007da  4640              MOV      r0,r8                 ;555
0007dc  f7fffffe          BL       TEXT_SetText
                  |L9.2016|
0007e0  f8aa901e          STRH     r9,[r10,#0x1e]        ;566
0007e4  f6401107          MOV      r1,#0x907             ;567
0007e8  6860              LDR      r0,[r4,#4]            ;567
0007ea  f7fffffe          BL       WM_GetDialogItem
0007ee  f8ba201e          LDRH     r2,[r10,#0x1e]        ;568  ; short_time
0007f2  4680              MOV      r8,r0                 ;567
0007f4  a14d              ADR      r1,|L9.2348|
0007f6  4668              MOV      r0,sp                 ;568
0007f8  f7fffffe          BL       __2sprintf
0007fc  4956              LDR      r1,|L9.2392|
0007fe  4640              MOV      r0,r8                 ;569
000800  f7fffffe          BL       TEXT_SetFont
000804  4669              MOV      r1,sp                 ;570
000806  4640              MOV      r0,r8                 ;570
000808  f7fffffe          BL       TEXT_SetText
00080c  ed9f0a53          VLDR     s0,|L9.2396|
000810  f640018f          MOV      r1,#0x88f             ;573
000814  ed8a0a0b          VSTR     s0,[r10,#0x2c]        ;572
000818  6860              LDR      r0,[r4,#4]            ;573
00081a  f7fffffe          BL       WM_GetDialogItem
00081e  4680              MOV      r8,r0                 ;573
000820  f8da002c          LDR      r0,[r10,#0x2c]        ;574  ; oc_data
000824  f7fffffe          BL       __aeabi_f2d
000828  ec410b10          VMOV     d0,r0,r1              ;574
00082c  a144              ADR      r1,|L9.2368|
00082e  ec532b10          VMOV     r2,r3,d0              ;574
000832  4668              MOV      r0,sp                 ;574
000834  f7fffffe          BL       __2sprintf
000838  4669              MOV      r1,sp                 ;575
00083a  4640              MOV      r0,r8                 ;575
00083c  f7fffffe          BL       TEXT_SetText
000840  e11d              B        |L9.2686|
                  |L9.2114|
000842  f640018e          MOV      r1,#0x88e             ;558
000846  6860              LDR      r0,[r4,#4]            ;558
000848  f7fffffe          BL       WM_GetDialogItem
00084c  4680              MOV      r8,r0                 ;558
00084e  4936              LDR      r1,|L9.2344|
000850  f7fffffe          BL       TEXT_SetFont
000854  6b6a              LDR      r2,[r5,#0x34]         ;561  ; Run_Control
000856  e7bb              B        |L9.2000|
                  |L9.2136|
000858  f640018d          MOV      r1,#0x88d             ;579
00085c  6860              LDR      r0,[r4,#4]            ;579
00085e  f7fffffe          BL       WM_GetDialogItem
000862  4680              MOV      r8,r0                 ;579
000864  f8da0030          LDR      r0,[r10,#0x30]        ;580  ; v
000868  f7fffffe          BL       __aeabi_f2d
00086c  ec410b10          VMOV     d0,r0,r1              ;580
000870  a133              ADR      r1,|L9.2368|
000872  ec532b10          VMOV     r2,r3,d0              ;580
000876  4668              MOV      r0,sp                 ;580
000878  f7fffffe          BL       __2sprintf
00087c  4669              MOV      r1,sp                 ;581
00087e  4640              MOV      r0,r8                 ;581
000880  f7fffffe          BL       TEXT_SetText
000884  f640018e          MOV      r1,#0x88e             ;583
000888  6860              LDR      r0,[r4,#4]            ;583
00088a  f7fffffe          BL       WM_GetDialogItem
00088e  4680              MOV      r8,r0                 ;583
000890  4925              LDR      r1,|L9.2344|
000892  f7fffffe          BL       TEXT_SetFont
000896  f8ba201a          LDRH     r2,[r10,#0x1a]        ;585  ; r
00089a  a124              ADR      r1,|L9.2348|
00089c  4668              MOV      r0,sp                 ;585
00089e  f7fffffe          BL       __2sprintf
0008a2  4669              MOV      r1,sp                 ;586
0008a4  4640              MOV      r0,r8                 ;586
0008a6  f7fffffe          BL       TEXT_SetText
0008aa  f6401107          MOV      r1,#0x907             ;588
0008ae  6860              LDR      r0,[r4,#4]            ;588
0008b0  f7fffffe          BL       WM_GetDialogItem
0008b4  f8ba201e          LDRH     r2,[r10,#0x1e]        ;589  ; short_time
0008b8  4680              MOV      r8,r0                 ;588
0008ba  a11c              ADR      r1,|L9.2348|
0008bc  4668              MOV      r0,sp                 ;589
0008be  f7fffffe          BL       __2sprintf
0008c2  4925              LDR      r1,|L9.2392|
0008c4  4640              MOV      r0,r8                 ;590
0008c6  f7fffffe          BL       TEXT_SetFont
0008ca  4669              MOV      r1,sp                 ;591
0008cc  4640              MOV      r0,r8                 ;591
0008ce  f7fffffe          BL       TEXT_SetText
0008d2  f89a0009          LDRB     r0,[r10,#9]           ;593  ; short_finish
0008d6  b990              CBNZ     r0,|L9.2302|
0008d8  6830              LDR      r0,[r6,#0]            ;594  ; DISS_Voltage
0008da  f1b05f7e          CMP      r0,#0x3f800000        ;594
0008de  da05              BGE      |L9.2284|
0008e0  f89a2008          LDRB     r2,[r10,#8]           ;594  ; short_flag
0008e4  4651              MOV      r1,r10                ;594
0008e6  b90a              CBNZ     r2,|L9.2284|
0008e8  7b09              LDRB     r1,[r1,#0xc]          ;594  ; oct_sw
0008ea  b3c9              CBZ      r1,|L9.2400|
                  |L9.2284|
0008ec  f1b05f7e          CMP      r0,#0x3f800000        ;603
0008f0  dd65              BLE      |L9.2494|
0008f2  f89a100c          LDRB     r1,[r10,#0xc]         ;603  ; oct_sw
0008f6  4650              MOV      r0,r10                ;603
0008f8  b399              CBZ      r1,|L9.2402|
0008fa  e060              B        |L9.2494|
                  |L9.2300|
0008fc  e29d              B        |L9.3642|
                  |L9.2302|
0008fe  e095              B        |L9.2604|
                  |L9.2304|
                          DCD      r_test
                  |L9.2308|
000904  43fa0000          DCFS     0x43fa0000 ; 500
                  |L9.2312|
000908  00000000          DCFD     0x407f400000000000 ; 500
00090c  407f4000
                  |L9.2320|
                          DCD      clear_flag1
                  |L9.2324|
000914  e69caae6          DCB      230,156,170,230,181,139,232,175,149,0
000918  b58be8af
00091c  9500    
00091e  00                DCB      0
00091f  00                DCB      0
                  |L9.2336|
                          DCD      0x40020800
                  |L9.2340|
                          DCD      0x40020000
                  |L9.2344|
                          DCD      GUI_FontD24x32
                  |L9.2348|
00092c  25346400          DCB      "%4d",0
                  |L9.2352|
000930  e6b58be8          DCB      230,181,139,232,175,149,228,184,173,0
000934  af95e4b8
000938  ad00    
00093a  00                DCB      0
00093b  00                DCB      0
                  |L9.2364|
                          DCD      clear_v
                  |L9.2368|
000940  252e3366          DCB      "%.3f"
                  |L9.2372|
000944  00                DCB      0
000945  00                DCB      0
000946  00                DCB      0
000947  00                DCB      0
                  |L9.2376|
                          DCD      clear_r
                  |L9.2380|
                          DCD      GUI_FontEN40
                  |L9.2384|
                          DCD      0x3e99999a
                  |L9.2388|
                          DCD      0x40020c00
                  |L9.2392|
                          DCD      GUI_Font24_1
                  |L9.2396|
00095c  00000000          DCFS     0x00000000 ; 0
                  |L9.2400|
000960  e000              B        |L9.2404|
                  |L9.2402|
000962  e016              B        |L9.2450|
                  |L9.2404|
000964  f64030b8          MOV      r0,#0xbb8             ;596
000968  6068              STR      r0,[r5,#4]            ;596  ; Run_Control
00096a  f44f707a          MOV      r0,#0x3e8             ;597
00096e  60a8              STR      r0,[r5,#8]            ;597  ; Run_Control
000970  f44f4100          MOV      r1,#0x8000            ;599
000974  48f9              LDR      r0,|L9.3420|
000976  f7fffffe          BL       GPIO_SetBits
00097a  f8df83e4          LDR      r8,|L9.3424|
00097e  f44f5100          MOV      r1,#0x2000            ;600
000982  4640              MOV      r0,r8                 ;600
000984  f7fffffe          BL       GPIO_ResetBits
000988  2102              MOVS     r1,#2                 ;601
00098a  4640              MOV      r0,r8                 ;601
00098c  f7fffffe          BL       GPIO_SetBits
000990  e015              B        |L9.2494|
                  |L9.2450|
000992  7a01              LDRB     r1,[r0,#8]            ;603  ; short_flag
000994  b999              CBNZ     r1,|L9.2494|
000996  ed9a0a0b          VLDR     s0,[r10,#0x2c]        ;606
00099a  f2413188          MOV      r1,#0x1388            ;606
00099e  46d0              MOV      r8,r10                ;606
0009a0  ee200a0b          VMUL.F32 s0,s0,s22             ;606
0009a4  eebd0ac0          VCVT.S32.F32 s0,s0                 ;606
0009a8  ee100a10          VMOV     r0,s0                 ;606
0009ac  4408              ADD      r0,r0,r1              ;606
0009ae  6128              STR      r0,[r5,#0x10]         ;606  ; Run_Control
0009b0  f88a7008          STRB     r7,[r10,#8]           ;607
0009b4  f7fffffe          BL       GUI_GetTime
0009b8  0040              LSLS     r0,r0,#1              ;608
0009ba  f8a8001c          STRH     r0,[r8,#0x1c]         ;608
                  |L9.2494|
0009be  f89a0008          LDRB     r0,[r10,#8]           ;610  ; short_flag
0009c2  2801              CMP      r0,#1                 ;610
0009c4  d132              BNE      |L9.2604|
0009c6  f8df8398          LDR      r8,|L9.3424|
0009ca  2102              MOVS     r1,#2                 ;612
0009cc  4640              MOV      r0,r8                 ;612
0009ce  f7fffffe          BL       GPIO_ResetBits
0009d2  f44f5100          MOV      r1,#0x2000            ;613
0009d6  4640              MOV      r0,r8                 ;613
0009d8  f7fffffe          BL       GPIO_SetBits
0009dc  f44f4100          MOV      r1,#0x8000            ;614
0009e0  48de              LDR      r0,|L9.3420|
0009e2  f7fffffe          BL       GPIO_ResetBits
0009e6  6830              LDR      r0,[r6,#0]            ;616  ; DISS_Voltage
0009e8  f1b05f7e          CMP      r0,#0x3f800000        ;616
0009ec  da1e              BGE      |L9.2604|
0009ee  6da8              LDR      r0,[r5,#0x58]         ;617  ; Run_Control
0009f0  6128              STR      r0,[r5,#0x10]         ;617  ; Run_Control
0009f2  f7fffffe          BL       GUI_GetTime
0009f6  f8ba101c          LDRH     r1,[r10,#0x1c]        ;618  ; short_start
0009fa  ebc10040          RSB      r0,r1,r0,LSL #1       ;618
0009fe  f8aa001e          STRH     r0,[r10,#0x1e]        ;618
000a02  f88a9008          STRB     r9,[r10,#8]           ;619
000a06  f88a7009          STRB     r7,[r10,#9]           ;620
000a0a  f6401107          MOV      r1,#0x907             ;621
000a0e  6860              LDR      r0,[r4,#4]            ;621
000a10  f7fffffe          BL       WM_GetDialogItem
000a14  f8ba201e          LDRH     r2,[r10,#0x1e]        ;622  ; short_time
000a18  4680              MOV      r8,r0                 ;621
000a1a  f2af01f0          ADR      r1,|L9.2348|
000a1e  4668              MOV      r0,sp                 ;622
000a20  f7fffffe          BL       __2sprintf
000a24  4669              MOV      r1,sp                 ;623
000a26  4640              MOV      r0,r8                 ;623
000a28  f7fffffe          BL       TEXT_SetText
                  |L9.2604|
000a2c  f89a1009          LDRB     r1,[r10,#9]           ;627  ; short_finish
000a30  4650              MOV      r0,r10                ;627
000a32  2901              CMP      r1,#1                 ;627
000a34  d123              BNE      |L9.2686|
000a36  e000              B        |L9.2618|
                  |L9.2616|
000a38  e05e              B        |L9.2808|
                  |L9.2618|
000a3a  7ac0              LDRB     r0,[r0,#0xb]          ;627  ; test_finish
000a3c  46d0              MOV      r8,r10                ;627
000a3e  b9f0              CBNZ     r0,|L9.2686|
000a40  03c9              LSLS     r1,r1,#15             ;629
000a42  48c6              LDR      r0,|L9.3420|
000a44  f7fffffe          BL       GPIO_SetBits
000a48  f64030b8          MOV      r0,#0xbb8             ;632
000a4c  6068              STR      r0,[r5,#4]            ;632  ; Run_Control
000a4e  f44f707a          MOV      r0,#0x3e8             ;633
000a52  60a8              STR      r0,[r5,#8]            ;633  ; Run_Control
000a54  f8df9308          LDR      r9,|L9.3424|
000a58  f44f5100          MOV      r1,#0x2000            ;634
000a5c  4648              MOV      r0,r9                 ;634
000a5e  f7fffffe          BL       GPIO_ResetBits
000a62  2102              MOVS     r1,#2                 ;635
000a64  4648              MOV      r0,r9                 ;635
000a66  f7fffffe          BL       GPIO_SetBits
000a6a  f7fffffe          BL       GUI_GetTime
000a6e  f44f71fa          MOV      r1,#0x1f4             ;641
000a72  fb90f1f1          SDIV     r1,r0,r1              ;641
000a76  f8c81038          STR      r1,[r8,#0x38]         ;642  ; test_ftime
000a7a  f888700b          STRB     r7,[r8,#0xb]          ;642
                  |L9.2686|
000a7e  f640018f          MOV      r1,#0x88f             ;663
000a82  6860              LDR      r0,[r4,#4]            ;663
000a84  f7fffffe          BL       WM_GetDialogItem
000a88  4680              MOV      r8,r0                 ;663
000a8a  f8da002c          LDR      r0,[r10,#0x2c]        ;664  ; oc_data
000a8e  f7fffffe          BL       __aeabi_f2d
000a92  ec410b10          VMOV     d0,r0,r1              ;664
000a96  ec532b10          VMOV     r2,r3,d0              ;664
000a9a  f2af115c          ADR      r1,|L9.2368|
000a9e  4668              MOV      r0,sp                 ;664
000aa0  f7fffffe          BL       __2sprintf
000aa4  4669              MOV      r1,sp                 ;665
000aa6  4640              MOV      r0,r8                 ;665
000aa8  f7fffffe          BL       TEXT_SetText
000aac  f44f6109          MOV      r1,#0x890             ;667
000ab0  6860              LDR      r0,[r4,#4]            ;667
000ab2  f7fffffe          BL       WM_GetDialogItem
000ab6  4680              MOV      r8,r0                 ;667
000ab8  48aa              LDR      r0,|L9.3428|
000aba  6800              LDR      r0,[r0,#0]            ;668  ; DISS_Current
000abc  f7fffffe          BL       __aeabi_f2d
000ac0  ec410b10          VMOV     d0,r0,r1              ;668
000ac4  ec532b10          VMOV     r2,r3,d0              ;668
000ac8  f2af118c          ADR      r1,|L9.2368|
000acc  4668              MOV      r0,sp                 ;668
000ace  f7fffffe          BL       __2sprintf
000ad2  e050              B        |L9.2934|
                  |L9.2772|
000ad4  46d8              MOV      r8,r11                ;675
000ad6  7157              STRB     r7,[r2,#5]            ;675
000ad8  f7fffffe          BL       GUI_GetTime
000adc  f44f71fa          MOV      r1,#0x1f4             ;676
000ae0  fb90f1f1          SDIV     r1,r0,r1              ;676
000ae4  f8a81016          STRH     r1,[r8,#0x16]         ;676
000ae8  e006              B        |L9.2808|
                  |L9.2794|
000aea  f44f5100          MOV      r1,#0x2000            ;681
000aee  489e              LDR      r0,|L9.3432|
000af0  f7fffffe          BL       GPIO_SetBits
000af4  f88a7000          STRB     r7,[r10,#0]           ;682
                  |L9.2808|
000af8  f8df9270          LDR      r9,|L9.3436|
000afc  f8990000          LDRB     r0,[r9,#0]            ;686  ; clear_flag1
000b00  2801              CMP      r0,#1                 ;686
000b02  d112              BNE      |L9.2858|
000b04  489a              LDR      r0,|L9.3440|
000b06  ed960a00          VLDR     s0,[r6,#0]            ;686
000b0a  edd00a00          VLDR     s1,[r0,#0]            ;686
000b0e  eeb40ae0          VCMPE.F32 s0,s1                 ;686
000b12  eef1fa10          VMRS     APSR_nzcv,FPSCR       ;686
000b16  d808              BHI      |L9.2858|
000b18  f640018d          MOV      r1,#0x88d             ;688
000b1c  6860              LDR      r0,[r4,#4]            ;688
000b1e  f7fffffe          BL       WM_GetDialogItem
000b22  4680              MOV      r8,r0                 ;688
000b24  ec532b19          VMOV     r2,r3,d9              ;689
000b28  e00c              B        |L9.2884|
                  |L9.2858|
000b2a  f640018d          MOV      r1,#0x88d             ;692
000b2e  6860              LDR      r0,[r4,#4]            ;692
000b30  f7fffffe          BL       WM_GetDialogItem
000b34  4680              MOV      r8,r0                 ;692
000b36  6830              LDR      r0,[r6,#0]            ;693  ; DISS_Voltage
000b38  f7fffffe          BL       __aeabi_f2d
000b3c  ec410b10          VMOV     d0,r0,r1              ;693
000b40  ec532b10          VMOV     r2,r3,d0              ;693
                  |L9.2884|
000b44  f2af2108          ADR      r1,|L9.2368|
000b48  4668              MOV      r0,sp                 ;693
000b4a  f7fffffe          BL       __2sprintf
000b4e  4669              MOV      r1,sp                 ;694
000b50  4640              MOV      r0,r8                 ;694
000b52  f7fffffe          BL       TEXT_SetText
000b56  f8990000          LDRB     r0,[r9,#0]            ;696  ; clear_flag1
000b5a  2801              CMP      r0,#1                 ;696
000b5c  d10d              BNE      |L9.2938|
000b5e  6b69              LDR      r1,[r5,#0x34]         ;696  ; Run_Control
000b60  4884              LDR      r0,|L9.3444|
000b62  7800              LDRB     r0,[r0,#0]            ;696  ; clear_r
000b64  4281              CMP      r1,r0                 ;696
000b66  d808              BHI      |L9.2938|
000b68  f640018e          MOV      r1,#0x88e             ;698
000b6c  6860              LDR      r0,[r4,#4]            ;698
000b6e  f7fffffe          BL       WM_GetDialogItem
000b72  4680              MOV      r8,r0                 ;698
000b74  e05b              B        |L9.3118|
                  |L9.2934|
000b76  4669              MOV      r1,sp                 ;669
000b78  e00e              B        |L9.2968|
                  |L9.2938|
000b7a  6b68              LDR      r0,[r5,#0x34]         ;702  ; Run_Control
000b7c  f5b06ffa          CMP      r0,#0x7d0             ;702
000b80  d30e              BCC      |L9.2976|
000b82  f640018e          MOV      r1,#0x88e             ;704
000b86  6860              LDR      r0,[r4,#4]            ;704
000b88  f7fffffe          BL       WM_GetDialogItem
000b8c  4680              MOV      r8,r0                 ;704
000b8e  497a              LDR      r1,|L9.3448|
000b90  f7fffffe          BL       TEXT_SetFont
000b94  f2af2154          ADR      r1,|L9.2372|
                  |L9.2968|
000b98  4640              MOV      r0,r8                 ;729
000b9a  f7fffffe          BL       TEXT_SetText
000b9e  e010              B        |L9.3010|
                  |L9.2976|
000ba0  f7fffffe          BL       GUI_GetTime
000ba4  f44f71fa          MOV      r1,#0x1f4             ;708
000ba8  fb90f1f1          SDIV     r1,r0,r1              ;708
000bac  f8bb2016          LDRH     r2,[r11,#0x16]        ;708  ; stable_time
000bb0  4658              MOV      r0,r11                ;708
000bb2  1a89              SUBS     r1,r1,r2              ;708
000bb4  2901              CMP      r1,#1                 ;708
000bb6  d102              BNE      |L9.3006|
000bb8  7941              LDRB     r1,[r0,#5]            ;708  ; r_stable
000bba  2901              CMP      r1,#1                 ;708
000bbc  d006              BEQ      |L9.3020|
                  |L9.3006|
000bbe  7941              LDRB     r1,[r0,#5]            ;715  ; r_stable
000bc0  b199              CBZ      r1,|L9.3050|
                  |L9.3010|
000bc2  f89b0010          LDRB     r0,[r11,#0x10]        ;745  ; para_set1
000bc6  28ff              CMP      r0,#0xff              ;745
000bc8  d043              BEQ      |L9.3154|
000bca  e04c              B        |L9.3174|
                  |L9.3020|
000bcc  6b69              LDR      r1,[r5,#0x34]         ;710  ; Run_Control
000bce  46d9              MOV      r9,r11                ;710
000bd0  8341              STRH     r1,[r0,#0x1a]         ;710
000bd2  f640018e          MOV      r1,#0x88e             ;711
000bd6  6860              LDR      r0,[r4,#4]            ;711
000bd8  f7fffffe          BL       WM_GetDialogItem
000bdc  4680              MOV      r8,r0                 ;711
000bde  4967              LDR      r1,|L9.3452|
000be0  f7fffffe          BL       TEXT_SetFont
000be4  f8b9201a          LDRH     r2,[r9,#0x1a]         ;713  ; r
000be8  e022              B        |L9.3120|
                  |L9.3050|
000bea  4a65              LDR      r2,|L9.3456|
000bec  6831              LDR      r1,[r6,#0]            ;717  ; DISS_Voltage
000bee  4291              CMP      r1,r2                 ;717
000bf0  da24              BGE      |L9.3132|
000bf2  7c00              LDRB     r0,[r0,#0x10]         ;719  ; para_set1
000bf4  28ff              CMP      r0,#0xff              ;719
000bf6  d10c              BNE      |L9.3090|
000bf8  f44f5180          MOV      r1,#0x1000            ;721
000bfc  4861              LDR      r0,|L9.3460|
000bfe  f7fffffe          BL       GPIO_ResetBits
000c02  2171              MOVS     r1,#0x71              ;722
000c04  2048              MOVS     r0,#0x48              ;722
000c06  f7fffffe          BL       TM1650_SET_LED
000c0a  21f2              MOVS     r1,#0xf2              ;723
000c0c  2068              MOVS     r0,#0x68              ;723
000c0e  f7fffffe          BL       TM1650_SET_LED
                  |L9.3090|
000c12  f640018e          MOV      r1,#0x88e             ;725
000c16  6860              LDR      r0,[r4,#4]            ;725
000c18  f7fffffe          BL       WM_GetDialogItem
000c1c  4680              MOV      r8,r0                 ;725
000c1e  4957              LDR      r1,|L9.3452|
000c20  f7fffffe          BL       TEXT_SetFont
000c24  f44f417f          MOV      r1,#0xff00            ;727
000c28  4640              MOV      r0,r8                 ;727
000c2a  f7fffffe          BL       TEXT_SetTextColor
                  |L9.3118|
000c2e  2200              MOVS     r2,#0                 ;699
                  |L9.3120|
000c30  f2af3108          ADR      r1,|L9.2348|
000c34  4668              MOV      r0,sp                 ;728
000c36  f7fffffe          BL       __2sprintf
000c3a  e79c              B        |L9.2934|
                  |L9.3132|
000c3c  f640018e          MOV      r1,#0x88e             ;732
000c40  6860              LDR      r0,[r4,#4]            ;732
000c42  f7fffffe          BL       WM_GetDialogItem
000c46  4680              MOV      r8,r0                 ;732
000c48  494c              LDR      r1,|L9.3452|
000c4a  f7fffffe          BL       TEXT_SetFont
000c4e  6b6a              LDR      r2,[r5,#0x34]         ;735  ; Run_Control
000c50  e7ee              B        |L9.3120|
                  |L9.3154|
000c52  f89b000c          LDRB     r0,[r11,#0xc]         ;745  ; oct_sw
000c56  b930              CBNZ     r0,|L9.3174|
000c58  6830              LDR      r0,[r6,#0]            ;745  ; DISS_Voltage
000c5a  f1b05f7e          CMP      r0,#0x3f800000        ;745
000c5e  dd02              BLE      |L9.3174|
000c60  f7fffffe          BL       test_r
000c64  e00d              B        |L9.3202|
                  |L9.3174|
000c66  f89b000f          LDRB     r0,[r11,#0xf]         ;748  ; led_sw
000c6a  b950              CBNZ     r0,|L9.3202|
000c6c  2170              MOVS     r1,#0x70              ;750
000c6e  2068              MOVS     r0,#0x68              ;750
000c70  f7fffffe          BL       TM1650_SET_LED
000c74  f44f5180          MOV      r1,#0x1000            ;751
000c78  4842              LDR      r0,|L9.3460|
000c7a  f7fffffe          BL       GPIO_ResetBits
000c7e  f88b700f          STRB     r7,[r11,#0xf]         ;752
                  |L9.3202|
000c82  f89b100c          LDRB     r1,[r11,#0xc]         ;756  ; oct_sw
000c86  4658              MOV      r0,r11                ;756
000c88  bb01              CBNZ     r1,|L9.3276|
000c8a  7c40              LDRB     r0,[r0,#0x11]         ;758  ; b_type
000c8c  493e              LDR      r1,|L9.3464|
000c8e  4a3f              LDR      r2,|L9.3468|
000c90  2806              CMP      r0,#6                 ;758
000c92  d21b              BCS      |L9.3276|
000c94  e8dff000          TBB      [pc,r0]               ;758
000c98  1a033a4d          DCB      0x1a,0x03,0x3a,0x4d
000c9c  9cb1              DCB      0x9c,0xb1
000c9e  6b68              LDR      r0,[r5,#0x34]         ;762  ; Run_Control
000ca0  b398              CBZ      r0,|L9.3338|
000ca2  493b              LDR      r1,|L9.3472|
000ca4  6830              LDR      r0,[r6,#0]            ;762  ; DISS_Voltage
000ca6  4288              CMP      r0,r1                 ;762
000ca8  db2f              BLT      |L9.3338|
000caa  493a              LDR      r1,|L9.3476|
000cac  4288              CMP      r0,r1                 ;762
000cae  dc2c              BGT      |L9.3338|
000cb0  f6401104          MOV      r1,#0x904             ;764
000cb4  6860              LDR      r0,[r4,#4]            ;764
000cb6  f7fffffe          BL       WM_GetDialogItem
000cba  4605              MOV      r5,r0                 ;764
000cbc  f06f417f          MVN      r1,#0xff000000        ;765
000cc0  f7fffffe          BL       TEXT_SetTextColor
000cc4  a134              ADR      r1,|L9.3480|
                  |L9.3270|
000cc6  4628              MOV      r0,r5                 ;770
000cc8  f7fffffe          BL       TEXT_SetText
                  |L9.3276|
000ccc  f6401109          MOV      r1,#0x909             ;833
000cd0  6860              LDR      r0,[r4,#4]            ;833
000cd2  f7fffffe          BL       WM_GetDialogItem
000cd6  4605              MOV      r5,r0                 ;833
000cd8  4832              LDR      r0,|L9.3492|
000cda  6800              LDR      r0,[r0,#0]            ;834  ; temp
000cdc  f7fffffe          BL       __aeabi_f2d
000ce0  ec410b10          VMOV     d0,r0,r1              ;834
000ce4  a130              ADR      r1,|L9.3496|
000ce6  ec532b10          VMOV     r2,r3,d0              ;834
000cea  4668              MOV      r0,sp                 ;834
000cec  f7fffffe          BL       __2sprintf
000cf0  4669              MOV      r1,sp                 ;835
000cf2  4628              MOV      r0,r5                 ;835
000cf4  f7fffffe          BL       TEXT_SetText
000cf8  2132              MOVS     r1,#0x32              ;838
000cfa  68e0              LDR      r0,[r4,#0xc]          ;838
000cfc  f7fffffe          BL       WM_RestartTimer
                  |L9.3328|
000d00  b003              ADD      sp,sp,#0xc
000d02  ecbd8b08          VPOP     {d8-d11}
000d06  e8bd8ff0          POP      {r4-r11,pc}
                  |L9.3338|
000d0a  e025              B        |L9.3416|
000d0c  6b68              LDR      r0,[r5,#0x34]         ;776  ; Run_Control
000d0e  b318              CBZ      r0,|L9.3416|
000d10  6830              LDR      r0,[r6,#0]            ;776  ; DISS_Voltage
000d12  4288              CMP      r0,r1                 ;776
000d14  dd20              BLE      |L9.3416|
000d16  4290              CMP      r0,r2                 ;776
000d18  dc1e              BGT      |L9.3416|
000d1a  f6401104          MOV      r1,#0x904             ;778
000d1e  6860              LDR      r0,[r4,#4]            ;778
000d20  f7fffffe          BL       WM_GetDialogItem
000d24  4605              MOV      r5,r0                 ;778
000d26  f06f417f          MVN      r1,#0xff000000        ;779
000d2a  f7fffffe          BL       TEXT_SetTextColor
000d2e  a120              ADR      r1,|L9.3504|
000d30  e7c9              B        |L9.3270|
000d32  6b68              LDR      r0,[r5,#0x34]         ;790  ; Run_Control
000d34  b180              CBZ      r0,|L9.3416|
000d36  6830              LDR      r0,[r6,#0]            ;790  ; DISS_Voltage
000d38  4288              CMP      r0,r1                 ;790
000d3a  dd73              BLE      |L9.3620|
000d3c  4290              CMP      r0,r2                 ;790
000d3e  dc71              BGT      |L9.3620|
000d40  f6401104          MOV      r1,#0x904             ;792
000d44  6860              LDR      r0,[r4,#4]            ;792
000d46  f7fffffe          BL       WM_GetDialogItem
000d4a  4605              MOV      r5,r0                 ;792
000d4c  f06f417f          MVN      r1,#0xff000000        ;793
000d50  f7fffffe          BL       TEXT_SetTextColor
000d54  a11a              ADR      r1,|L9.3520|
000d56  e7b6              B        |L9.3270|
                  |L9.3416|
000d58  e064              B        |L9.3620|
000d5a  0000              DCW      0x0000
                  |L9.3420|
                          DCD      0x40020000
                  |L9.3424|
                          DCD      0x40020800
                  |L9.3428|
                          DCD      DISS_Current
                  |L9.3432|
                          DCD      0x40020400
                  |L9.3436|
                          DCD      clear_flag1
                  |L9.3440|
                          DCD      clear_v
                  |L9.3444|
                          DCD      clear_r
                  |L9.3448|
                          DCD      GUI_FontEN40
                  |L9.3452|
                          DCD      GUI_FontD24x32
                  |L9.3456|
                          DCD      0x3e99999a
                  |L9.3460|
                          DCD      0x40020c00
                  |L9.3464|
                          DCD      0x3f666666
                  |L9.3468|
                          DCD      0x3fb33333
                  |L9.3472|
                          DCD      0x4059999a
                  |L9.3476|
                          DCD      0x40866666
                  |L9.3480|
000d98  e99482e7          DCB      233,148,130,231,148,181,230,177,160,0
000d9c  94b5e6b1
000da0  a000    
000da2  00                DCB      0
000da3  00                DCB      0
                  |L9.3492|
                          DCD      temp
                  |L9.3496|
000da8  252e3166          DCB      "%.1f",0
000dac  00      
000dad  00                DCB      0
000dae  00                DCB      0
000daf  00                DCB      0
                  |L9.3504|
000db0  e9958de6          DCB      233,149,141,230,176,162,231,148,181,230,177,160,0
000db4  b0a2e794
000db8  b5e6b1a0
000dbc  00      
000dbd  00                DCB      0
000dbe  00                DCB      0
000dbf  00                DCB      0
                  |L9.3520|
000dc0  e9958de9          DCB      233,149,141,233,149,137,231,148,181,230,177,160,0
000dc4  9589e794
000dc8  b5e6b1a0
000dcc  00      
000dcd  00                DCB      0
000dce  00                DCB      0
000dcf  00                DCB      0
000dd0  6b68              LDR      r0,[r5,#0x34]         ;804  ; Run_Control
000dd2  b338              CBZ      r0,|L9.3620|
000dd4  49fc              LDR      r1,|L9.4552|
000dd6  6830              LDR      r0,[r6,#0]            ;804  ; DISS_Voltage
000dd8  4288              CMP      r0,r1                 ;804
000dda  dd23              BLE      |L9.3620|
000ddc  49fb              LDR      r1,|L9.4556|
000dde  4288              CMP      r0,r1                 ;804
000de0  da20              BGE      |L9.3620|
000de2  f6401104          MOV      r1,#0x904             ;806
000de6  6860              LDR      r0,[r4,#4]            ;806
000de8  f7fffffe          BL       WM_GetDialogItem
000dec  4605              MOV      r5,r0                 ;806
000dee  f06f417f          MVN      r1,#0xff000000        ;807
000df2  f7fffffe          BL       TEXT_SetTextColor
000df6  a1f6              ADR      r1,|L9.4560|
000df8  e765              B        |L9.3270|
000dfa  6b68              LDR      r0,[r5,#0x34]         ;818  ; Run_Control
000dfc  b190              CBZ      r0,|L9.3620|
000dfe  49f9              LDR      r1,|L9.4580|
000e00  6830              LDR      r0,[r6,#0]            ;818  ; DISS_Voltage
000e02  4288              CMP      r0,r1                 ;818
000e04  dd0e              BLE      |L9.3620|
000e06  49f8              LDR      r1,|L9.4584|
000e08  4288              CMP      r0,r1                 ;818
000e0a  dc0b              BGT      |L9.3620|
000e0c  f6401104          MOV      r1,#0x904             ;820
000e10  6860              LDR      r0,[r4,#4]            ;820
000e12  f7fffffe          BL       WM_GetDialogItem
000e16  4605              MOV      r5,r0                 ;820
000e18  f06f417f          MVN      r1,#0xff000000        ;821
000e1c  f7fffffe          BL       TEXT_SetTextColor
000e20  a1f2              ADR      r1,|L9.4588|
000e22  e750              B        |L9.3270|
                  |L9.3620|
000e24  f6401104          MOV      r1,#0x904             ;824
000e28  6860              LDR      r0,[r4,#4]            ;824
000e2a  f7fffffe          BL       WM_GetDialogItem
000e2e  4605              MOV      r5,r0                 ;824
000e30  21ff              MOVS     r1,#0xff              ;825
000e32  f7fffffe          BL       TEXT_SetTextColor
000e36  a1f0              ADR      r1,|L9.4600|
000e38  e745              B        |L9.3270|
                  |L9.3642|
000e3a  6865              LDR      r5,[r4,#4]            ;849
000e3c  2100              MOVS     r1,#0                 ;849
000e3e  4628              MOV      r0,r5                 ;849
000e40  f7fffffe          BL       WINDOW_SetBkColor
000e44  2300              MOVS     r3,#0                 ;850
000e46  f44f72fa          MOV      r2,#0x1f4             ;850
000e4a  2101              MOVS     r1,#1                 ;850
000e4c  4628              MOV      r0,r5                 ;850
000e4e  f7fffffe          BL       WM_CreateTimer
000e52  f6400119          MOV      r1,#0x819             ;854
000e56  6860              LDR      r0,[r4,#4]            ;854
000e58  f7fffffe          BL       WM_GetDialogItem
000e5c  4605              MOV      r5,r0                 ;854
000e5e  2101              MOVS     r1,#1                 ;857
000e60  f7fffffe          BL       BUTTON_SetPressed
000e64  49e5              LDR      r1,|L9.4604|
000e66  4628              MOV      r0,r5                 ;858
000e68  f7fffffe          BL       BUTTON_SetFont
000e6c  f7fffffe          BL       GUI_UC_SetEncodeUTF8
000e70  a1e3              ADR      r1,|L9.4608|
000e72  4628              MOV      r0,r5                 ;860
000e74  f7fffffe          BL       BUTTON_SetText
000e78  f640011a          MOV      r1,#0x81a             ;862
000e7c  6860              LDR      r0,[r4,#4]            ;862
000e7e  f7fffffe          BL       WM_GetDialogItem
000e82  4605              MOV      r5,r0                 ;862
000e84  49dd              LDR      r1,|L9.4604|
000e86  f7fffffe          BL       BUTTON_SetFont
000e8a  f7fffffe          BL       GUI_UC_SetEncodeUTF8
000e8e  a1e0              ADR      r1,|L9.4624|
000e90  4628              MOV      r0,r5                 ;866
000e92  f7fffffe          BL       BUTTON_SetText
000e96  f640011b          MOV      r1,#0x81b             ;868
000e9a  6860              LDR      r0,[r4,#4]            ;868
000e9c  f7fffffe          BL       WM_GetDialogItem
000ea0  4605              MOV      r5,r0                 ;868
000ea2  49d6              LDR      r1,|L9.4604|
000ea4  f7fffffe          BL       BUTTON_SetFont
000ea8  f7fffffe          BL       GUI_UC_SetEncodeUTF8
000eac  a1dc              ADR      r1,|L9.4640|
000eae  4628              MOV      r0,r5                 ;872
000eb0  f7fffffe          BL       BUTTON_SetText
000eb4  f640011c          MOV      r1,#0x81c             ;874
000eb8  6860              LDR      r0,[r4,#4]            ;874
000eba  f7fffffe          BL       WM_GetDialogItem
000ebe  4605              MOV      r5,r0                 ;874
000ec0  49ce              LDR      r1,|L9.4604|
000ec2  f7fffffe          BL       BUTTON_SetFont
000ec6  f7fffffe          BL       GUI_UC_SetEncodeUTF8
000eca  a1d9              ADR      r1,|L9.4656|
000ecc  4628              MOV      r0,r5                 ;878
000ece  f7fffffe          BL       BUTTON_SetText
000ed2  f640011d          MOV      r1,#0x81d             ;882
000ed6  6860              LDR      r0,[r4,#4]            ;882
000ed8  f7fffffe          BL       WM_GetDialogItem
000edc  4605              MOV      r5,r0                 ;882
000ede  49c7              LDR      r1,|L9.4604|
000ee0  f7fffffe          BL       BUTTON_SetFont
000ee4  f7fffffe          BL       GUI_UC_SetEncodeUTF8
000ee8  a1d4              ADR      r1,|L9.4668|
000eea  4628              MOV      r0,r5                 ;886
000eec  f7fffffe          BL       BUTTON_SetText
000ef0  f6400113          MOV      r1,#0x813             ;890
000ef4  6860              LDR      r0,[r4,#4]            ;890
000ef6  f7fffffe          BL       WM_GetDialogItem
000efa  4680              MOV      r8,r0                 ;890
000efc  464d              MOV      r5,r9                 ;891
000efe  4649              MOV      r1,r9                 ;891
000f00  f7fffffe          BL       TEXT_SetTextColor
000f04  49cf              LDR      r1,|L9.4676|
000f06  4640              MOV      r0,r8                 ;892
000f08  f7fffffe          BL       TEXT_SetFont
000f0c  f7fffffe          BL       GUI_UC_SetEncodeUTF8
000f10  a1cd              ADR      r1,|L9.4680|
000f12  4640              MOV      r0,r8                 ;894
000f14  f7fffffe          BL       TEXT_SetText
000f18  f6400115          MOV      r1,#0x815             ;901
000f1c  6860              LDR      r0,[r4,#4]            ;901
000f1e  f7fffffe          BL       WM_GetDialogItem
000f22  4680              MOV      r8,r0                 ;901
000f24  f6af21c0          ADR      r1,|L9.1128|
000f28  f7fffffe          BL       TEXT_SetText
000f2c  4629              MOV      r1,r5                 ;903
000f2e  4640              MOV      r0,r8                 ;903
000f30  f7fffffe          BL       TEXT_SetTextColor
000f34  49c3              LDR      r1,|L9.4676|
000f36  4640              MOV      r0,r8                 ;904
000f38  f7fffffe          BL       TEXT_SetFont
000f3c  f6400116          MOV      r1,#0x816             ;908
000f40  6860              LDR      r0,[r4,#4]            ;908
000f42  f7fffffe          BL       WM_GetDialogItem
000f46  4680              MOV      r8,r0                 ;908
000f48  f7fffffe          BL       GUI_UC_SetEncodeUTF8
000f4c  f6af21ac          ADR      r1,|L9.1188|
000f50  4640              MOV      r0,r8                 ;910
000f52  f7fffffe          BL       TEXT_SetText
000f56  4629              MOV      r1,r5                 ;911
000f58  4640              MOV      r0,r8                 ;911
000f5a  f7fffffe          BL       TEXT_SetTextColor
000f5e  49bb              LDR      r1,|L9.4684|
000f60  4640              MOV      r0,r8                 ;912
000f62  f7fffffe          BL       TEXT_SetFont
000f66  f6400117          MOV      r1,#0x817             ;916
000f6a  6860              LDR      r0,[r4,#4]            ;916
000f6c  f7fffffe          BL       WM_GetDialogItem
000f70  4680              MOV      r8,r0                 ;916
000f72  f7fffffe          BL       GUI_UC_SetEncodeUTF8
000f76  f6af21d8          ADR      r1,|L9.1184|
000f7a  4640              MOV      r0,r8                 ;918
000f7c  f7fffffe          BL       TEXT_SetText
000f80  4629              MOV      r1,r5                 ;919
000f82  4640              MOV      r0,r8                 ;919
000f84  f7fffffe          BL       TEXT_SetTextColor
000f88  49ae              LDR      r1,|L9.4676|
000f8a  4640              MOV      r0,r8                 ;920
000f8c  f7fffffe          BL       TEXT_SetFont
000f90  f640018d          MOV      r1,#0x88d             ;922
000f94  6860              LDR      r0,[r4,#4]            ;922
000f96  f7fffffe          BL       WM_GetDialogItem
000f9a  4605              MOV      r5,r0                 ;922
000f9c  6830              LDR      r0,[r6,#0]            ;923  ; DISS_Voltage
000f9e  f7fffffe          BL       __aeabi_f2d
000fa2  ec410b10          VMOV     d0,r0,r1              ;923
000fa6  ec532b10          VMOV     r2,r3,d0              ;923
000faa  f2af616c          ADR      r1,|L9.2368|
000fae  4668              MOV      r0,sp                 ;923
000fb0  f7fffffe          BL       __2sprintf
000fb4  f44f467f          MOV      r6,#0xff00            ;924
000fb8  4631              MOV      r1,r6                 ;924
000fba  4628              MOV      r0,r5                 ;924
000fbc  f7fffffe          BL       TEXT_SetTextColor
000fc0  49a3              LDR      r1,|L9.4688|
000fc2  4628              MOV      r0,r5                 ;925
000fc4  f7fffffe          BL       TEXT_SetFont
000fc8  f7fffffe          BL       GUI_UC_SetEncodeUTF8
000fcc  4669              MOV      r1,sp                 ;927
000fce  4628              MOV      r0,r5                 ;927
000fd0  f7fffffe          BL       TEXT_SetText
000fd4  f640018e          MOV      r1,#0x88e             ;929
000fd8  6860              LDR      r0,[r4,#4]            ;929
000fda  f7fffffe          BL       WM_GetDialogItem
000fde  4605              MOV      r5,r0                 ;929
000fe0  2200              MOVS     r2,#0                 ;930
000fe2  a19c              ADR      r1,|L9.4692|
000fe4  4668              MOV      r0,sp                 ;930
000fe6  f7fffffe          BL       __2sprintf
000fea  4631              MOV      r1,r6                 ;931
000fec  4628              MOV      r0,r5                 ;931
000fee  f7fffffe          BL       TEXT_SetTextColor
000ff2  4997              LDR      r1,|L9.4688|
000ff4  4628              MOV      r0,r5                 ;932
000ff6  f7fffffe          BL       TEXT_SetFont
000ffa  f7fffffe          BL       GUI_UC_SetEncodeUTF8
000ffe  4669              MOV      r1,sp                 ;934
001000  4628              MOV      r0,r5                 ;934
001002  f7fffffe          BL       TEXT_SetText
001006  f6401104          MOV      r1,#0x904             ;936
00100a  6860              LDR      r0,[r4,#4]            ;936
00100c  f7fffffe          BL       WM_GetDialogItem
001010  f06f457f          MVN      r5,#0xff000000        ;937
001014  4680              MOV      r8,r0                 ;936
001016  4629              MOV      r1,r5                 ;937
001018  f7fffffe          BL       TEXT_SetTextColor
00101c  498f              LDR      r1,|L9.4700|
00101e  4640              MOV      r0,r8                 ;938
001020  f7fffffe          BL       TEXT_SetFont
001024  f7fffffe          BL       GUI_UC_SetEncodeUTF8
001028  a173              ADR      r1,|L9.4600|
00102a  4640              MOV      r0,r8                 ;940
00102c  f7fffffe          BL       TEXT_SetText
001030  f6401109          MOV      r1,#0x909             ;942
001034  6860              LDR      r0,[r4,#4]            ;942
001036  f7fffffe          BL       WM_GetDialogItem
00103a  4680              MOV      r8,r0                 ;942
00103c  4631              MOV      r1,r6                 ;943
00103e  f7fffffe          BL       TEXT_SetTextColor
001042  4987              LDR      r1,|L9.4704|
001044  4640              MOV      r0,r8                 ;944
001046  f7fffffe          BL       TEXT_SetFont
00104a  4886              LDR      r0,|L9.4708|
00104c  6800              LDR      r0,[r0,#0]            ;945  ; temp
00104e  f7fffffe          BL       __aeabi_f2d
001052  ec410b10          VMOV     d0,r0,r1              ;945
001056  ec532b10          VMOV     r2,r3,d0              ;945
00105a  f2af21b4          ADR      r1,|L9.3496|
00105e  4668              MOV      r0,sp                 ;945
001060  f7fffffe          BL       __2sprintf
001064  4669              MOV      r1,sp                 ;946
001066  4640              MOV      r0,r8                 ;946
001068  f7fffffe          BL       TEXT_SetText
00106c  7bb8              LDRB     r0,[r7,#0xe]          ;948  ; manual
00106e  f640110a          MOV      r1,#0x90a             ;973
001072  2800              CMP      r0,#0                 ;948
001074  6860              LDR      r0,[r4,#4]            ;948
001076  d07c              BEQ      |L9.4466|
001078  f7fffffe          BL       WM_GetDialogItem
00107c  4680              MOV      r8,r0                 ;973
00107e  21ff              MOVS     r1,#0xff              ;974
001080  f7fffffe          BL       TEXT_SetTextColor
001084  4976              LDR      r1,|L9.4704|
001086  4640              MOV      r0,r8                 ;975
001088  f7fffffe          BL       TEXT_SetFont
00108c  f7fffffe          BL       GUI_UC_SetEncodeUTF8
001090  f6af4100          ADR      r1,|L9.1172|
001094  4640              MOV      r0,r8                 ;977
001096  f7fffffe          BL       TEXT_SetText
00109a  f89a0000          LDRB     r0,[r10,#0]           ;979  ; r_raly
00109e  f640110b          MOV      r1,#0x90b             ;998
0010a2  2801              CMP      r0,#1                 ;979
0010a4  6860              LDR      r0,[r4,#4]            ;979
0010a6  d07d              BEQ      |L9.4516|
0010a8  f7fffffe          BL       WM_GetDialogItem
0010ac  4680              MOV      r8,r0                 ;998
0010ae  21ff              MOVS     r1,#0xff              ;999
0010b0  f7fffffe          BL       TEXT_SetTextColor
0010b4  496a              LDR      r1,|L9.4704|
0010b6  4640              MOV      r0,r8                 ;1000
0010b8  f7fffffe          BL       TEXT_SetFont
0010bc  f7fffffe          BL       GUI_UC_SetEncodeUTF8
0010c0  f6af4128          ADR      r1,|L9.1180|
                  |L9.4292|
0010c4  4640              MOV      r0,r8                 ;985
0010c6  f7fffffe          BL       TEXT_SetText
0010ca  f640110c          MOV      r1,#0x90c             ;987
0010ce  6860              LDR      r0,[r4,#4]            ;987
0010d0  f7fffffe          BL       WM_GetDialogItem
0010d4  4680              MOV      r8,r0                 ;987
0010d6  21ff              MOVS     r1,#0xff              ;988
0010d8  f7fffffe          BL       TEXT_SetTextColor
0010dc  4960              LDR      r1,|L9.4704|
0010de  4640              MOV      r0,r8                 ;989
0010e0  f7fffffe          BL       TEXT_SetFont
0010e4  f7fffffe          BL       GUI_UC_SetEncodeUTF8
0010e8  f6af414c          ADR      r1,|L9.1184|
0010ec  4640              MOV      r0,r8                 ;991
0010ee  f7fffffe          BL       TEXT_SetText
0010f2  f640110d          MOV      r1,#0x90d             ;992
0010f6  6860              LDR      r0,[r4,#4]            ;992
0010f8  f7fffffe          BL       WM_GetDialogItem
0010fc  4680              MOV      r8,r0                 ;992
0010fe  21ff              MOVS     r1,#0xff              ;993
001100  f7fffffe          BL       TEXT_SetTextColor
001104  493d              LDR      r1,|L9.4604|
001106  4640              MOV      r0,r8                 ;994
001108  f7fffffe          BL       TEXT_SetFont
00110c  f7fffffe          BL       GUI_UC_SetEncodeUTF8
001110  f6af4170          ADR      r1,|L9.1188|
                  |L9.4372|
001114  4640              MOV      r0,r8                 ;996
001116  f7fffffe          BL       TEXT_SetText
00111a  78f8              LDRB     r0,[r7,#3]            ;1017  ; para_set2
00111c  f6400114          MOV      r1,#0x814             ;1020
001120  f6400968          MOV      r9,#0x868             ;1027
001124  f6400a69          MOV      r10,#0x869            ;1033
001128  f6400b6a          MOV      r11,#0x86a            ;1039
00112c  2800              CMP      r0,#0                 ;1017
00112e  d04a              BEQ      |L9.4550|
001130  28ff              CMP      r0,#0xff              ;1017
001132  f47fade5          BNE      |L9.3328|
001136  6860              LDR      r0,[r4,#4]            ;1020
001138  f7fffffe          BL       WM_GetDialogItem
00113c  4680              MOV      r8,r0                 ;1020
00113e  f7fffffe          BL       GUI_UC_SetEncodeUTF8
001142  a149              ADR      r1,|L9.4712|
001144  4640              MOV      r0,r8                 ;1022
001146  f7fffffe          BL       TEXT_SetText
00114a  494b              LDR      r1,|L9.4728|
00114c  4640              MOV      r0,r8                 ;1023
00114e  f7fffffe          BL       TEXT_SetBkColor
001152  2100              MOVS     r1,#0                 ;1024
001154  4640              MOV      r0,r8                 ;1024
001156  f7fffffe          BL       TEXT_SetTextColor
00115a  4940              LDR      r1,|L9.4700|
00115c  4640              MOV      r0,r8                 ;1025
00115e  f7fffffe          BL       TEXT_SetFont
001162  4649              MOV      r1,r9                 ;1027
001164  6860              LDR      r0,[r4,#4]            ;1027
001166  f7fffffe          BL       WM_GetDialogItem
00116a  4680              MOV      r8,r0                 ;1027
00116c  f7fffffe          BL       GUI_UC_SetEncodeUTF8
001170  e000              B        |L9.4468|
                  |L9.4466|
001172  e1b2              B        |L9.5338|
                  |L9.4468|
001174  a141              ADR      r1,|L9.4732|
001176  4640              MOV      r0,r8                 ;1029
001178  f7fffffe          BL       TEXT_SetText
00117c  4629              MOV      r1,r5                 ;1030
00117e  4640              MOV      r0,r8                 ;1030
001180  f7fffffe          BL       TEXT_SetTextColor
001184  4935              LDR      r1,|L9.4700|
001186  4640              MOV      r0,r8                 ;1031
001188  f7fffffe          BL       TEXT_SetFont
00118c  4651              MOV      r1,r10                ;1033
00118e  6860              LDR      r0,[r4,#4]            ;1033
001190  f7fffffe          BL       WM_GetDialogItem
001194  4680              MOV      r8,r0                 ;1033
001196  f7fffffe          BL       GUI_UC_SetEncodeUTF8
00119a  a13c              ADR      r1,|L9.4748|
00119c  4640              MOV      r0,r8                 ;1035
00119e  f7fffffe          BL       TEXT_SetText
0011a2  e000              B        |L9.4518|
                  |L9.4516|
0011a4  e1e3              B        |L9.5486|
                  |L9.4518|
0011a6  4629              MOV      r1,r5                 ;1036
0011a8  4640              MOV      r0,r8                 ;1036
0011aa  f7fffffe          BL       TEXT_SetTextColor
0011ae  492b              LDR      r1,|L9.4700|
0011b0  4640              MOV      r0,r8                 ;1037
0011b2  f7fffffe          BL       TEXT_SetFont
0011b6  4659              MOV      r1,r11                ;1039
0011b8  6860              LDR      r0,[r4,#4]            ;1039
0011ba  f7fffffe          BL       WM_GetDialogItem
0011be  4680              MOV      r8,r0                 ;1039
0011c0  f7fffffe          BL       GUI_UC_SetEncodeUTF8
0011c4  e06a              B        |L9.4764|
                  |L9.4550|
0011c6  e1f2              B        |L9.5550|
                  |L9.4552|
                          DCD      0x3fe66666
                  |L9.4556|
                          DCD      0x4019999a
                  |L9.4560|
0011d0  e5b08fe5          DCB      229,176,143,229,158,139,233,147,133,233,133,184,231,148,181
0011d4  9e8be993
0011d8  85e985b8
0011dc  e794b5  
0011df  e6b1a000          DCB      230,177,160,0
0011e3  00                DCB      0
                  |L9.4580|
                          DCD      0x40333333
                  |L9.4584|
                          DCD      0x40533333
                  |L9.4588|
0011ec  e99482e9          DCB      233,148,130,233,148,176,231,148,181,230,177,160
0011f0  94b0e794
0011f4  b5e6b1a0
                  |L9.4600|
0011f8  00                DCB      0
0011f9  00                DCB      0
0011fa  00                DCB      0
0011fb  00                DCB      0
                  |L9.4604|
                          DCD      GUI_FontHZ16
                  |L9.4608|
001200  e58685e9          DCB      229,134,133,233,152,187,230,181,139,232,175,149,0
001204  98bbe6b5
001208  8be8af95
00120c  00      
00120d  00                DCB      0
00120e  00                DCB      0
00120f  00                DCB      0
                  |L9.4624|
001210  e7a88be6          DCB      231,168,139,230,142,167,232,180,159,232,189,189,0
001214  8ea7e8b4
001218  9fe8bdbd
00121c  00      
00121d  00                DCB      0
00121e  00                DCB      0
00121f  00                DCB      0
                  |L9.4640|
001220  e7a88be6          DCB      231,168,139,230,142,167,231,148,181,230,186,144,0
001224  8ea7e794
001228  b5e6ba90
00122c  00      
00122d  00                DCB      0
00122e  00                DCB      0
00122f  00                DCB      0
                  |L9.4656|
001230  e58585e6          DCB      229,133,133,230,148,190,231,148,181,0
001234  94bee794
001238  b500    
00123a  00                DCB      0
00123b  00                DCB      0
                  |L9.4668|
00123c  e69bb2e7          DCB      230,155,178,231,186,191,0
001240  babf00  
001243  00                DCB      0
                  |L9.4676|
                          DCD      GUI_FontEN40
                  |L9.4680|
001248  563a00            DCB      "V:",0
00124b  00                DCB      0
                  |L9.4684|
                          DCD      GUI_FontHZ32
                  |L9.4688|
                          DCD      GUI_FontD24x32
                  |L9.4692|
001254  25303464          DCB      "%04d",0
001258  00      
001259  00                DCB      0
00125a  00                DCB      0
00125b  00                DCB      0
                  |L9.4700|
                          DCD      GUI_Fontset_font
                  |L9.4704|
                          DCD      GUI_Font24_1
                  |L9.4708|
                          DCD      temp
                  |L9.4712|
001268  e8bf87e6          DCB      232,191,135,230,181,129,230,168,161,229,188,143,0
00126c  b581e6a8
001270  a1e5bc8f
001274  00      
001275  00                DCB      0
001276  00                DCB      0
001277  00                DCB      0
                  |L9.4728|
                          DCD      0x00bfffff
                  |L9.4732|
00127c  e6ada5e8          DCB      230,173,165,232,191,155,230,151,182,233,151,180,0
001280  bf9be697
001284  b6e997b4
001288  00      
001289  00                DCB      0
00128a  00                DCB      0
00128b  00                DCB      0
                  |L9.4748|
00128c  e8b5b7e5          DCB      232,181,183,229,167,139,231,148,181,230,181,129,0
001290  a78be794
001294  b5e6b581
001298  00      
001299  00                DCB      0
00129a  00                DCB      0
00129b  00                DCB      0
                  |L9.4764|
00129c  a1fe              ADR      r1,|L9.5784|
00129e  4640              MOV      r0,r8                 ;1041
0012a0  f7fffffe          BL       TEXT_SetText
0012a4  4629              MOV      r1,r5                 ;1042
0012a6  4640              MOV      r0,r8                 ;1042
0012a8  f7fffffe          BL       TEXT_SetTextColor
0012ac  49fe              LDR      r1,|L9.5800|
0012ae  4640              MOV      r0,r8                 ;1043
0012b0  f7fffffe          BL       TEXT_SetFont
0012b4  f6401108          MOV      r1,#0x908             ;1045
0012b8  6860              LDR      r0,[r4,#4]            ;1045
0012ba  f7fffffe          BL       WM_GetDialogItem
0012be  4680              MOV      r8,r0                 ;1045
0012c0  f7fffffe          BL       GUI_UC_SetEncodeUTF8
0012c4  a1f9              ADR      r1,|L9.5804|
0012c6  4640              MOV      r0,r8                 ;1047
0012c8  f7fffffe          BL       TEXT_SetText
0012cc  4629              MOV      r1,r5                 ;1048
0012ce  4640              MOV      r0,r8                 ;1048
0012d0  f7fffffe          BL       TEXT_SetTextColor
0012d4  49f4              LDR      r1,|L9.5800|
0012d6  4640              MOV      r0,r8                 ;1049
0012d8  f7fffffe          BL       TEXT_SetFont
0012dc  f6401105          MOV      r1,#0x905             ;1051
0012e0  6860              LDR      r0,[r4,#4]            ;1051
0012e2  f7fffffe          BL       WM_GetDialogItem
0012e6  4680              MOV      r8,r0                 ;1051
0012e8  6a38              LDR      r0,[r7,#0x20]         ;1052  ; gate_v
0012ea  f7fffffe          BL       __aeabi_f2d
0012ee  ec410b10          VMOV     d0,r0,r1              ;1052
0012f2  ec532b10          VMOV     r2,r3,d0              ;1052
0012f6  f6af11b8          ADR      r1,|L9.2368|
0012fa  4668              MOV      r0,sp                 ;1052
0012fc  f7fffffe          BL       __2sprintf
001300  49ee              LDR      r1,|L9.5820|
001302  4640              MOV      r0,r8                 ;1053
001304  f7fffffe          BL       TEXT_SetFont
001308  4669              MOV      r1,sp                 ;1054
00130a  4640              MOV      r0,r8                 ;1054
00130c  f7fffffe          BL       TEXT_SetText
001310  4629              MOV      r1,r5                 ;1055
001312  4640              MOV      r0,r8                 ;1055
001314  f7fffffe          BL       TEXT_SetTextColor
001318  f6401106          MOV      r1,#0x906             ;1058
00131c  6860              LDR      r0,[r4,#4]            ;1058
00131e  f7fffffe          BL       WM_GetDialogItem
001322  4680              MOV      r8,r0                 ;1058
001324  f7fffffe          BL       GUI_UC_SetEncodeUTF8
001328  f6af2118          ADR      r1,|L9.2324|
00132c  4640              MOV      r0,r8                 ;1060
00132e  f7fffffe          BL       TEXT_SetText
001332  4629              MOV      r1,r5                 ;1061
001334  4640              MOV      r0,r8                 ;1061
001336  f7fffffe          BL       TEXT_SetTextColor
00133a  49db              LDR      r1,|L9.5800|
00133c  4640              MOV      r0,r8                 ;1062
00133e  f7fffffe          BL       TEXT_SetFont
001342  f640016b          MOV      r1,#0x86b             ;1064
001346  6860              LDR      r0,[r4,#4]            ;1064
001348  f7fffffe          BL       WM_GetDialogItem
00134c  4680              MOV      r8,r0                 ;1064
00134e  ee180a10          VMOV     r0,s16                ;1065
001352  f7fffffe          BL       __aeabi_f2d
001356  ec410b10          VMOV     d0,r0,r1              ;1065
00135a  ec532b10          VMOV     r2,r3,d0              ;1065
00135e  f6af2120          ADR      r1,|L9.2368|
001362  4668              MOV      r0,sp                 ;1065
001364  f7fffffe          BL       __2sprintf
001368  4629              MOV      r1,r5                 ;1066
00136a  4640              MOV      r0,r8                 ;1066
00136c  f7fffffe          BL       TEXT_SetTextColor
001370  49d2              LDR      r1,|L9.5820|
001372  4640              MOV      r0,r8                 ;1067
001374  f7fffffe          BL       TEXT_SetFont
001378  f7fffffe          BL       GUI_UC_SetEncodeUTF8
00137c  4669              MOV      r1,sp                 ;1069
00137e  4640              MOV      r0,r8                 ;1069
001380  f7fffffe          BL       TEXT_SetText
001384  f640016c          MOV      r1,#0x86c             ;1072
001388  6860              LDR      r0,[r4,#4]            ;1072
00138a  f7fffffe          BL       WM_GetDialogItem
00138e  4680              MOV      r8,r0                 ;1072
001390  ee180a90          VMOV     r0,s17                ;1073
001394  f7fffffe          BL       __aeabi_f2d
001398  ec410b10          VMOV     d0,r0,r1              ;1073
00139c  ec532b10          VMOV     r2,r3,d0              ;1073
0013a0  f6af2164          ADR      r1,|L9.2368|
0013a4  4668              MOV      r0,sp                 ;1073
0013a6  f7fffffe          BL       __2sprintf
0013aa  4629              MOV      r1,r5                 ;1074
0013ac  4640              MOV      r0,r8                 ;1074
0013ae  f7fffffe          BL       TEXT_SetTextColor
0013b2  49c2              LDR      r1,|L9.5820|
0013b4  4640              MOV      r0,r8                 ;1075
0013b6  f7fffffe          BL       TEXT_SetFont
0013ba  f7fffffe          BL       GUI_UC_SetEncodeUTF8
0013be  4669              MOV      r1,sp                 ;1077
0013c0  4640              MOV      r0,r8                 ;1077
0013c2  f7fffffe          BL       TEXT_SetText
0013c6  f640018f          MOV      r1,#0x88f             ;1079
0013ca  6860              LDR      r0,[r4,#4]            ;1079
0013cc  f7fffffe          BL       WM_GetDialogItem
0013d0  ec532b19          VMOV     r2,r3,d9              ;1080
0013d4  4680              MOV      r8,r0                 ;1079
0013d6  f6af2198          ADR      r1,|L9.2368|
0013da  4668              MOV      r0,sp                 ;1080
0013dc  f7fffffe          BL       __2sprintf
0013e0  4631              MOV      r1,r6                 ;1081
0013e2  4640              MOV      r0,r8                 ;1081
0013e4  f7fffffe          BL       TEXT_SetTextColor
0013e8  49b5              LDR      r1,|L9.5824|
0013ea  4640              MOV      r0,r8                 ;1082
0013ec  f7fffffe          BL       TEXT_SetFont
0013f0  f7fffffe          BL       GUI_UC_SetEncodeUTF8
0013f4  4669              MOV      r1,sp                 ;1084
0013f6  4640              MOV      r0,r8                 ;1084
0013f8  f7fffffe          BL       TEXT_SetText
0013fc  f44f6109          MOV      r1,#0x890             ;1086
001400  6860              LDR      r0,[r4,#4]            ;1086
001402  f7fffffe          BL       WM_GetDialogItem
001406  4606              MOV      r6,r0                 ;1086
001408  48ae              LDR      r0,|L9.5828|
00140a  6800              LDR      r0,[r0,#0]            ;1087  ; DISS_Current
00140c  f7fffffe          BL       __aeabi_f2d
001410  ec410b10          VMOV     d0,r0,r1              ;1087
001414  ec532b10          VMOV     r2,r3,d0              ;1087
001418  f6af21dc          ADR      r1,|L9.2368|
00141c  4668              MOV      r0,sp                 ;1087
00141e  f7fffffe          BL       __2sprintf
001422  4629              MOV      r1,r5                 ;1088
001424  4630              MOV      r0,r6                 ;1088
001426  f7fffffe          BL       TEXT_SetTextColor
00142a  49a4              LDR      r1,|L9.5820|
00142c  4630              MOV      r0,r6                 ;1089
00142e  f7fffffe          BL       TEXT_SetFont
001432  f7fffffe          BL       GUI_UC_SetEncodeUTF8
001436  4669              MOV      r1,sp                 ;1091
001438  4630              MOV      r0,r6                 ;1091
00143a  f7fffffe          BL       TEXT_SetText
00143e  f6401107          MOV      r1,#0x907             ;1093
001442  6860              LDR      r0,[r4,#4]            ;1093
001444  f7fffffe          BL       WM_GetDialogItem
001448  8bfa              LDRH     r2,[r7,#0x1e]         ;1094  ; short_time
00144a  4606              MOV      r6,r0                 ;1093
00144c  f6af3124          ADR      r1,|L9.2348|
001450  4668              MOV      r0,sp                 ;1094
001452  f7fffffe          BL       __2sprintf
001456  4629              MOV      r1,r5                 ;1095
001458  4630              MOV      r0,r6                 ;1095
00145a  f7fffffe          BL       TEXT_SetTextColor
00145e  4997              LDR      r1,|L9.5820|
001460  4630              MOV      r0,r6                 ;1096
001462  f7fffffe          BL       TEXT_SetFont
001466  f7fffffe          BL       GUI_UC_SetEncodeUTF8
00146a  4669              MOV      r1,sp                 ;1098
00146c  4630              MOV      r0,r6                 ;1098
00146e  f7fffffe          BL       TEXT_SetText
001472  f640110e          MOV      r1,#0x90e             ;1100
001476  6860              LDR      r0,[r4,#4]            ;1100
001478  f7fffffe          BL       WM_GetDialogItem
00147c  8aba              LDRH     r2,[r7,#0x14]         ;1101  ; steptime
00147e  4606              MOV      r6,r0                 ;1100
001480  f6af3158          ADR      r1,|L9.2348|
001484  4668              MOV      r0,sp                 ;1101
001486  f7fffffe          BL       __2sprintf
00148a  4629              MOV      r1,r5                 ;1102
00148c  4630              MOV      r0,r6                 ;1102
00148e  f7fffffe          BL       TEXT_SetTextColor
001492  498a              LDR      r1,|L9.5820|
001494  4630              MOV      r0,r6                 ;1103
001496  f7fffffe          BL       TEXT_SetFont
00149a  f7fffffe          BL       GUI_UC_SetEncodeUTF8
00149e  4669              MOV      r1,sp                 ;1105
0014a0  4630              MOV      r0,r6                 ;1105
0014a2  f7fffffe          BL       TEXT_SetText
0014a6  7cb8              LDRB     r0,[r7,#0x12]         ;1107  ; oc_mode
0014a8  b3f0              CBZ      r0,|L9.5416|
0014aa  7cb8              LDRB     r0,[r7,#0x12]         ;1114  ; oc_mode
0014ac  2801              CMP      r0,#1                 ;1114
0014ae  f47fac27          BNE      |L9.3328|
0014b2  f6401121          MOV      r1,#0x921             ;1115
0014b6  6860              LDR      r0,[r4,#4]            ;1115
0014b8  f7fffffe          BL       WM_GetDialogItem
0014bc  4604              MOV      r4,r0                 ;1115
0014be  4629              MOV      r1,r5                 ;1116
0014c0  f7fffffe          BL       TEXT_SetTextColor
0014c4  497d              LDR      r1,|L9.5820|
0014c6  4620              MOV      r0,r4                 ;1117
0014c8  f7fffffe          BL       TEXT_SetFont
0014cc  f7fffffe          BL       GUI_UC_SetEncodeUTF8
0014d0  a17d              ADR      r1,|L9.5832|
                  |L9.5330|
0014d2  4620              MOV      r0,r4                 ;1119
0014d4  f7fffffe          BL       TEXT_SetText
                  |L9.5336|
0014d8  e412              B        |L9.3328|
                  |L9.5338|
0014da  f7fffffe          BL       WM_GetDialogItem
0014de  4680              MOV      r8,r0                 ;950
0014e0  21ff              MOVS     r1,#0xff              ;951
0014e2  f7fffffe          BL       TEXT_SetTextColor
0014e6  4975              LDR      r1,|L9.5820|
0014e8  4640              MOV      r0,r8                 ;952
0014ea  f7fffffe          BL       TEXT_SetFont
0014ee  f7fffffe          BL       GUI_UC_SetEncodeUTF8
0014f2  4976              LDR      r1,|L9.5836|
0014f4  4640              MOV      r0,r8                 ;954
0014f6  f7fffffe          BL       TEXT_SetText
0014fa  f640110b          MOV      r1,#0x90b             ;955
0014fe  6860              LDR      r0,[r4,#4]            ;955
001500  f7fffffe          BL       WM_GetDialogItem
001504  4680              MOV      r8,r0                 ;955
001506  21ff              MOVS     r1,#0xff              ;956
001508  f7fffffe          BL       TEXT_SetTextColor
00150c  496b              LDR      r1,|L9.5820|
00150e  4640              MOV      r0,r8                 ;957
001510  f7fffffe          BL       TEXT_SetFont
001514  f7fffffe          BL       GUI_UC_SetEncodeUTF8
001518  496c              LDR      r1,|L9.5836|
00151a  4640              MOV      r0,r8                 ;959
00151c  3114              ADDS     r1,r1,#0x14           ;959
00151e  f7fffffe          BL       TEXT_SetText
001522  f640110c          MOV      r1,#0x90c             ;961
001526  e000              B        |L9.5418|
                  |L9.5416|
001528  e030              B        |L9.5516|
                  |L9.5418|
00152a  6860              LDR      r0,[r4,#4]            ;961
00152c  f7fffffe          BL       WM_GetDialogItem
001530  4680              MOV      r8,r0                 ;961
001532  21ff              MOVS     r1,#0xff              ;962
001534  f7fffffe          BL       TEXT_SetTextColor
001538  4960              LDR      r1,|L9.5820|
00153a  4640              MOV      r0,r8                 ;963
00153c  f7fffffe          BL       TEXT_SetFont
001540  f7fffffe          BL       GUI_UC_SetEncodeUTF8
001544  a157              ADR      r1,|L9.5796|
001546  4640              MOV      r0,r8                 ;965
001548  f7fffffe          BL       TEXT_SetText
00154c  f640110d          MOV      r1,#0x90d             ;966
001550  6860              LDR      r0,[r4,#4]            ;966
001552  f7fffffe          BL       WM_GetDialogItem
001556  4680              MOV      r8,r0                 ;966
001558  21ff              MOVS     r1,#0xff              ;967
00155a  f7fffffe          BL       TEXT_SetTextColor
00155e  495c              LDR      r1,|L9.5840|
001560  4640              MOV      r0,r8                 ;968
001562  f7fffffe          BL       TEXT_SetFont
001566  f7fffffe          BL       GUI_UC_SetEncodeUTF8
00156a  a14e              ADR      r1,|L9.5796|
00156c  e5d2              B        |L9.4372|
                  |L9.5486|
00156e  f7fffffe          BL       WM_GetDialogItem
001572  4680              MOV      r8,r0                 ;981
001574  21ff              MOVS     r1,#0xff              ;982
001576  f7fffffe          BL       TEXT_SetTextColor
00157a  4950              LDR      r1,|L9.5820|
00157c  4640              MOV      r0,r8                 ;983
00157e  f7fffffe          BL       TEXT_SetFont
001582  f7fffffe          BL       GUI_UC_SetEncodeUTF8
001586  4951              LDR      r1,|L9.5836|
001588  3120              ADDS     r1,r1,#0x20           ;985
00158a  e59b              B        |L9.4292|
                  |L9.5516|
00158c  f6401121          MOV      r1,#0x921             ;1109
001590  6860              LDR      r0,[r4,#4]            ;1109
001592  f7fffffe          BL       WM_GetDialogItem
001596  4604              MOV      r4,r0                 ;1109
001598  4629              MOV      r1,r5                 ;1110
00159a  f7fffffe          BL       TEXT_SetTextColor
00159e  4947              LDR      r1,|L9.5820|
0015a0  4620              MOV      r0,r4                 ;1111
0015a2  f7fffffe          BL       TEXT_SetFont
0015a6  f7fffffe          BL       GUI_UC_SetEncodeUTF8
0015aa  a14a              ADR      r1,|L9.5844|
0015ac  e791              B        |L9.5330|
                  |L9.5550|
0015ae  6860              LDR      r0,[r4,#4]            ;1128
0015b0  f7fffffe          BL       WM_GetDialogItem
0015b4  4605              MOV      r5,r0                 ;1128
0015b6  a13b              ADR      r1,|L9.5796|
0015b8  f7fffffe          BL       TEXT_SetText
0015bc  f06f4670          MVN      r6,#0xf0000000        ;1130
0015c0  4631              MOV      r1,r6                 ;1130
0015c2  4628              MOV      r0,r5                 ;1130
0015c4  f7fffffe          BL       TEXT_SetTextColor
0015c8  4649              MOV      r1,r9                 ;1132
0015ca  6860              LDR      r0,[r4,#4]            ;1132
0015cc  f7fffffe          BL       WM_GetDialogItem
0015d0  4605              MOV      r5,r0                 ;1132
0015d2  a134              ADR      r1,|L9.5796|
0015d4  f7fffffe          BL       TEXT_SetText
0015d8  4631              MOV      r1,r6                 ;1134
0015da  4628              MOV      r0,r5                 ;1134
0015dc  f7fffffe          BL       TEXT_SetTextColor
0015e0  4651              MOV      r1,r10                ;1136
0015e2  6860              LDR      r0,[r4,#4]            ;1136
0015e4  f7fffffe          BL       WM_GetDialogItem
0015e8  4605              MOV      r5,r0                 ;1136
0015ea  a12e              ADR      r1,|L9.5796|
0015ec  f7fffffe          BL       TEXT_SetText
0015f0  4631              MOV      r1,r6                 ;1138
0015f2  4628              MOV      r0,r5                 ;1138
0015f4  f7fffffe          BL       TEXT_SetTextColor
0015f8  4659              MOV      r1,r11                ;1141
0015fa  6860              LDR      r0,[r4,#4]            ;1141
0015fc  f7fffffe          BL       WM_GetDialogItem
001600  4605              MOV      r5,r0                 ;1141
001602  a128              ADR      r1,|L9.5796|
001604  f7fffffe          BL       TEXT_SetText
001608  4631              MOV      r1,r6                 ;1143
00160a  4628              MOV      r0,r5                 ;1143
00160c  f7fffffe          BL       TEXT_SetTextColor
001610  f640016b          MOV      r1,#0x86b             ;1145
001614  6860              LDR      r0,[r4,#4]            ;1145
001616  f7fffffe          BL       WM_GetDialogItem
00161a  4605              MOV      r5,r0                 ;1145
00161c  a121              ADR      r1,|L9.5796|
00161e  f7fffffe          BL       TEXT_SetText
001622  4631              MOV      r1,r6                 ;1147
001624  4628              MOV      r0,r5                 ;1147
001626  f7fffffe          BL       TEXT_SetTextColor
00162a  f640016c          MOV      r1,#0x86c             ;1149
00162e  6860              LDR      r0,[r4,#4]            ;1149
001630  f7fffffe          BL       WM_GetDialogItem
001634  4605              MOV      r5,r0                 ;1149
001636  a11b              ADR      r1,|L9.5796|
001638  f7fffffe          BL       TEXT_SetText
00163c  4631              MOV      r1,r6                 ;1151
00163e  4628              MOV      r0,r5                 ;1151
001640  f7fffffe          BL       TEXT_SetTextColor
001644  f6401105          MOV      r1,#0x905             ;1153
001648  6860              LDR      r0,[r4,#4]            ;1153
00164a  f7fffffe          BL       WM_GetDialogItem
00164e  4605              MOV      r5,r0                 ;1153
001650  a114              ADR      r1,|L9.5796|
001652  f7fffffe          BL       TEXT_SetText
001656  4631              MOV      r1,r6                 ;1155
001658  4628              MOV      r0,r5                 ;1155
00165a  f7fffffe          BL       TEXT_SetTextColor
00165e  f6401108          MOV      r1,#0x908             ;1157
001662  6860              LDR      r0,[r4,#4]            ;1157
001664  f7fffffe          BL       WM_GetDialogItem
001668  4605              MOV      r5,r0                 ;1157
00166a  a10e              ADR      r1,|L9.5796|
00166c  f7fffffe          BL       TEXT_SetText
001670  4631              MOV      r1,r6                 ;1159
001672  4628              MOV      r0,r5                 ;1159
001674  f7fffffe          BL       TEXT_SetTextColor
001678  f6401106          MOV      r1,#0x906             ;1161
00167c  6860              LDR      r0,[r4,#4]            ;1161
00167e  f7fffffe          BL       WM_GetDialogItem
001682  4605              MOV      r5,r0                 ;1161
001684  a107              ADR      r1,|L9.5796|
001686  f7fffffe          BL       TEXT_SetText
00168a  4631              MOV      r1,r6                 ;1163
00168c  4628              MOV      r0,r5                 ;1163
00168e  f7fffffe          BL       TEXT_SetTextColor
001692  f6401107          MOV      r1,#0x907             ;1165
001696  e01f              B        |L9.5848|
                  |L9.5784|
001698  e6ada5e8          DCB      230,173,165,232,191,155,231,148,181,230,181,129
00169c  bf9be794
0016a0  b5e6b581
                  |L9.5796|
0016a4  00                DCB      0
0016a5  00                DCB      0
0016a6  00                DCB      0
0016a7  00                DCB      0
                  |L9.5800|
                          DCD      GUI_Fontset_font
                  |L9.5804|
0016ac  e997a8e6          DCB      233,151,168,230,167,155,231,148,181,229,142,139,0
0016b0  a79be794
0016b4  b5e58e8b
0016b8  00      
0016b9  00                DCB      0
0016ba  00                DCB      0
0016bb  00                DCB      0
                  |L9.5820|
                          DCD      GUI_Font24_1
                  |L9.5824|
                          DCD      GUI_FontD24x32
                  |L9.5828|
                          DCD      DISS_Current
                  |L9.5832|
0016c8  435600            DCB      "CV",0
0016cb  00                DCB      0
                  |L9.5836|
                          DCD      ||i._cbDialog||+0x494
                  |L9.5840|
                          DCD      GUI_FontHZ16
                  |L9.5844|
0016d4  434300            DCB      "CC",0
0016d7  00                DCB      0
                  |L9.5848|
0016d8  6860              LDR      r0,[r4,#4]            ;1165
0016da  f7fffffe          BL       WM_GetDialogItem
0016de  4605              MOV      r5,r0                 ;1165
0016e0  f2af0140          ADR      r1,|L9.5796|
0016e4  f7fffffe          BL       TEXT_SetText
0016e8  4631              MOV      r1,r6                 ;1167
0016ea  4628              MOV      r0,r5                 ;1167
0016ec  f7fffffe          BL       TEXT_SetTextColor
0016f0  f640110e          MOV      r1,#0x90e             ;1169
0016f4  6860              LDR      r0,[r4,#4]            ;1169
0016f6  f7fffffe          BL       WM_GetDialogItem
0016fa  4605              MOV      r5,r0                 ;1169
0016fc  f2af015c          ADR      r1,|L9.5796|
001700  f7fffffe          BL       TEXT_SetText
001704  4631              MOV      r1,r6                 ;1171
001706  4628              MOV      r0,r5                 ;1171
001708  f7fffffe          BL       TEXT_SetTextColor
00170c  f6401121          MOV      r1,#0x921             ;1173
001710  6860              LDR      r0,[r4,#4]            ;1173
001712  f7fffffe          BL       WM_GetDialogItem
001716  4604              MOV      r4,r0                 ;1173
001718  f2af0178          ADR      r1,|L9.5796|
00171c  f7fffffe          BL       TEXT_SetText
001720  4631              MOV      r1,r6                 ;1175
001722  4620              MOV      r0,r4                 ;1175
001724  f7fffffe          BL       TEXT_SetTextColor
001728  e6d6              B        |L9.5336|
;;;1191   
                          ENDP


                          AREA ||i.test_r||, CODE, READONLY, ALIGN=2

                  test_r PROC
;;;2033   
;;;2034   void test_r(void)
000000  e92d5ff0          PUSH     {r4-r12,lr}
;;;2035   {
;;;2036       WM_HWIN hItem;
;;;2037       if(para_set2 == set_2_off)
000004  4ca8              LDR      r4,|L10.680|
000006  ed2d8b02          VPUSH    {d8}                  ;2035
00000a  78e1              LDRB     r1,[r4,#3]  ; para_set2
;;;2038       {
;;;2039           if(R_VLUE > set_max_r || R_VLUE < set_min_r || DISS_Voltage*100 > set_max_v || DISS_Voltage*100 < set_min_v)
00000c  4ea8              LDR      r6,|L10.688|
00000e  4620              MOV      r0,r4                 ;2037
;;;2040           {
;;;2041               if(para_set4 == set_4_on){
;;;2042                   BEEP_Tiggr();
;;;2043               }
;;;2044               TM1650_SET_LED(0x68,0x70);//FAIL灯
;;;2045               GPIO_SetBits(GPIOD,GPIO_Pin_12);//
000010  f8df9298          LDR      r9,|L10.684|
;;;2046               if(R_VLUE > set_max_r || R_VLUE < set_min_r)
;;;2047               {
;;;2048                   hItem = WM_GetDialogItem(hWinR, ID_TEXT_81);
000014  6a40              LDR      r0,[r0,#0x24]
000016  ed960a00          VLDR     s0,[r6,#0]            ;2039
00001a  f44f5880          MOV      r8,#0x1000            ;2045
00001e  f6400a8e          MOV      r10,#0x88e
;;;2049                   TEXT_SetTextColor(hItem, GUI_RED);
;;;2050               }else{
;;;2051                   hItem = WM_GetDialogItem(hWinR, ID_TEXT_81);
;;;2052                   TEXT_SetTextColor(hItem, GUI_GREEN);
;;;2053               }
;;;2054               if(DISS_Voltage*100 > set_max_v || DISS_Voltage*100 < set_min_v){
;;;2055                   hItem = WM_GetDialogItem(hWinR, ID_TEXT_80);
000022  f6400b8d          MOV      r11,#0x88d
000026  ed9f8aa3          VLDR     s16,|L10.692|
00002a  4da3              LDR      r5,|L10.696|
00002c  f44f477f          MOV      r7,#0xff00            ;2052
000030  ee200a08          VMUL.F32 s0,s0,s16             ;2039
000034  b3f1              CBZ      r1,|L10.180|
;;;2056                   TEXT_SetTextColor(hItem, GUI_RED);
;;;2057               }else{
;;;2058                   hItem = WM_GetDialogItem(hWinR, ID_TEXT_80);
;;;2059                   TEXT_SetTextColor(hItem, GUI_GREEN);
;;;2060               }
;;;2061           }else{
;;;2062               hItem = WM_GetDialogItem(hWinR, ID_TEXT_80);
;;;2063               TEXT_SetTextColor(hItem, GUI_GREEN);
;;;2064               hItem = WM_GetDialogItem(hWinR, ID_TEXT_81);
;;;2065               TEXT_SetTextColor(hItem, GUI_GREEN);
;;;2066               
;;;2067               GPIO_ResetBits(GPIOD,GPIO_Pin_12);
;;;2068               TM1650_SET_LED(0x48,0x71);
;;;2069               TM1650_SET_LED(0x68,0xF2);//PASS灯
;;;2070           }
;;;2071       }else{
;;;2072           if(finish == 0)
000036  7aa1              LDRB     r1,[r4,#0xa]  ; finish
000038  b3e1              CBZ      r1,|L10.180|
;;;2073           {
;;;2074               if(R_VLUE > set_max_r || R_VLUE < set_min_r || DISS_Voltage*100 > set_max_v || DISS_Voltage*100 < set_min_v)
;;;2075               {
;;;2076                   if(para_set4 == set_4_on){
;;;2077                       BEEP_Tiggr();
;;;2078                   }
;;;2079                   TM1650_SET_LED(0x68,0x70);//FAIL灯
;;;2080                   GPIO_SetBits(GPIOD,GPIO_Pin_12);//
;;;2081                   if(R_VLUE > set_max_r || R_VLUE < set_min_r)
;;;2082                   {
;;;2083                       hItem = WM_GetDialogItem(hWinR, ID_TEXT_81);
;;;2084                       TEXT_SetTextColor(hItem, GUI_RED);
;;;2085                   }else{
;;;2086                       hItem = WM_GetDialogItem(hWinR, ID_TEXT_81);
;;;2087                       TEXT_SetTextColor(hItem, GUI_GREEN);
;;;2088                   }
;;;2089                   if(DISS_Voltage*100 > set_max_v || DISS_Voltage*100 < set_min_v){
;;;2090                       hItem = WM_GetDialogItem(hWinR, ID_TEXT_80);
;;;2091                       TEXT_SetTextColor(hItem, GUI_RED);
;;;2092                   }else{
;;;2093                       hItem = WM_GetDialogItem(hWinR, ID_TEXT_80);
;;;2094                       TEXT_SetTextColor(hItem, GUI_GREEN);
;;;2095                   }
;;;2096               }else{
;;;2097                   hItem = WM_GetDialogItem(hWinR, ID_TEXT_80);
;;;2098                   TEXT_SetTextColor(hItem, GUI_GREEN);
;;;2099                   hItem = WM_GetDialogItem(hWinR, ID_TEXT_81);
;;;2100                   TEXT_SetTextColor(hItem, GUI_GREEN);
;;;2101                   
;;;2102                   GPIO_ResetBits(GPIOD,GPIO_Pin_12);
;;;2103                   TM1650_SET_LED(0x48,0x71);
;;;2104                   TM1650_SET_LED(0x68,0xF2);//PASS灯
;;;2105               }
;;;2106           }else{
;;;2107               if(r > set_max_r || r < set_min_r || v*100 > set_max_v || v*100 < set_min_v || oc_data*100 > set_max_c || oc_data*100 < set_min_c)
00003a  6c29              LDR      r1,[r5,#0x40]  ; Run_Control
00003c  8b62              LDRH     r2,[r4,#0x1a]  ; r
;;;2108               {
;;;2109                   if(para_set4 == set_4_on){
;;;2110                       BEEP_Tiggr();
;;;2111                   }
;;;2112                   TM1650_SET_LED(0x68,0x70);//FAIL灯
;;;2113                   GPIO_SetBits(GPIOD,GPIO_Pin_12);//
;;;2114                   if(r > set_max_r || r < set_min_r)
;;;2115                   {
;;;2116                       hItem = WM_GetDialogItem(hWinR, ID_TEXT_81);
;;;2117                       TEXT_SetTextColor(hItem, GUI_RED);
;;;2118                   }else{
;;;2119                       hItem = WM_GetDialogItem(hWinR, ID_TEXT_81);
;;;2120                       TEXT_SetTextColor(hItem, GUI_GREEN);
;;;2121                   }
;;;2122                   if(v*100 > set_max_v || v*100 < set_min_v){
;;;2123                       hItem = WM_GetDialogItem(hWinR, ID_TEXT_80);
;;;2124                       TEXT_SetTextColor(hItem, GUI_RED);
;;;2125                   }else{
;;;2126                       hItem = WM_GetDialogItem(hWinR, ID_TEXT_80);
;;;2127                       TEXT_SetTextColor(hItem, GUI_GREEN);
;;;2128                   }
;;;2129                   if(oc_data*100 > set_max_c || oc_data*100 < set_min_c){
;;;2130                       hItem = WM_GetDialogItem(hWinR, ID_TEXT_82);
00003e  f640068f          MOV      r6,#0x88f
000042  4291              CMP      r1,r2                 ;2107
000044  d333              BCC      |L10.174|
000046  6c69              LDR      r1,[r5,#0x44]         ;2107  ; Run_Control
000048  8b62              LDRH     r2,[r4,#0x1a]         ;2107  ; r
00004a  4291              CMP      r1,r2                 ;2107
00004c  d82f              BHI      |L10.174|
00004e  ed940a0c          VLDR     s0,[r4,#0x30]         ;2107
000052  6ba9              LDR      r1,[r5,#0x38]         ;2107  ; Run_Control
000054  ee200a08          VMUL.F32 s0,s0,s16             ;2107
000058  ee001a90          VMOV     s1,r1                 ;2107
00005c  eef80a60          VCVT.F32.U32 s1,s1                 ;2107
000060  eeb40ae0          VCMPE.F32 s0,s1                 ;2107
000064  eef1fa10          VMRS     APSR_nzcv,FPSCR       ;2107
000068  dc21              BGT      |L10.174|
00006a  6be9              LDR      r1,[r5,#0x3c]         ;2107  ; Run_Control
00006c  ee001a90          VMOV     s1,r1                 ;2107
000070  eef80a60          VCVT.F32.U32 s1,s1                 ;2107
000074  eeb40ae0          VCMPE.F32 s0,s1                 ;2107
000078  eef1fa10          VMRS     APSR_nzcv,FPSCR       ;2107
00007c  d317              BCC      |L10.174|
00007e  ed940a0b          VLDR     s0,[r4,#0x2c]         ;2107
000082  6ca9              LDR      r1,[r5,#0x48]         ;2107  ; Run_Control
000084  ee200a08          VMUL.F32 s0,s0,s16             ;2107
000088  ee001a90          VMOV     s1,r1                 ;2107
00008c  eef80a60          VCVT.F32.U32 s1,s1                 ;2107
000090  eeb40ae0          VCMPE.F32 s0,s1                 ;2107
000094  eef1fa10          VMRS     APSR_nzcv,FPSCR       ;2107
000098  dc09              BGT      |L10.174|
00009a  6ce9              LDR      r1,[r5,#0x4c]         ;2107  ; Run_Control
00009c  ee001a90          VMOV     s1,r1                 ;2107
0000a0  eef80a60          VCVT.F32.U32 s1,s1                 ;2107
0000a4  eeb40ae0          VCMPE.F32 s0,s1                 ;2107
0000a8  eef1fa10          VMRS     APSR_nzcv,FPSCR       ;2107
0000ac  d27d              BCS      |L10.426|
                  |L10.174|
0000ae  7920              LDRB     r0,[r4,#4]            ;2109  ; para_set4
0000b0  28ff              CMP      r0,#0xff              ;2109
0000b2  e000              B        |L10.182|
                  |L10.180|
0000b4  e001              B        |L10.186|
                  |L10.182|
0000b6  d063              BEQ      |L10.384|
0000b8  e064              B        |L10.388|
                  |L10.186|
0000ba  6b69              LDR      r1,[r5,#0x34]         ;2039  ; Run_Control
0000bc  6c2a              LDR      r2,[r5,#0x40]         ;2039  ; Run_Control
0000be  4291              CMP      r1,r2                 ;2039
0000c0  d852              BHI      |L10.360|
0000c2  6b69              LDR      r1,[r5,#0x34]         ;2039  ; Run_Control
0000c4  6c6a              LDR      r2,[r5,#0x44]         ;2039  ; Run_Control
0000c6  4291              CMP      r1,r2                 ;2039
0000c8  d34e              BCC      |L10.360|
0000ca  6ba9              LDR      r1,[r5,#0x38]         ;2039  ; Run_Control
0000cc  ee001a90          VMOV     s1,r1                 ;2039
0000d0  eef80a60          VCVT.F32.U32 s1,s1                 ;2039
0000d4  eeb40ae0          VCMPE.F32 s0,s1                 ;2039
0000d8  eef1fa10          VMRS     APSR_nzcv,FPSCR       ;2039
0000dc  dc44              BGT      |L10.360|
0000de  6be9              LDR      r1,[r5,#0x3c]         ;2074  ; Run_Control
0000e0  ee001a90          VMOV     s1,r1                 ;2074
0000e4  eef80a60          VCVT.F32.U32 s1,s1                 ;2074
0000e8  eeb40ae0          VCMPE.F32 s0,s1                 ;2074
0000ec  eef1fa10          VMRS     APSR_nzcv,FPSCR       ;2074
0000f0  d33a              BCC      |L10.360|
0000f2  4659              MOV      r1,r11                ;2062
0000f4  f7fffffe          BL       WM_GetDialogItem
0000f8  4639              MOV      r1,r7                 ;2063
0000fa  f7fffffe          BL       TEXT_SetTextColor
0000fe  4651              MOV      r1,r10                ;2064
000100  e0bb              B        |L10.634|
                  |L10.258|
000102  2170              MOVS     r1,#0x70              ;2044
000104  2068              MOVS     r0,#0x68              ;2044
000106  f7fffffe          BL       TM1650_SET_LED
00010a  4641              MOV      r1,r8                 ;2045
00010c  4648              MOV      r0,r9                 ;2045
00010e  f7fffffe          BL       GPIO_SetBits
000112  6b68              LDR      r0,[r5,#0x34]         ;2046  ; Run_Control
000114  6c29              LDR      r1,[r5,#0x40]         ;2046  ; Run_Control
000116  4288              CMP      r0,r1                 ;2046
000118  d803              BHI      |L10.290|
00011a  6b68              LDR      r0,[r5,#0x34]         ;2046  ; Run_Control
00011c  6c69              LDR      r1,[r5,#0x44]         ;2046  ; Run_Control
00011e  4288              CMP      r0,r1                 ;2046
000120  d228              BCS      |L10.372|
                  |L10.290|
000122  4651              MOV      r1,r10                ;2083
000124  6a60              LDR      r0,[r4,#0x24]         ;2083  ; hWinR
000126  f7fffffe          BL       WM_GetDialogItem
00012a  21ff              MOVS     r1,#0xff              ;2084
                  |L10.300|
00012c  f7fffffe          BL       TEXT_SetTextColor
000130  ed960a00          VLDR     s0,[r6,#0]            ;2089
000134  6ba8              LDR      r0,[r5,#0x38]         ;2089  ; Run_Control
000136  ee200a08          VMUL.F32 s0,s0,s16             ;2089
00013a  ee000a90          VMOV     s1,r0                 ;2089
00013e  eef80a60          VCVT.F32.U32 s1,s1                 ;2089
000142  eeb40ae0          VCMPE.F32 s0,s1                 ;2089
000146  eef1fa10          VMRS     APSR_nzcv,FPSCR       ;2089
00014a  dc09              BGT      |L10.352|
00014c  6be8              LDR      r0,[r5,#0x3c]         ;2089  ; Run_Control
00014e  ee000a90          VMOV     s1,r0                 ;2089
000152  eef80a60          VCVT.F32.U32 s1,s1                 ;2089
000156  eeb40ae0          VCMPE.F32 s0,s1                 ;2089
00015a  eef1fa10          VMRS     APSR_nzcv,FPSCR       ;2089
00015e  d201              BCS      |L10.356|
                  |L10.352|
000160  4659              MOV      r1,r11                ;2055
000162  e06c              B        |L10.574|
                  |L10.356|
000164  4659              MOV      r1,r11                ;2058
000166  e070              B        |L10.586|
                  |L10.360|
000168  7920              LDRB     r0,[r4,#4]            ;2076  ; para_set4
00016a  28ff              CMP      r0,#0xff              ;2076
00016c  d1c9              BNE      |L10.258|
00016e  f7fffffe          BL       BEEP_Tiggr
000172  e7c6              B        |L10.258|
                  |L10.372|
000174  4651              MOV      r1,r10                ;2086
000176  6a60              LDR      r0,[r4,#0x24]         ;2086  ; hWinR
000178  f7fffffe          BL       WM_GetDialogItem
00017c  4639              MOV      r1,r7                 ;2087
00017e  e7d5              B        |L10.300|
                  |L10.384|
000180  f7fffffe          BL       BEEP_Tiggr
                  |L10.388|
000184  2170              MOVS     r1,#0x70              ;2112
000186  2068              MOVS     r0,#0x68              ;2112
000188  f7fffffe          BL       TM1650_SET_LED
00018c  4641              MOV      r1,r8                 ;2113
00018e  4648              MOV      r0,r9                 ;2113
000190  f7fffffe          BL       GPIO_SetBits
000194  6c28              LDR      r0,[r5,#0x40]         ;2114  ; Run_Control
000196  8b61              LDRH     r1,[r4,#0x1a]         ;2114  ; r
000198  4288              CMP      r0,r1                 ;2114
00019a  d303              BCC      |L10.420|
00019c  6c68              LDR      r0,[r5,#0x44]         ;2114  ; Run_Control
00019e  8b61              LDRH     r1,[r4,#0x1a]         ;2114  ; r
0001a0  4288              CMP      r0,r1                 ;2114
0001a2  d907              BLS      |L10.436|
                  |L10.420|
0001a4  4651              MOV      r1,r10                ;2116
0001a6  6a60              LDR      r0,[r4,#0x24]         ;2116  ; hWinR
0001a8  e000              B        |L10.428|
                  |L10.426|
0001aa  e058              B        |L10.606|
                  |L10.428|
0001ac  f7fffffe          BL       WM_GetDialogItem
0001b0  21ff              MOVS     r1,#0xff              ;2117
0001b2  e004              B        |L10.446|
                  |L10.436|
0001b4  4651              MOV      r1,r10                ;2119
0001b6  6a60              LDR      r0,[r4,#0x24]         ;2119  ; hWinR
0001b8  f7fffffe          BL       WM_GetDialogItem
0001bc  4639              MOV      r1,r7                 ;2120
                  |L10.446|
0001be  f7fffffe          BL       TEXT_SetTextColor
0001c2  ed940a0c          VLDR     s0,[r4,#0x30]         ;2122
0001c6  6ba8              LDR      r0,[r5,#0x38]         ;2122  ; Run_Control
0001c8  ee200a08          VMUL.F32 s0,s0,s16             ;2122
0001cc  ee000a90          VMOV     s1,r0                 ;2122
0001d0  eef80a60          VCVT.F32.U32 s1,s1                 ;2122
0001d4  eeb40ae0          VCMPE.F32 s0,s1                 ;2122
0001d8  eef1fa10          VMRS     APSR_nzcv,FPSCR       ;2122
0001dc  dc09              BGT      |L10.498|
0001de  6be8              LDR      r0,[r5,#0x3c]         ;2122  ; Run_Control
0001e0  ee000a90          VMOV     s1,r0                 ;2122
0001e4  eef80a60          VCVT.F32.U32 s1,s1                 ;2122
0001e8  eeb40ae0          VCMPE.F32 s0,s1                 ;2122
0001ec  eef1fa10          VMRS     APSR_nzcv,FPSCR       ;2122
0001f0  d205              BCS      |L10.510|
                  |L10.498|
0001f2  4659              MOV      r1,r11                ;2123
0001f4  6a60              LDR      r0,[r4,#0x24]         ;2123  ; hWinR
0001f6  f7fffffe          BL       WM_GetDialogItem
0001fa  21ff              MOVS     r1,#0xff              ;2124
0001fc  e004              B        |L10.520|
                  |L10.510|
0001fe  4659              MOV      r1,r11                ;2126
000200  6a60              LDR      r0,[r4,#0x24]         ;2126  ; hWinR
000202  f7fffffe          BL       WM_GetDialogItem
000206  4639              MOV      r1,r7                 ;2127
                  |L10.520|
000208  f7fffffe          BL       TEXT_SetTextColor
00020c  ed940a0b          VLDR     s0,[r4,#0x2c]         ;2129
000210  6ca8              LDR      r0,[r5,#0x48]         ;2129  ; Run_Control
000212  ee200a08          VMUL.F32 s0,s0,s16             ;2129
000216  ee000a90          VMOV     s1,r0                 ;2129
00021a  eef80a60          VCVT.F32.U32 s1,s1                 ;2129
00021e  eeb40ae0          VCMPE.F32 s0,s1                 ;2129
000222  eef1fa10          VMRS     APSR_nzcv,FPSCR       ;2129
000226  dc09              BGT      |L10.572|
000228  6ce8              LDR      r0,[r5,#0x4c]         ;2129  ; Run_Control
00022a  ee000a90          VMOV     s1,r0                 ;2129
00022e  eef80a60          VCVT.F32.U32 s1,s1                 ;2129
000232  eeb40ae0          VCMPE.F32 s0,s1                 ;2129
000236  eef1fa10          VMRS     APSR_nzcv,FPSCR       ;2129
00023a  d205              BCS      |L10.584|
                  |L10.572|
00023c  4631              MOV      r1,r6
                  |L10.574|
00023e  6a60              LDR      r0,[r4,#0x24]         ;2055  ; hWinR
000240  f7fffffe          BL       WM_GetDialogItem
000244  21ff              MOVS     r1,#0xff              ;2056
000246  e004              B        |L10.594|
                  |L10.584|
;;;2131                       TEXT_SetTextColor(hItem, GUI_RED);
;;;2132                   }else{
;;;2133                       hItem = WM_GetDialogItem(hWinR, ID_TEXT_82);
000248  4631              MOV      r1,r6
                  |L10.586|
00024a  6a60              LDR      r0,[r4,#0x24]         ;2058  ; hWinR
00024c  f7fffffe          BL       WM_GetDialogItem
000250  4639              MOV      r1,r7                 ;2059
                  |L10.594|
;;;2134                       TEXT_SetTextColor(hItem, GUI_GREEN);
000252  ecbd8b02          VPOP     {d8}
000256  e8bd5ff0          POP      {r4-r12,lr}
00025a  f7ffbffe          B.W      TEXT_SetTextColor
                  |L10.606|
;;;2135                   }
;;;2136               }else{
;;;2137                   hItem = WM_GetDialogItem(hWinR, ID_TEXT_80);
00025e  4659              MOV      r1,r11
000260  f7fffffe          BL       WM_GetDialogItem
;;;2138                   TEXT_SetTextColor(hItem, GUI_GREEN);
000264  4639              MOV      r1,r7
000266  f7fffffe          BL       TEXT_SetTextColor
;;;2139                   hItem = WM_GetDialogItem(hWinR, ID_TEXT_81);
00026a  4651              MOV      r1,r10
00026c  6a60              LDR      r0,[r4,#0x24]  ; hWinR
00026e  f7fffffe          BL       WM_GetDialogItem
;;;2140                   TEXT_SetTextColor(hItem, GUI_GREEN);
000272  4639              MOV      r1,r7
000274  f7fffffe          BL       TEXT_SetTextColor
;;;2141                   hItem = WM_GetDialogItem(hWinR, ID_TEXT_82);
000278  4631              MOV      r1,r6
                  |L10.634|
00027a  6a60              LDR      r0,[r4,#0x24]  ; hWinR
00027c  f7fffffe          BL       WM_GetDialogItem
;;;2142                   TEXT_SetTextColor(hItem, GUI_GREEN);
000280  4639              MOV      r1,r7
000282  f7fffffe          BL       TEXT_SetTextColor
;;;2143                   
;;;2144                   GPIO_ResetBits(GPIOD,GPIO_Pin_12);
000286  4641              MOV      r1,r8
000288  4648              MOV      r0,r9
00028a  f7fffffe          BL       GPIO_ResetBits
;;;2145                   TM1650_SET_LED(0x48,0x71);
00028e  2171              MOVS     r1,#0x71
000290  2048              MOVS     r0,#0x48
000292  f7fffffe          BL       TM1650_SET_LED
;;;2146                   TM1650_SET_LED(0x68,0xF2);//PASS灯
000296  ecbd8b02          VPOP     {d8}
00029a  21f2              MOVS     r1,#0xf2
00029c  e8bd5ff0          POP      {r4-r12,lr}
0002a0  2068              MOVS     r0,#0x68
0002a2  f7ffbffe          B.W      TM1650_SET_LED
;;;2147               }
;;;2148           }
;;;2149                  
;;;2150       }
;;;2151   //     else
;;;2152   //     {
;;;2153   //         TM1650_SET_LED(0x68,0x70);
;;;2154   //         GPIO_ResetBits(GPIOD,GPIO_Pin_12);//灭灯
;;;2155   //     }
;;;2156   }
;;;2157   
                          ENDP

0002a6  0000              DCW      0x0000
                  |L10.680|
                          DCD      ||.data||
                  |L10.684|
                          DCD      0x40020c00
                  |L10.688|
                          DCD      DISS_Voltage
                  |L10.692|
0002b4  42c80000          DCFS     0x42c80000 ; 100
                  |L10.696|
                          DCD      Run_Control

                          AREA ||.constdata||, DATA, READONLY, ALIGN=2

                  _aDialogCreate
                          DCD      WINDOW_CreateIndirect
                          DCD      ||.conststring||
000008  08120000          DCW      0x0812,0x0000
00000c  000001e0          DCW      0x0000,0x01e0
000010  01100000          DCW      0x0110,0x0000
                          DCD      0x00000000
                          DCD      0x00000000
                          DCD      TEXT_CreateIndirect
                          DCD      ||.conststring||+0x2
000024  0813001c          DCW      0x0813,0x001c
000028  00320040          DCW      0x0032,0x0040
00002c  00200000          DCW      0x0020,0x0000
                          DCD      0x00000064
                          DCD      0x00000000
                          DCD      TEXT_CreateIndirect
                          DCD      ||.conststring||+0x2
000040  0814012c          DCW      0x0814,0x012c
000044  00320064          DCW      0x0032,0x0064
000048  00140000          DCW      0x0014,0x0000
                          DCD      0x00000000
                          DCD      0x00000000
                          DCD      TEXT_CreateIndirect
                          DCD      ||.conststring||+0x2
00005c  081500f0          DCW      0x0815,0x00f0
000060  00320020          DCW      0x0032,0x0020
000064  001e0000          DCW      0x001e,0x0000
                          DCD      0x00000000
                          DCD      0x00000000
                          DCD      TEXT_CreateIndirect
                          DCD      ||.conststring||+0x2
000078  081600ef          DCW      0x0816,0x00ef
00007c  00790020          DCW      0x0079,0x0020
000080  00200000          DCW      0x0020,0x0000
                          DCD      0x00000000
                          DCD      0x00000000
                          DCD      TEXT_CreateIndirect
                          DCD      ||.conststring||+0x2
000094  081700d9          DCW      0x0817,0x00d9
000098  00800020          DCW      0x0080,0x0020
00009c  00140000          DCW      0x0014,0x0000
                          DCD      0x00000000
                          DCD      0x00000000
                          DCD      TEXT_CreateIndirect
                          DCD      ||.conststring||+0x2
0000b0  0868012c          DCW      0x0868,0x012c
0000b4  00960064          DCW      0x0096,0x0064
0000b8  00140000          DCW      0x0014,0x0000
                          DCD      0x00000000
                          DCD      0x00000000
                          DCD      TEXT_CreateIndirect
                          DCD      ||.conststring||+0x2
0000cc  0869012c          DCW      0x0869,0x012c
0000d0  004b0064          DCW      0x004b,0x0064
0000d4  00140000          DCW      0x0014,0x0000
                          DCD      0x00000000
                          DCD      0x00000000
                          DCD      TEXT_CreateIndirect
                          DCD      ||.conststring||+0x2
0000e8  086a012c          DCW      0x086a,0x012c
0000ec  00640064          DCW      0x0064,0x0064
0000f0  00140000          DCW      0x0014,0x0000
                          DCD      0x00000000
                          DCD      0x00000000
                          DCD      TEXT_CreateIndirect
                          DCD      ||.conststring||+0x2
000104  086b0190          DCW      0x086b,0x0190
000108  004b0039          DCW      0x004b,0x0039
00010c  00140000          DCW      0x0014,0x0000
                          DCD      0x00000000
                          DCD      0x00000000
                          DCD      TEXT_CreateIndirect
                          DCD      ||.conststring||+0x2
000120  086c0190          DCW      0x086c,0x0190
000124  00640039          DCW      0x0064,0x0039
000128  00140000          DCW      0x0014,0x0000
                          DCD      0x00000000
                          DCD      0x00000000
                          DCD      TEXT_CreateIndirect
                          DCD      ||.conststring||+0x2
00013c  088d005f          DCW      0x088d,0x005f
000140  00300096          DCW      0x0030,0x0096
000144  00280000          DCW      0x0028,0x0000
                          DCD      0x00000000
                          DCD      0x00000000
                          DCD      TEXT_CreateIndirect
                          DCD      ||.conststring||+0x2
000158  088e005f          DCW      0x088e,0x005f
00015c  00740096          DCW      0x0074,0x0096
000160  00280000          DCW      0x0028,0x0000
                          DCD      0x00000000
                          DCD      0x00000000
                          DCD      TEXT_CreateIndirect
                          DCD      ||.conststring||+0x2
000174  088f005f          DCW      0x088f,0x005f
000178  00b80096          DCW      0x00b8,0x0096
00017c  00280000          DCW      0x0028,0x0000
                          DCD      0x00000000
                          DCD      0x00000000
                          DCD      TEXT_CreateIndirect
                          DCD      ||.conststring||+0x2
000190  08900190          DCW      0x0890,0x0190
000194  00af0039          DCW      0x00af,0x0039
000198  00140000          DCW      0x0014,0x0000
                          DCD      0x00000000
                          DCD      0x00000000
                          DCD      TEXT_CreateIndirect
                          DCD      ||.conststring||+0x2
0001ac  090400f0          DCW      0x0904,0x00f0
0001b0  00050078          DCW      0x0005,0x0078
0001b4  00140000          DCW      0x0014,0x0000
                          DCD      0x00000000
                          DCD      0x00000000
                          DCD      TEXT_CreateIndirect
                          DCD      ||.conststring||+0x2
0001c8  09050190          DCW      0x0905,0x0190
0001cc  007d003c          DCW      0x007d,0x003c
0001d0  00140000          DCW      0x0014,0x0000
                          DCD      0x00000000
                          DCD      0x00000000
                          DCD      TEXT_CreateIndirect
                          DCD      ||.conststring||+0x2
0001e4  09060195          DCW      0x0906,0x0195
0001e8  00050050          DCW      0x0005,0x0050
0001ec  00140000          DCW      0x0014,0x0000
                          DCD      0x00000000
                          DCD      0x00000000
                          DCD      TEXT_CreateIndirect
                          DCD      ||.conststring||+0x2
000200  09070190          DCW      0x0907,0x0190
000204  00c8003c          DCW      0x00c8,0x003c
000208  00140000          DCW      0x0014,0x0000
                          DCD      0x00000000
                          DCD      0x00000000
                          DCD      TEXT_CreateIndirect
                          DCD      ||.conststring||+0x2
00021c  0908012c          DCW      0x0908,0x012c
000220  007d0064          DCW      0x007d,0x0064
000224  00140000          DCW      0x0014,0x0000
                          DCD      0x00000000
                          DCD      0x00000000
                          DCD      TEXT_CreateIndirect
                          DCD      ||.conststring||+0x2
000238  0909012c          DCW      0x0909,0x012c
00023c  00020050          DCW      0x0002,0x0050
000240  00140000          DCW      0x0014,0x0000
                          DCD      0x00000000
                          DCD      0x00000000
                          DCD      TEXT_CreateIndirect
                          DCD      ||.conststring||+0x2
000254  090a0005          DCW      0x090a,0x0005
000258  00e10050          DCW      0x00e1,0x0050
00025c  001e0000          DCW      0x001e,0x0000
                          DCD      0x00000000
                          DCD      0x00000000
                          DCD      TEXT_CreateIndirect
                          DCD      ||.conststring||+0x2
000270  090e0190          DCW      0x090e,0x0190
000274  0096003c          DCW      0x0096,0x003c
000278  00140000          DCW      0x0014,0x0000
                          DCD      0x00000000
                          DCD      0x00000000
                          DCD      TEXT_CreateIndirect
                          DCD      ||.conststring||+0x2
00028c  090b0005          DCW      0x090b,0x0005
000290  00ff0032          DCW      0x00ff,0x0032
000294  00140014          DCW      0x0014,0x0014
                          DCD      0x00000000
                          DCD      0x00000000
                          DCD      TEXT_CreateIndirect
                          DCD      ||.conststring||+0x2
0002a8  090c0036          DCW      0x090c,0x0036
0002ac  00ff0014          DCW      0x00ff,0x0014
0002b0  00140014          DCW      0x0014,0x0014
                          DCD      0x00000000
                          DCD      0x00000000
                          DCD      TEXT_CreateIndirect
                          DCD      ||.conststring||+0x2
0002c4  090d0044          DCW      0x090d,0x0044
0002c8  00fe0014          DCW      0x00fe,0x0014
0002cc  00140014          DCW      0x0014,0x0014
                          DCD      0x00000000
                          DCD      0x00000000
                          DCD      TEXT_CreateIndirect
                          DCD      ||.conststring||+0x2
0002e0  09210190          DCW      0x0921,0x0190
0002e4  00320028          DCW      0x0032,0x0028
0002e8  00140014          DCW      0x0014,0x0014
                          DCD      0x00000000
                          DCD      0x00000000
                          DCD      BUTTON_CreateIndirect
                          DCD      ||.conststring||+0x7
0002fc  08190053          DCW      0x0819,0x0053
000300  00e2004d          DCW      0x00e2,0x004d
000304  002d0000          DCW      0x002d,0x0000
                          DCD      0x00000000
                          DCD      0x00000000
                          DCD      BUTTON_CreateIndirect
                          DCD      ||.conststring||+0x7
000318  081a00a3          DCW      0x081a,0x00a3
00031c  00e2004d          DCW      0x00e2,0x004d
000320  002d0000          DCW      0x002d,0x0000
                          DCD      0x00000000
                          DCD      0x00000000
                          DCD      BUTTON_CreateIndirect
                          DCD      ||.conststring||+0x7
000334  081b00f3          DCW      0x081b,0x00f3
000338  00e2004d          DCW      0x00e2,0x004d
00033c  002d0000          DCW      0x002d,0x0000
                          DCD      0x00000000
                          DCD      0x00000000
                          DCD      BUTTON_CreateIndirect
                          DCD      ||.conststring||+0x7
000350  081c0143          DCW      0x081c,0x0143
000354  00e2004d          DCW      0x00e2,0x004d
000358  002d0000          DCW      0x002d,0x0000
                          DCD      0x00000000
                          DCD      0x00000000
                          DCD      BUTTON_CreateIndirect
                          DCD      ||.conststring||+0x7
00036c  081d0193          DCW      0x081d,0x0193
000370  00e2004d          DCW      0x00e2,0x004d
000374  002d0000          DCW      0x002d,0x0000
                          DCD      0x00000000
                          DCD      0x00000000

                          AREA ||.conststring||, DATA, READONLY, MERGE=1, STRINGS, ALIGN=0

000000  5200              DCB      "R",0
000002  54657874          DCB      "Text",0
000006  00      
000007  42757474          DCB      "Button",0
00000b  6f6e00  

                          AREA ||.data||, DATA, ALIGN=2

                  bit
000000  01                DCB      0x01
                  dot_flag
000001  00                DCB      0x00
                  page_sw
000002  03                DCB      0x03
                  para_set2
000003  ff                DCB      0xff
                  para_set4
000004  00                DCB      0x00
                  r_stable
000005  00                DCB      0x00
                  oc_sw
000006  13                DCB      0x13
                  con_flag
000007  00                DCB      0x00
                  short_flag
000008  00                DCB      0x00
                  short_finish
000009  00                DCB      0x00
                  finish
00000a  00                DCB      0x00
                  test_finish
00000b  00                DCB      0x00
                  oct_sw
00000c  00                DCB      0x00
                  oc_test
00000d  00                DCB      0x00
                  manual
00000e  00                DCB      0x00
                  led_sw
00000f  00                DCB      0x00
                  para_set1
000010  00                DCB      0x00
                  b_type
000011  00                DCB      0x00
                  oc_mode
000012  0000              DCB      0x00,0x00
                  steptime
000014  0001              DCW      0x0001
                  stable_time
000016  0000              DCB      0x00,0x00
                  stepcount
000018  0000              DCB      0x00,0x00
                  r
00001a  0000              DCB      0x00,0x00
                  short_start
00001c  0000              DCB      0x00,0x00
                  short_time
00001e  0000              DCB      0x00,0x00
                  gate_v
000020  00000000          DCFS     0x00000000 ; 0
                  hWinR
                          DCD      0x00000000
                  dis_gate_v
                          DCD      0x00000000
                  oc_data
                          DCD      0x00000000
                  v
                          DCD      0x00000000
                  time1
                          DCD      0x00000000
                  test_ftime
                          DCD      0x00000000
                  crec1
                          DCD      0x00000000
                  crec2
                          DCD      0x00000000
                  set_limit
                          DCD      0x00000000
000048  00                DCB      0x00

                          AREA ||area_number.16||, DATA, ALIGN=0

                          EXPORTAS ||area_number.16||, ||.data||
                  test_num
000000  00                DCB      0x00

                          AREA ||area_number.17||, DATA, ALIGN=0

                          EXPORTAS ||area_number.17||, ||.data||
                  ocstop
000000  00                DCB      0x00

                          AREA ||area_number.18||, DATA, ALIGN=0

                          EXPORTAS ||area_number.18||, ||.data||
                  para_set3
000000  00                DCB      0x00

                          AREA ||area_number.19||, DATA, ALIGN=0

                          EXPORTAS ||area_number.19||, ||.data||
                  alert_flag
000000  00                DCB      0x00

                          AREA ||area_number.20||, DATA, ALIGN=0

                          EXPORTAS ||area_number.20||, ||.data||
                  mode_sw
000000  00                DCB      0x00

                          AREA ||area_number.21||, DATA, ALIGN=0

                          EXPORTAS ||area_number.21||, ||.data||
                  buffer
000000  00                DCB      0x00

                          AREA ||area_number.22||, DATA, ALIGN=0

                          EXPORTAS ||area_number.22||, ||.data||
                  set_sw
000000  00                DCB      0x00

                          AREA ||area_number.23||, DATA, ALIGN=2

                          EXPORTAS ||area_number.23||, ||.data||
                  DISS_R
                          DCD      0x00000000

                          AREA ||area_number.24||, DATA, ALIGN=1

                          EXPORTAS ||area_number.24||, ||.data||
                  s_time
000000  0000              DCB      0x00,0x00

                          AREA ||area_number.25||, DATA, ALIGN=0

                          EXPORTAS ||area_number.25||, ||.data||
                  wait_flag
000000  00                DCB      0x00

;*** Start embedded assembler ***

#line 1 "..\\APP\\R_Face.c"
	AREA ||.rev16_text||, CODE, READONLY
	THUMB
	EXPORT |__asm___8_R_Face_c_bit____REV16|
#line 114 "D:\\Keil\\ARM\\CMSIS\\Include\\core_cmInstr.h"
|__asm___8_R_Face_c_bit____REV16| PROC
#line 115

 rev16 r0, r0
 bx lr
	ENDP
	AREA ||.revsh_text||, CODE, READONLY
	THUMB
	EXPORT |__asm___8_R_Face_c_bit____REVSH|
#line 128
|__asm___8_R_Face_c_bit____REVSH| PROC
#line 129

 revsh r0, r0
 bx lr
	ENDP

;*** End   embedded assembler ***
