; generated by ARM C/C++ Compiler, 4.1 [Build 894]
; commandline ArmCC [--list --split_sections --debug -c --asm --interleave -o..\Output\sysinfo.o --asm_dir=..\Listing\ --list_dir=..\Listing\ --depend=..\Output\sysinfo.d --cpu=Cortex-M4.fp --apcs=interwork --diag_suppress=870 -I..\APP -I..\drive -I..\Include -I..\Libraries\CMSIS\inc -I..\Libraries\CMSIS\src -I..\Libraries\FWlib\inc -I..\Libraries\FWlib\src -I..\Listing -I..\Output -I..\Project -I..\STemWinLibrary522\Config -I..\STemWinLibrary522\emWinTask -I..\STemWinLibrary522\GUILib -I..\STemWinLibrary522\inc -I..\User -I..\USB\STM32_USB_HOST_Library\Class\HID\inc -I..\USB\STM32_USB_HOST_Library\Class\MSC\src -I..\USB\STM32_USB_HOST_Library\Core\src -I..\USB\USB_APP -I..\USB\STM32_USB_HOST_Library\Class\HID\src -I..\USB\STM32_USB_HOST_Library\Class\MSC\inc -I..\USB\STM32_USB_HOST_Library\Core\inc -I..\USB\STM32_USB_OTG_Driver\inc -I..\FATFS\exfuns -I..\FATFS\src\option -I..\FATFS\src -I..\MALLOC -ID:\Keil\ARM\RV31\Inc -ID:\Keil\ARM\CMSIS\Include -ID:\Keil\ARM\Inc\ST\STM32F4xx -DUSE_STDPERIPH_DRIVER -DSTM32F40XX -DUSE_USB_OTG_FS -DUSE_EMBEDDED_PHY -DUSE_USB_OTG_HS -DSTM32F40XX --omf_browse=..\Output\sysinfo.crf ..\APP\sysinfo.c]
                          THUMB

                          AREA ||i.CFM_PASS||, CODE, READONLY, ALIGN=2

                  CFM_PASS PROC
;;;1361   void CFM_PASS(void);            
;;;1362   void CFM_PASS(void){
000000  b570              PUSH     {r4-r6,lr}
;;;1363       if(admin == 1)
000002  4e12              LDR      r6,|L1.76|
000004  7971              LDRB     r1,[r6,#5]  ; admin
000006  4630              MOV      r0,r6
;;;1364       {
;;;1365           WM_HWIN hItem;
;;;1366           hItem = WM_GetDialogItem(hWinsysinfo, ID_TEXT_99);
000008  f6400299          MOV      r2,#0x899
;;;1367           TEXT_SetBkColor(hItem,0x00BFFFFF);
00000c  4d10              LDR      r5,|L1.80|
00000e  6980              LDR      r0,[r0,#0x18]         ;1366
000010  2901              CMP      r1,#1                 ;1363
;;;1368           TEXT_SetTextColor(hItem, GUI_BLACK);
;;;1369       }else{
;;;1370           WM_HWIN hItem;
;;;1371           hItem = WM_GetDialogItem(hWinsysinfo, ID_TEXT_99);
000012  4611              MOV      r1,r2
000014  d00d              BEQ      |L1.50|
000016  f7fffffe          BL       WM_GetDialogItem
00001a  4604              MOV      r4,r0
;;;1372           TEXT_SetBkColor(hItem,GUI_INVALID_COLOR);
00001c  f06f4170          MVN      r1,#0xf0000000
000020  f7fffffe          BL       TEXT_SetBkColor
;;;1373           TEXT_SetTextColor(hItem, 0x00BFFFFF);
000024  4629              MOV      r1,r5
000026  4620              MOV      r0,r4
000028  f7fffffe          BL       TEXT_SetTextColor
;;;1374           info_set = set_48;
00002c  202f              MOVS     r0,#0x2f
00002e  7030              STRB     r0,[r6,#0]
;;;1375       }
;;;1376   }
000030  bd70              POP      {r4-r6,pc}
                  |L1.50|
000032  f7fffffe          BL       WM_GetDialogItem
000036  4604              MOV      r4,r0                 ;1366
000038  4629              MOV      r1,r5                 ;1367
00003a  f7fffffe          BL       TEXT_SetBkColor
00003e  4620              MOV      r0,r4                 ;1368
000040  e8bd4070          POP      {r4-r6,lr}            ;1368
000044  2100              MOVS     r1,#0                 ;1368
000046  f7ffbffe          B.W      TEXT_SetTextColor
                          ENDP

00004a  0000              DCW      0x0000
                  |L1.76|
                          DCD      ||.data||
                  |L1.80|
                          DCD      0x00bfffff

                          AREA ||i.Createsysinfo||, CODE, READONLY, ALIGN=2

                  Createsysinfo PROC
;;;321    WM_HWIN Createsysinfo(void);
;;;322    WM_HWIN Createsysinfo(void) {
000000  b51c              PUSH     {r2-r4,lr}
;;;323      hWinsysinfo  = GUI_CreateDialogBox(_aDialogCreate7, GUI_COUNTOF(_aDialogCreate7), _cbDialog, WM_HBKWIN, 0, 0);
000002  f7fffffe          BL       WM_GetDesktopWindow
000006  2400              MOVS     r4,#0
000008  4603              MOV      r3,r0
00000a  9400              STR      r4,[sp,#0]
00000c  4a07              LDR      r2,|L2.44|
00000e  2111              MOVS     r1,#0x11
000010  4807              LDR      r0,|L2.48|
000012  9401              STR      r4,[sp,#4]
000014  f7fffffe          BL       GUI_CreateDialogBox
000018  4906              LDR      r1,|L2.52|
;;;324      pass = 0;
00001a  4a07              LDR      r2,|L2.56|
00001c  6188              STR      r0,[r1,#0x18]  ; hWinsysinfo
00001e  7014              STRB     r4,[r2,#0]
;;;325      page_sw = face_sys_info;
000020  4b06              LDR      r3,|L2.60|
000022  2207              MOVS     r2,#7
000024  701a              STRB     r2,[r3,#0]
;;;326      info_set = set_48;
000026  222f              MOVS     r2,#0x2f
000028  700a              STRB     r2,[r1,#0]
;;;327      return hWinsysinfo;
;;;328    }
00002a  bd1c              POP      {r2-r4,pc}
;;;329    
                          ENDP

                  |L2.44|
                          DCD      _cbDialog
                  |L2.48|
                          DCD      ||.constdata||
                  |L2.52|
                          DCD      ||.data||
                  |L2.56|
                          DCD      pass
                  |L2.60|
                          DCD      page_sw

                          AREA ||i.INPUT_INFO||, CODE, READONLY, ALIGN=2

                          REQUIRE _printf_percent
                          REQUIRE _printf_d
                          REQUIRE _printf_int_dec
                  INPUT_INFO PROC
;;;1207              
;;;1208   void INPUT_INFO(vu8 num){
000000  b570              PUSH     {r4-r6,lr}
;;;1209       static char buf[5];
;;;1210       WM_HWIN hItem;
;;;1211       switch(info_set)
000002  4e9d              LDR      r6,|L3.632|
000004  4604              MOV      r4,r0                 ;1208
000006  7831              LDRB     r1,[r6,#0]  ; info_set
000008  4630              MOV      r0,r6
00000a  392f              SUBS     r1,r1,#0x2f
;;;1212       {
;;;1213           case set_48:
;;;1214           {
;;;1215               hItem = WM_GetDialogItem(hWinsysinfo, ID_TEXT_99);
00000c  6980              LDR      r0,[r0,#0x18]
00000e  2910              CMP      r1,#0x10              ;1211
000010  d275              BCS      |L3.254|
000012  e8dff001          TBB      [pc,r1]               ;1211
000016  081a              DCB      0x08,0x1a
000018  2c3e5062          DCB      0x2c,0x3e,0x50,0x62
00001c  758799ab          DCB      0x75,0x87,0x99,0xab
000020  bdcfe1f6          DCB      0xbd,0xcf,0xe1,0xf6
000024  f4f3              DCB      0xf4,0xf3
000026  f6400199          MOV      r1,#0x899
00002a  f7fffffe          BL       WM_GetDialogItem
00002e  4605              MOV      r5,r0
;;;1216               sprintf(buf,"%d",num);
000030  4891              LDR      r0,|L3.632|
000032  4622              MOV      r2,r4
000034  a191              ADR      r1,|L3.636|
000036  3021              ADDS     r0,r0,#0x21
000038  f7fffffe          BL       __2sprintf
;;;1217               TEXT_SetText(hItem,buf);
00003c  498e              LDR      r1,|L3.632|
00003e  4628              MOV      r0,r5
000040  3121              ADDS     r1,r1,#0x21
000042  f7fffffe          BL       TEXT_SetText
;;;1218               year1 = num;
000046  81f4              STRH     r4,[r6,#0xe]
;;;1219               Write_info();
;;;1220               break;
000048  e110              B        |L3.620|
;;;1221           }
;;;1222           case set_49:
;;;1223           {
;;;1224               hItem = WM_GetDialogItem(hWinsysinfo, ID_TEXT_100);
00004a  f640019a          MOV      r1,#0x89a
00004e  f7fffffe          BL       WM_GetDialogItem
000052  4605              MOV      r5,r0
;;;1225               sprintf(buf,"%d",num);
000054  4888              LDR      r0,|L3.632|
000056  4622              MOV      r2,r4
000058  a188              ADR      r1,|L3.636|
00005a  3021              ADDS     r0,r0,#0x21
00005c  f7fffffe          BL       __2sprintf
;;;1226               TEXT_SetText(hItem,buf);
000060  4985              LDR      r1,|L3.632|
000062  4628              MOV      r0,r5
000064  3121              ADDS     r1,r1,#0x21
000066  f7fffffe          BL       TEXT_SetText
;;;1227               year2= num;
00006a  8234              STRH     r4,[r6,#0x10]
;;;1228               Write_info();
;;;1229               break;
00006c  e0fe              B        |L3.620|
;;;1230           }
;;;1231           case set_50:
;;;1232           {
;;;1233               hItem = WM_GetDialogItem(hWinsysinfo, ID_TEXT_101);
00006e  f640019b          MOV      r1,#0x89b
000072  f7fffffe          BL       WM_GetDialogItem
000076  4605              MOV      r5,r0
;;;1234               sprintf(buf,"%d",num);
000078  487f              LDR      r0,|L3.632|
00007a  4622              MOV      r2,r4
00007c  a17f              ADR      r1,|L3.636|
00007e  3021              ADDS     r0,r0,#0x21
000080  f7fffffe          BL       __2sprintf
;;;1235               TEXT_SetText(hItem,buf);
000084  497c              LDR      r1,|L3.632|
000086  4628              MOV      r0,r5
000088  3121              ADDS     r1,r1,#0x21
00008a  f7fffffe          BL       TEXT_SetText
;;;1236               year3= num;
00008e  8274              STRH     r4,[r6,#0x12]
;;;1237               Write_info();
;;;1238               break;
000090  e0ec              B        |L3.620|
;;;1239           }
;;;1240           case set_51:
;;;1241           {
;;;1242               hItem = WM_GetDialogItem(hWinsysinfo, ID_TEXT_102);
000092  f640019c          MOV      r1,#0x89c
000096  f7fffffe          BL       WM_GetDialogItem
00009a  4605              MOV      r5,r0
;;;1243               sprintf(buf,"%d",num);
00009c  4876              LDR      r0,|L3.632|
00009e  4622              MOV      r2,r4
0000a0  a176              ADR      r1,|L3.636|
0000a2  3021              ADDS     r0,r0,#0x21
0000a4  f7fffffe          BL       __2sprintf
;;;1244               TEXT_SetText(hItem,buf);
0000a8  4973              LDR      r1,|L3.632|
0000aa  4628              MOV      r0,r5
0000ac  3121              ADDS     r1,r1,#0x21
0000ae  f7fffffe          BL       TEXT_SetText
;;;1245               year4= num;
0000b2  82b4              STRH     r4,[r6,#0x14]
;;;1246               Write_info();
;;;1247               break;
0000b4  e0da              B        |L3.620|
;;;1248           }
;;;1249           case set_52:
;;;1250           {
;;;1251               hItem = WM_GetDialogItem(hWinsysinfo, ID_TEXT_103);
0000b6  f640019d          MOV      r1,#0x89d
0000ba  f7fffffe          BL       WM_GetDialogItem
0000be  4605              MOV      r5,r0
;;;1252               sprintf(buf,"%d",num);
0000c0  486d              LDR      r0,|L3.632|
0000c2  4622              MOV      r2,r4
0000c4  a16d              ADR      r1,|L3.636|
0000c6  3021              ADDS     r0,r0,#0x21
0000c8  f7fffffe          BL       __2sprintf
;;;1253               TEXT_SetText(hItem,buf);
0000cc  496a              LDR      r1,|L3.632|
0000ce  4628              MOV      r0,r5
0000d0  3121              ADDS     r1,r1,#0x21
0000d2  f7fffffe          BL       TEXT_SetText
;;;1254               month1 = num;
0000d6  7074              STRB     r4,[r6,#1]
;;;1255               Write_info();
;;;1256               break;
0000d8  e0c8              B        |L3.620|
;;;1257           }
;;;1258           case set_53:
;;;1259           {
;;;1260               hItem = WM_GetDialogItem(hWinsysinfo, ID_TEXT_104);
0000da  f640019e          MOV      r1,#0x89e
0000de  f7fffffe          BL       WM_GetDialogItem
0000e2  4605              MOV      r5,r0
;;;1261               sprintf(buf,"%d",num);
0000e4  4864              LDR      r0,|L3.632|
0000e6  4622              MOV      r2,r4
0000e8  a164              ADR      r1,|L3.636|
0000ea  3021              ADDS     r0,r0,#0x21
0000ec  f7fffffe          BL       __2sprintf
;;;1262               TEXT_SetText(hItem,buf);
0000f0  4961              LDR      r1,|L3.632|
0000f2  4628              MOV      r0,r5
0000f4  3121              ADDS     r1,r1,#0x21
0000f6  f7fffffe          BL       TEXT_SetText
;;;1263               month2 = num;
0000fa  70b4              STRB     r4,[r6,#2]
;;;1264               Write_info();
;;;1265               break;
0000fc  e0b6              B        |L3.620|
                  |L3.254|
0000fe  e0b9              B        |L3.628|
;;;1266           }
;;;1267           case set_54:
;;;1268           {
;;;1269               hItem = WM_GetDialogItem(hWinsysinfo, ID_TEXT_105);
000100  f6401115          MOV      r1,#0x915
000104  f7fffffe          BL       WM_GetDialogItem
000108  4605              MOV      r5,r0
;;;1270               sprintf(buf,"%d",num);
00010a  485b              LDR      r0,|L3.632|
00010c  4622              MOV      r2,r4
00010e  a15b              ADR      r1,|L3.636|
000110  3021              ADDS     r0,r0,#0x21
000112  f7fffffe          BL       __2sprintf
;;;1271               TEXT_SetText(hItem,buf);
000116  4958              LDR      r1,|L3.632|
000118  4628              MOV      r0,r5
00011a  3121              ADDS     r1,r1,#0x21
00011c  f7fffffe          BL       TEXT_SetText
;;;1272               day1 = num;
000120  70f4              STRB     r4,[r6,#3]
;;;1273               Write_info();
;;;1274               break;
000122  e0a3              B        |L3.620|
;;;1275           }
;;;1276           case set_55:
;;;1277           {
;;;1278               hItem = WM_GetDialogItem(hWinsysinfo, ID_TEXT_106);
000124  f6401116          MOV      r1,#0x916
000128  f7fffffe          BL       WM_GetDialogItem
00012c  4605              MOV      r5,r0
;;;1279               sprintf(buf,"%d",num);
00012e  4852              LDR      r0,|L3.632|
000130  4622              MOV      r2,r4
000132  a152              ADR      r1,|L3.636|
000134  3021              ADDS     r0,r0,#0x21
000136  f7fffffe          BL       __2sprintf
;;;1280               TEXT_SetText(hItem,buf);
00013a  494f              LDR      r1,|L3.632|
00013c  4628              MOV      r0,r5
00013e  3121              ADDS     r1,r1,#0x21
000140  f7fffffe          BL       TEXT_SetText
;;;1281               day2 = num;
000144  7134              STRB     r4,[r6,#4]
;;;1282               Write_info();
;;;1283               break;
000146  e091              B        |L3.620|
;;;1284           }
;;;1285           case set_56:
;;;1286           {
;;;1287               hItem = WM_GetDialogItem(hWinsysinfo, ID_TEXT_107);
000148  f6401117          MOV      r1,#0x917
00014c  f7fffffe          BL       WM_GetDialogItem
000150  4605              MOV      r5,r0
;;;1288               sprintf(buf,"%d",num);
000152  4849              LDR      r0,|L3.632|
000154  4622              MOV      r2,r4
000156  a149              ADR      r1,|L3.636|
000158  3021              ADDS     r0,r0,#0x21
00015a  f7fffffe          BL       __2sprintf
;;;1289               TEXT_SetText(hItem,buf);
00015e  4946              LDR      r1,|L3.632|
000160  4628              MOV      r0,r5
000162  3121              ADDS     r1,r1,#0x21
000164  f7fffffe          BL       TEXT_SetText
;;;1290               code3 = num;
000168  7234              STRB     r4,[r6,#8]
;;;1291               Write_info();
;;;1292               break;
00016a  e07f              B        |L3.620|
;;;1293           }
;;;1294           case set_57:
;;;1295           {
;;;1296               hItem = WM_GetDialogItem(hWinsysinfo, ID_TEXT_108);
00016c  f6401118          MOV      r1,#0x918
000170  f7fffffe          BL       WM_GetDialogItem
000174  4605              MOV      r5,r0
;;;1297               sprintf(buf,"%d",num);
000176  4840              LDR      r0,|L3.632|
000178  4622              MOV      r2,r4
00017a  a140              ADR      r1,|L3.636|
00017c  3021              ADDS     r0,r0,#0x21
00017e  f7fffffe          BL       __2sprintf
;;;1298               TEXT_SetText(hItem,buf);
000182  493d              LDR      r1,|L3.632|
000184  4628              MOV      r0,r5
000186  3121              ADDS     r1,r1,#0x21
000188  f7fffffe          BL       TEXT_SetText
;;;1299               code4 = num;
00018c  7274              STRB     r4,[r6,#9]
;;;1300               Write_info();
;;;1301               break;
00018e  e06d              B        |L3.620|
;;;1302           }
;;;1303           case set_58:
;;;1304           {
;;;1305               hItem = WM_GetDialogItem(hWinsysinfo, ID_TEXT_109);
000190  f6401119          MOV      r1,#0x919
000194  f7fffffe          BL       WM_GetDialogItem
000198  4605              MOV      r5,r0
;;;1306               sprintf(buf,"%d",num);
00019a  4837              LDR      r0,|L3.632|
00019c  4622              MOV      r2,r4
00019e  a137              ADR      r1,|L3.636|
0001a0  3021              ADDS     r0,r0,#0x21
0001a2  f7fffffe          BL       __2sprintf
;;;1307               TEXT_SetText(hItem,buf);
0001a6  4934              LDR      r1,|L3.632|
0001a8  4628              MOV      r0,r5
0001aa  3121              ADDS     r1,r1,#0x21
0001ac  f7fffffe          BL       TEXT_SetText
;;;1308               code5 = num;
0001b0  72b4              STRB     r4,[r6,#0xa]
;;;1309               Write_info();
;;;1310               break;
0001b2  e05b              B        |L3.620|
;;;1311           }
;;;1312           case set_59:
;;;1313           {
;;;1314               hItem = WM_GetDialogItem(hWinsysinfo, ID_TEXT_110);
0001b4  f640111a          MOV      r1,#0x91a
0001b8  f7fffffe          BL       WM_GetDialogItem
0001bc  4605              MOV      r5,r0
;;;1315               sprintf(buf,"%d",num);
0001be  482e              LDR      r0,|L3.632|
0001c0  4622              MOV      r2,r4
0001c2  a12e              ADR      r1,|L3.636|
0001c4  3021              ADDS     r0,r0,#0x21
0001c6  f7fffffe          BL       __2sprintf
;;;1316               TEXT_SetText(hItem,buf);
0001ca  492b              LDR      r1,|L3.632|
0001cc  4628              MOV      r0,r5
0001ce  3121              ADDS     r1,r1,#0x21
0001d0  f7fffffe          BL       TEXT_SetText
;;;1317               code6 = num;
0001d4  72f4              STRB     r4,[r6,#0xb]
;;;1318               Write_info();
;;;1319               break;
0001d6  e049              B        |L3.620|
;;;1320           }
;;;1321           case set_60:
;;;1322           {
;;;1323               hItem = WM_GetDialogItem(hWinsysinfo, ID_TEXT_111);
0001d8  f640111b          MOV      r1,#0x91b
0001dc  f7fffffe          BL       WM_GetDialogItem
0001e0  4605              MOV      r5,r0
;;;1324               sprintf(buf,"%d",num);
0001e2  4825              LDR      r0,|L3.632|
0001e4  4622              MOV      r2,r4
0001e6  a125              ADR      r1,|L3.636|
0001e8  3021              ADDS     r0,r0,#0x21
0001ea  f7fffffe          BL       __2sprintf
;;;1325               TEXT_SetText(hItem,buf);
0001ee  4922              LDR      r1,|L3.632|
0001f0  4628              MOV      r0,r5
0001f2  3121              ADDS     r1,r1,#0x21
0001f4  f7fffffe          BL       TEXT_SetText
;;;1326               code7 = num;
0001f8  7334              STRB     r4,[r6,#0xc]
;;;1327               Write_info();
;;;1328               break;
0001fa  e037              B        |L3.620|
0001fc  e025              B        |L3.586|
0001fe  e012              B        |L3.550|
000200  e7ff              B        |L3.514|
                  |L3.514|
;;;1329           }
;;;1330           case set_61:
;;;1331           {
;;;1332               hItem = WM_GetDialogItem(hWinsysinfo, ID_TEXT_112);
000202  f640111c          MOV      r1,#0x91c
000206  f7fffffe          BL       WM_GetDialogItem
00020a  4605              MOV      r5,r0
;;;1333               sprintf(buf,"%d",num);
00020c  481a              LDR      r0,|L3.632|
00020e  4622              MOV      r2,r4
000210  a11a              ADR      r1,|L3.636|
000212  3021              ADDS     r0,r0,#0x21
000214  f7fffffe          BL       __2sprintf
;;;1334               TEXT_SetText(hItem,buf);
000218  4917              LDR      r1,|L3.632|
00021a  4628              MOV      r0,r5
00021c  3121              ADDS     r1,r1,#0x21
00021e  f7fffffe          BL       TEXT_SetText
;;;1335               code8 = num;
000222  7374              STRB     r4,[r6,#0xd]
;;;1336               Write_info();
;;;1337               break;
000224  e022              B        |L3.620|
                  |L3.550|
;;;1338           }
;;;1339           case set_62:
;;;1340           {
;;;1341               hItem = WM_GetDialogItem(hWinsysinfo, ID_TEXT_113);
000226  f640111d          MOV      r1,#0x91d
00022a  f7fffffe          BL       WM_GetDialogItem
00022e  4605              MOV      r5,r0
;;;1342               sprintf(buf,"%d",num);
000230  4811              LDR      r0,|L3.632|
000232  4622              MOV      r2,r4
000234  a111              ADR      r1,|L3.636|
000236  3021              ADDS     r0,r0,#0x21
000238  f7fffffe          BL       __2sprintf
;;;1343               TEXT_SetText(hItem,buf);
00023c  490e              LDR      r1,|L3.632|
00023e  4628              MOV      r0,r5
000240  3121              ADDS     r1,r1,#0x21
000242  f7fffffe          BL       TEXT_SetText
;;;1344               code1 = num;
000246  71b4              STRB     r4,[r6,#6]
;;;1345               Write_info();
;;;1346               break;
000248  e010              B        |L3.620|
                  |L3.586|
;;;1347           }
;;;1348           case set_63:
;;;1349           {
;;;1350               hItem = WM_GetDialogItem(hWinsysinfo, ID_TEXT_114);
00024a  f640111e          MOV      r1,#0x91e
00024e  f7fffffe          BL       WM_GetDialogItem
000252  4605              MOV      r5,r0
;;;1351               sprintf(buf,"%d",num);
000254  4808              LDR      r0,|L3.632|
000256  4622              MOV      r2,r4
000258  a108              ADR      r1,|L3.636|
00025a  3021              ADDS     r0,r0,#0x21
00025c  f7fffffe          BL       __2sprintf
;;;1352               TEXT_SetText(hItem,buf);
000260  4905              LDR      r1,|L3.632|
000262  4628              MOV      r0,r5
000264  3121              ADDS     r1,r1,#0x21
000266  f7fffffe          BL       TEXT_SetText
;;;1353               code2 = num;
00026a  71f4              STRB     r4,[r6,#7]
                  |L3.620|
;;;1354               Write_info();
00026c  e8bd4070          POP      {r4-r6,lr}
000270  f7ffbffe          B.W      Write_info
                  |L3.628|
;;;1355               break;
;;;1356           }
;;;1357           
;;;1358       }
;;;1359   }
000274  bd70              POP      {r4-r6,pc}
;;;1360   
                          ENDP

000276  0000              DCW      0x0000
                  |L3.632|
                          DCD      ||.data||
                  |L3.636|
00027c  256400            DCB      "%d",0
00027f  00                DCB      0

                          AREA ||i.SYS_INFO_DOWN||, CODE, READONLY, ALIGN=2

                  SYS_INFO_DOWN PROC
;;;988    
;;;989    void SYS_INFO_DOWN(void)
000000  e92d5ff0          PUSH     {r4-r12,lr}
;;;990    {
;;;991        WM_HWIN hItem;
;;;992        switch(info_set)
000004  4d46              LDR      r5,|L4.288|
000006  7829              LDRB     r1,[r5,#0]  ; info_set
000008  4628              MOV      r0,r5
00000a  392f              SUBS     r1,r1,#0x2f
;;;993        {
;;;994            case set_48:
;;;995            {
;;;996                hItem = WM_GetDialogItem(hWinsysinfo, ID_TEXT_99);
;;;997                TEXT_SetBkColor(hItem,GUI_INVALID_COLOR);
;;;998                TEXT_SetTextColor(hItem, 0x00BFFFFF);
00000c  4c45              LDR      r4,|L4.292|
;;;999                
;;;1000               hItem = WM_GetDialogItem(hWinsysinfo, ID_TEXT_113);
;;;1001               TEXT_SetBkColor(hItem,0x00BFFFFF);
;;;1002               TEXT_SetTextColor(hItem, GUI_BLACK);
;;;1003               
;;;1004               info_set = set_62;
00000e  263d              MOVS     r6,#0x3d
;;;1005               break;
;;;1006           }
;;;1007           case set_49:
;;;1008           {
;;;1009               hItem = WM_GetDialogItem(hWinsysinfo, ID_TEXT_100);
;;;1010               TEXT_SetBkColor(hItem,GUI_INVALID_COLOR);
;;;1011               TEXT_SetTextColor(hItem, 0x00BFFFFF);
;;;1012               
;;;1013               hItem = WM_GetDialogItem(hWinsysinfo, ID_TEXT_113);
;;;1014               TEXT_SetBkColor(hItem,0x00BFFFFF);
;;;1015               TEXT_SetTextColor(hItem, GUI_BLACK);
;;;1016               
;;;1017               info_set = set_62;
;;;1018               break;
;;;1019           }
;;;1020           case set_50:
;;;1021           {
;;;1022               hItem = WM_GetDialogItem(hWinsysinfo, ID_TEXT_101);
;;;1023               TEXT_SetBkColor(hItem,GUI_INVALID_COLOR);
;;;1024               TEXT_SetTextColor(hItem, 0x00BFFFFF);
;;;1025               
;;;1026               hItem = WM_GetDialogItem(hWinsysinfo, ID_TEXT_113);
;;;1027               TEXT_SetBkColor(hItem,0x00BFFFFF);
;;;1028               TEXT_SetTextColor(hItem, GUI_BLACK);
;;;1029               
;;;1030               info_set = set_62;
;;;1031               break;
;;;1032           }
;;;1033           case set_51:
;;;1034           {
;;;1035               hItem = WM_GetDialogItem(hWinsysinfo, ID_TEXT_102);
;;;1036               TEXT_SetBkColor(hItem,GUI_INVALID_COLOR);
;;;1037               TEXT_SetTextColor(hItem, 0x00BFFFFF);
;;;1038               
;;;1039               hItem = WM_GetDialogItem(hWinsysinfo, ID_TEXT_113);
;;;1040               TEXT_SetBkColor(hItem,0x00BFFFFF);
;;;1041               TEXT_SetTextColor(hItem, GUI_BLACK);
;;;1042               
;;;1043               info_set = set_62;
;;;1044               break;
;;;1045           }
;;;1046           case set_52:
;;;1047           {
;;;1048               hItem = WM_GetDialogItem(hWinsysinfo, ID_TEXT_103);
;;;1049               TEXT_SetBkColor(hItem,GUI_INVALID_COLOR);
;;;1050               TEXT_SetTextColor(hItem, 0x00BFFFFF);
;;;1051               
;;;1052               hItem = WM_GetDialogItem(hWinsysinfo, ID_TEXT_113);
;;;1053               TEXT_SetBkColor(hItem,0x00BFFFFF);
;;;1054               TEXT_SetTextColor(hItem, GUI_BLACK);
;;;1055               
;;;1056               info_set = set_62;
;;;1057               break;
;;;1058           }
;;;1059           case set_53:
;;;1060           {
;;;1061               hItem = WM_GetDialogItem(hWinsysinfo, ID_TEXT_104);
;;;1062               TEXT_SetBkColor(hItem,GUI_INVALID_COLOR);
;;;1063               TEXT_SetTextColor(hItem, 0x00BFFFFF);
;;;1064               
;;;1065               hItem = WM_GetDialogItem(hWinsysinfo, ID_TEXT_113);
;;;1066               TEXT_SetBkColor(hItem,0x00BFFFFF);
;;;1067               TEXT_SetTextColor(hItem, GUI_BLACK);
;;;1068               
;;;1069               info_set = set_62;
;;;1070               break;
;;;1071           }
;;;1072           case set_54:
;;;1073           {
;;;1074               hItem = WM_GetDialogItem(hWinsysinfo, ID_TEXT_105);
;;;1075               TEXT_SetBkColor(hItem,GUI_INVALID_COLOR);
;;;1076               TEXT_SetTextColor(hItem, 0x00BFFFFF);
;;;1077               
;;;1078               hItem = WM_GetDialogItem(hWinsysinfo, ID_TEXT_113);
;;;1079               TEXT_SetBkColor(hItem,0x00BFFFFF);
;;;1080               TEXT_SetTextColor(hItem, GUI_BLACK);
;;;1081               
;;;1082               info_set = set_62;
;;;1083               break;
;;;1084           }
;;;1085           case set_55:
;;;1086           {
;;;1087               hItem = WM_GetDialogItem(hWinsysinfo, ID_TEXT_106);
;;;1088               TEXT_SetBkColor(hItem,GUI_INVALID_COLOR);
;;;1089               TEXT_SetTextColor(hItem, 0x00BFFFFF);
;;;1090               
;;;1091               hItem = WM_GetDialogItem(hWinsysinfo, ID_TEXT_113);
;;;1092               TEXT_SetBkColor(hItem,0x00BFFFFF);
;;;1093               TEXT_SetTextColor(hItem, GUI_BLACK);
;;;1094               
;;;1095               info_set = set_62;
;;;1096               break;
;;;1097           }
;;;1098           case set_62:
;;;1099           {
;;;1100               hItem = WM_GetDialogItem(hWinsysinfo, ID_TEXT_113);
;;;1101               TEXT_SetBkColor(hItem,GUI_INVALID_COLOR);
;;;1102               TEXT_SetTextColor(hItem, 0x00BFFFFF);
;;;1103               
;;;1104               hItem = WM_GetDialogItem(hWinsysinfo, ID_TEXT_99);
;;;1105               TEXT_SetBkColor(hItem,0x00BFFFFF);
;;;1106               TEXT_SetTextColor(hItem, GUI_BLACK);
;;;1107               
;;;1108               info_set = set_48;
000010  272f              MOVS     r7,#0x2f
000012  6980              LDR      r0,[r0,#0x18]         ;996
000014  f6400999          MOV      r9,#0x899             ;996
000018  f06f4b70          MVN      r11,#0xf0000000       ;997
00001c  f6401a1d          MOV      r10,#0x91d            ;1000
000020  2910              CMP      r1,#0x10              ;992
000022  d237              BCS      |L4.148|
000024  e8dff001          TBB      [pc,r1]               ;992
000028  080a0d10          DCB      0x08,0x0a,0x0d,0x10
00002c  1316191c          DCB      0x13,0x16,0x19,0x1c
000030  5255585b          DCB      0x52,0x55,0x58,0x5b
000034  5e61383a          DCB      0x5e,0x61,0x38,0x3a
000038  4649              MOV      r1,r9                 ;996
00003a  e013              B        |L4.100|
00003c  f640019a          MOV      r1,#0x89a             ;1009
000040  e010              B        |L4.100|
000042  f640019b          MOV      r1,#0x89b             ;1022
000046  e00d              B        |L4.100|
000048  f640019c          MOV      r1,#0x89c             ;1035
00004c  e00a              B        |L4.100|
00004e  f640019d          MOV      r1,#0x89d             ;1048
000052  e007              B        |L4.100|
000054  f640019e          MOV      r1,#0x89e             ;1061
000058  e004              B        |L4.100|
00005a  f6401115          MOV      r1,#0x915             ;1074
00005e  e001              B        |L4.100|
000060  f6401116          MOV      r1,#0x916             ;1087
                  |L4.100|
000064  f7fffffe          BL       WM_GetDialogItem
000068  4680              MOV      r8,r0                 ;1087
00006a  4659              MOV      r1,r11                ;1088
00006c  f7fffffe          BL       TEXT_SetBkColor
000070  4627              MOV      r7,r4                 ;1089
000072  4621              MOV      r1,r4                 ;1089
000074  4640              MOV      r0,r8                 ;1089
000076  f7fffffe          BL       TEXT_SetTextColor
00007a  4651              MOV      r1,r10                ;1091
00007c  69a8              LDR      r0,[r5,#0x18]         ;1091  ; hWinsysinfo
00007e  f7fffffe          BL       WM_GetDialogItem
000082  4604              MOV      r4,r0                 ;1091
000084  4639              MOV      r1,r7                 ;1092
000086  f7fffffe          BL       TEXT_SetBkColor
00008a  2100              MOVS     r1,#0                 ;1093
00008c  4620              MOV      r0,r4                 ;1093
00008e  f7fffffe          BL       TEXT_SetTextColor
000092  702e              STRB     r6,[r5,#0]            ;1095
                  |L4.148|
;;;1109               break;
;;;1110           }
;;;1111           case set_63:
;;;1112           {
;;;1113               hItem = WM_GetDialogItem(hWinsysinfo, ID_TEXT_114);
;;;1114               TEXT_SetBkColor(hItem,GUI_INVALID_COLOR);
;;;1115               TEXT_SetTextColor(hItem, 0x00BFFFFF);
;;;1116               
;;;1117               hItem = WM_GetDialogItem(hWinsysinfo, ID_TEXT_99);
;;;1118               TEXT_SetBkColor(hItem,0x00BFFFFF);
;;;1119               TEXT_SetTextColor(hItem, GUI_BLACK);
;;;1120               
;;;1121               info_set = set_48;
;;;1122               break;
;;;1123           }
;;;1124           case set_56:
;;;1125           {
;;;1126               hItem = WM_GetDialogItem(hWinsysinfo, ID_TEXT_107);
;;;1127               TEXT_SetBkColor(hItem,GUI_INVALID_COLOR);
;;;1128               TEXT_SetTextColor(hItem, 0x00BFFFFF);
;;;1129               
;;;1130               hItem = WM_GetDialogItem(hWinsysinfo, ID_TEXT_99);
;;;1131               TEXT_SetBkColor(hItem,0x00BFFFFF);
;;;1132               TEXT_SetTextColor(hItem, GUI_BLACK);
;;;1133               
;;;1134               info_set = set_48;
;;;1135               break;
;;;1136           }
;;;1137           case set_57:
;;;1138           {
;;;1139               hItem = WM_GetDialogItem(hWinsysinfo, ID_TEXT_108);
;;;1140               TEXT_SetBkColor(hItem,GUI_INVALID_COLOR);
;;;1141               TEXT_SetTextColor(hItem, 0x00BFFFFF);
;;;1142               
;;;1143               hItem = WM_GetDialogItem(hWinsysinfo, ID_TEXT_99);
;;;1144               TEXT_SetBkColor(hItem,0x00BFFFFF);
;;;1145               TEXT_SetTextColor(hItem, GUI_BLACK);
;;;1146               
;;;1147               info_set = set_48;
;;;1148               break;
;;;1149           }
;;;1150           case set_58:
;;;1151           {
;;;1152               hItem = WM_GetDialogItem(hWinsysinfo, ID_TEXT_109);
;;;1153               TEXT_SetBkColor(hItem,GUI_INVALID_COLOR);
;;;1154               TEXT_SetTextColor(hItem, 0x00BFFFFF);
;;;1155               
;;;1156               hItem = WM_GetDialogItem(hWinsysinfo, ID_TEXT_99);
;;;1157               TEXT_SetBkColor(hItem,0x00BFFFFF);
;;;1158               TEXT_SetTextColor(hItem, GUI_BLACK);
;;;1159               
;;;1160               info_set = set_48;
;;;1161               break;
;;;1162           }
;;;1163           case set_59:
;;;1164           {
;;;1165               hItem = WM_GetDialogItem(hWinsysinfo, ID_TEXT_110);
;;;1166               TEXT_SetBkColor(hItem,GUI_INVALID_COLOR);
;;;1167               TEXT_SetTextColor(hItem, 0x00BFFFFF);
;;;1168               
;;;1169               hItem = WM_GetDialogItem(hWinsysinfo, ID_TEXT_99);
;;;1170               TEXT_SetBkColor(hItem,0x00BFFFFF);
;;;1171               TEXT_SetTextColor(hItem, GUI_BLACK);
;;;1172               
;;;1173               info_set = set_48;
;;;1174               break;
;;;1175           }
;;;1176           case set_60:
;;;1177           {
;;;1178               hItem = WM_GetDialogItem(hWinsysinfo, ID_TEXT_111);
;;;1179               TEXT_SetBkColor(hItem,GUI_INVALID_COLOR);
;;;1180               TEXT_SetTextColor(hItem, 0x00BFFFFF);
;;;1181               
;;;1182               hItem = WM_GetDialogItem(hWinsysinfo, ID_TEXT_99);
;;;1183               TEXT_SetBkColor(hItem,0x00BFFFFF);
;;;1184               TEXT_SetTextColor(hItem, GUI_BLACK);
;;;1185               
;;;1186               info_set = set_48;
;;;1187               break;
;;;1188           }
;;;1189           case set_61:
;;;1190           {
;;;1191               hItem = WM_GetDialogItem(hWinsysinfo, ID_TEXT_112);
;;;1192               TEXT_SetBkColor(hItem,GUI_INVALID_COLOR);
;;;1193               TEXT_SetTextColor(hItem, 0x00BFFFFF);
;;;1194               
;;;1195               hItem = WM_GetDialogItem(hWinsysinfo, ID_TEXT_99);
;;;1196               TEXT_SetBkColor(hItem,0x00BFFFFF);
;;;1197               TEXT_SetTextColor(hItem, GUI_BLACK);
;;;1198               
;;;1199               info_set = set_48;
;;;1200               break;
;;;1201           }
;;;1202       }
;;;1203       
;;;1204   }
000094  e8bd9ff0          POP      {r4-r12,pc}
000098  4651              MOV      r1,r10                ;1100
00009a  e001              B        |L4.160|
00009c  f640111e          MOV      r1,#0x91e             ;1113
                  |L4.160|
0000a0  f7fffffe          BL       WM_GetDialogItem
0000a4  4680              MOV      r8,r0                 ;1100
0000a6  4659              MOV      r1,r11                ;1101
0000a8  f7fffffe          BL       TEXT_SetBkColor
0000ac  4626              MOV      r6,r4                 ;1102
0000ae  4621              MOV      r1,r4                 ;1102
0000b0  4640              MOV      r0,r8                 ;1102
0000b2  f7fffffe          BL       TEXT_SetTextColor
0000b6  4649              MOV      r1,r9                 ;1104
0000b8  69a8              LDR      r0,[r5,#0x18]         ;1104  ; hWinsysinfo
0000ba  f7fffffe          BL       WM_GetDialogItem
0000be  4604              MOV      r4,r0                 ;1104
0000c0  4631              MOV      r1,r6                 ;1105
0000c2  f7fffffe          BL       TEXT_SetBkColor
0000c6  2100              MOVS     r1,#0                 ;1106
0000c8  4620              MOV      r0,r4                 ;1106
0000ca  e024              B        |L4.278|
0000cc  f6401117          MOV      r1,#0x917             ;1126
0000d0  e7e6              B        |L4.160|
0000d2  f6401118          MOV      r1,#0x918             ;1139
0000d6  e7e3              B        |L4.160|
0000d8  f6401119          MOV      r1,#0x919             ;1152
0000dc  e7e0              B        |L4.160|
0000de  f640111a          MOV      r1,#0x91a             ;1165
0000e2  e7dd              B        |L4.160|
0000e4  f640111b          MOV      r1,#0x91b             ;1178
0000e8  e7da              B        |L4.160|
0000ea  f640111c          MOV      r1,#0x91c             ;1191
0000ee  f7fffffe          BL       WM_GetDialogItem
0000f2  4606              MOV      r6,r0                 ;1191
0000f4  4659              MOV      r1,r11                ;1192
0000f6  f7fffffe          BL       TEXT_SetBkColor
0000fa  4621              MOV      r1,r4                 ;1193
0000fc  4630              MOV      r0,r6                 ;1193
0000fe  f7fffffe          BL       TEXT_SetTextColor
000102  4649              MOV      r1,r9                 ;1195
000104  69a8              LDR      r0,[r5,#0x18]         ;1195  ; hWinsysinfo
000106  f7fffffe          BL       WM_GetDialogItem
00010a  4606              MOV      r6,r0                 ;1195
00010c  4621              MOV      r1,r4                 ;1196
00010e  f7fffffe          BL       TEXT_SetBkColor
000112  2100              MOVS     r1,#0                 ;1197
000114  4630              MOV      r0,r6                 ;1197
                  |L4.278|
000116  f7fffffe          BL       TEXT_SetTextColor
00011a  702f              STRB     r7,[r5,#0]            ;1199
00011c  e7ba              B        |L4.148|
;;;1205   
                          ENDP

00011e  0000              DCW      0x0000
                  |L4.288|
                          DCD      ||.data||
                  |L4.292|
                          DCD      0x00bfffff

                          AREA ||i.SYS_INFO_LEFT||, CODE, READONLY, ALIGN=2

                  SYS_INFO_LEFT PROC
;;;550    
;;;551    void SYS_INFO_LEFT(void)
000000  e92d5ff0          PUSH     {r4-r12,lr}
;;;552    {
;;;553        WM_HWIN hItem;
;;;554        switch(info_set)
000004  48f5              LDR      r0,|L5.988|
000006  7801              LDRB     r1,[r0,#0]  ; info_set
;;;555        {
;;;556            case set_48:
;;;557            {
;;;558                hItem = WM_GetDialogItem(hWinsysinfo, ID_TEXT_99);
000008  f6400499          MOV      r4,#0x899
00000c  392f              SUBS     r1,r1,#0x2f           ;554
;;;559                TEXT_SetBkColor(hItem,GUI_INVALID_COLOR);
;;;560                TEXT_SetTextColor(hItem, 0x00BFFFFF);
00000e  4df4              LDR      r5,|L5.992|
;;;561                
;;;562                hItem = WM_GetDialogItem(hWinsysinfo, ID_TEXT_106);
;;;563                TEXT_SetBkColor(hItem,0x00BFFFFF);
;;;564                TEXT_SetTextColor(hItem, GUI_BLACK);
;;;565                
;;;566                info_set = set_55;
;;;567                break;
;;;568            }
;;;569            case set_49:
;;;570            {
;;;571                hItem = WM_GetDialogItem(hWinsysinfo, ID_TEXT_100);
000010  1c67              ADDS     r7,r4,#1
;;;572                TEXT_SetBkColor(hItem,GUI_INVALID_COLOR);
;;;573                TEXT_SetTextColor(hItem, 0x00BFFFFF);
;;;574                
;;;575                hItem = WM_GetDialogItem(hWinsysinfo, ID_TEXT_99);
;;;576                TEXT_SetBkColor(hItem,0x00BFFFFF);
;;;577                TEXT_SetTextColor(hItem, GUI_BLACK);
;;;578                
;;;579                info_set = set_48;
;;;580                break;
;;;581            }
;;;582            case set_50:
;;;583            {
;;;584                hItem = WM_GetDialogItem(hWinsysinfo, ID_TEXT_101);
000012  1ca6              ADDS     r6,r4,#2
000014  6980              LDR      r0,[r0,#0x18]         ;558
;;;585                TEXT_SetBkColor(hItem,GUI_INVALID_COLOR);
;;;586                TEXT_SetTextColor(hItem, 0x00BFFFFF);
;;;587                
;;;588                hItem = WM_GetDialogItem(hWinsysinfo, ID_TEXT_100);
;;;589                TEXT_SetBkColor(hItem,0x00BFFFFF);
;;;590                TEXT_SetTextColor(hItem, GUI_BLACK);
;;;591                
;;;592                info_set = set_49;
;;;593                break;
;;;594            }
;;;595            case set_51:
;;;596            {
;;;597                hItem = WM_GetDialogItem(hWinsysinfo, ID_TEXT_102);
000016  f640089c          MOV      r8,#0x89c
;;;598                TEXT_SetBkColor(hItem,GUI_INVALID_COLOR);
;;;599                TEXT_SetTextColor(hItem, 0x00BFFFFF);
;;;600                
;;;601                hItem = WM_GetDialogItem(hWinsysinfo, ID_TEXT_101);
;;;602                TEXT_SetBkColor(hItem,0x00BFFFFF);
;;;603                TEXT_SetTextColor(hItem, GUI_BLACK);
;;;604                
;;;605                info_set = set_50;
;;;606                break;
;;;607            }
;;;608            case set_52:
;;;609            {
;;;610                hItem = WM_GetDialogItem(hWinsysinfo, ID_TEXT_103);
00001a  f640099d          MOV      r9,#0x89d
;;;611                TEXT_SetBkColor(hItem,GUI_INVALID_COLOR);
;;;612                TEXT_SetTextColor(hItem, 0x00BFFFFF);
;;;613                
;;;614                hItem = WM_GetDialogItem(hWinsysinfo, ID_TEXT_102);
;;;615                TEXT_SetBkColor(hItem,0x00BFFFFF);
;;;616                TEXT_SetTextColor(hItem, GUI_BLACK);
;;;617                
;;;618                info_set = set_51;
;;;619                break;
;;;620            }
;;;621            case set_53:
;;;622            {
;;;623                hItem = WM_GetDialogItem(hWinsysinfo, ID_TEXT_104);
00001e  f6400a9e          MOV      r10,#0x89e
;;;624                TEXT_SetBkColor(hItem,GUI_INVALID_COLOR);
;;;625                TEXT_SetTextColor(hItem, 0x00BFFFFF);
;;;626                
;;;627                hItem = WM_GetDialogItem(hWinsysinfo, ID_TEXT_103);
;;;628                TEXT_SetBkColor(hItem,0x00BFFFFF);
;;;629                TEXT_SetTextColor(hItem, GUI_BLACK);
;;;630                
;;;631                info_set = set_52;
;;;632                break;
;;;633            }
;;;634            case set_54:
;;;635            {
;;;636                hItem = WM_GetDialogItem(hWinsysinfo, ID_TEXT_105);
000022  f6401b15          MOV      r11,#0x915
000026  2910              CMP      r1,#0x10              ;554
000028  d277              BCS      |L5.282|
00002a  e8dff001          TBB      [pc,r1]               ;554
00002e  0824              DCB      0x08,0x24
000030  3f5a7893          DCB      0x3f,0x5a,0x78,0x93
000034  aec9fdfc          DCB      0xae,0xc9,0xfd,0xfc
000038  fbfaf9f8          DCB      0xfb,0xfa,0xf9,0xf8
00003c  e5f7              DCB      0xe5,0xf7
00003e  4621              MOV      r1,r4                 ;558
000040  4ee6              LDR      r6,|L5.988|
000042  f7fffffe          BL       WM_GetDialogItem
000046  4604              MOV      r4,r0                 ;558
000048  f06f4170          MVN      r1,#0xf0000000        ;559
00004c  f7fffffe          BL       TEXT_SetBkColor
000050  4629              MOV      r1,r5                 ;560
000052  4620              MOV      r0,r4                 ;560
000054  f7fffffe          BL       TEXT_SetTextColor
000058  f6401116          MOV      r1,#0x916             ;562
00005c  69b0              LDR      r0,[r6,#0x18]         ;562  ; hWinsysinfo
00005e  f7fffffe          BL       WM_GetDialogItem
000062  4604              MOV      r4,r0                 ;562
000064  4629              MOV      r1,r5                 ;563
000066  f7fffffe          BL       TEXT_SetBkColor
00006a  2100              MOVS     r1,#0                 ;564
00006c  4620              MOV      r0,r4                 ;564
00006e  f7fffffe          BL       TEXT_SetTextColor
000072  2036              MOVS     r0,#0x36              ;566
000074  e1af              B        |L5.982|
000076  4639              MOV      r1,r7                 ;571
000078  4ed8              LDR      r6,|L5.988|
00007a  f7fffffe          BL       WM_GetDialogItem
00007e  4607              MOV      r7,r0                 ;571
000080  f06f4170          MVN      r1,#0xf0000000        ;572
000084  f7fffffe          BL       TEXT_SetBkColor
000088  4629              MOV      r1,r5                 ;573
00008a  4638              MOV      r0,r7                 ;573
00008c  f7fffffe          BL       TEXT_SetTextColor
000090  4621              MOV      r1,r4                 ;575
000092  69b0              LDR      r0,[r6,#0x18]         ;575  ; hWinsysinfo
000094  f7fffffe          BL       WM_GetDialogItem
000098  4604              MOV      r4,r0                 ;575
00009a  4629              MOV      r1,r5                 ;576
00009c  f7fffffe          BL       TEXT_SetBkColor
0000a0  2100              MOVS     r1,#0                 ;577
0000a2  4620              MOV      r0,r4                 ;577
0000a4  f7fffffe          BL       TEXT_SetTextColor
0000a8  202f              MOVS     r0,#0x2f              ;579
0000aa  e194              B        |L5.982|
0000ac  4631              MOV      r1,r6                 ;584
0000ae  4ecb              LDR      r6,|L5.988|
0000b0  f7fffffe          BL       WM_GetDialogItem
0000b4  4604              MOV      r4,r0                 ;584
0000b6  f06f4170          MVN      r1,#0xf0000000        ;585
0000ba  f7fffffe          BL       TEXT_SetBkColor
0000be  4629              MOV      r1,r5                 ;586
0000c0  4620              MOV      r0,r4                 ;586
0000c2  f7fffffe          BL       TEXT_SetTextColor
0000c6  4639              MOV      r1,r7                 ;588
0000c8  69b0              LDR      r0,[r6,#0x18]         ;588  ; hWinsysinfo
0000ca  f7fffffe          BL       WM_GetDialogItem
0000ce  4604              MOV      r4,r0                 ;588
0000d0  4629              MOV      r1,r5                 ;589
0000d2  f7fffffe          BL       TEXT_SetBkColor
0000d6  2100              MOVS     r1,#0                 ;590
0000d8  4620              MOV      r0,r4                 ;590
0000da  f7fffffe          BL       TEXT_SetTextColor
0000de  2030              MOVS     r0,#0x30              ;592
0000e0  e179              B        |L5.982|
0000e2  4641              MOV      r1,r8                 ;597
0000e4  4cbd              LDR      r4,|L5.988|
0000e6  f7fffffe          BL       WM_GetDialogItem
0000ea  4680              MOV      r8,r0                 ;597
0000ec  f06f4170          MVN      r1,#0xf0000000        ;598
0000f0  f7fffffe          BL       TEXT_SetBkColor
0000f4  462f              MOV      r7,r5                 ;599
0000f6  4629              MOV      r1,r5                 ;599
0000f8  4640              MOV      r0,r8                 ;599
0000fa  f7fffffe          BL       TEXT_SetTextColor
0000fe  4631              MOV      r1,r6                 ;601
000100  69a0              LDR      r0,[r4,#0x18]         ;601  ; hWinsysinfo
000102  f7fffffe          BL       WM_GetDialogItem
000106  4605              MOV      r5,r0                 ;601
000108  4639              MOV      r1,r7                 ;602
00010a  f7fffffe          BL       TEXT_SetBkColor
00010e  2100              MOVS     r1,#0                 ;603
000110  4628              MOV      r0,r5                 ;603
000112  f7fffffe          BL       TEXT_SetTextColor
000116  2031              MOVS     r0,#0x31              ;605
000118  7020              STRB     r0,[r4,#0]            ;605
                  |L5.282|
;;;637                TEXT_SetBkColor(hItem,GUI_INVALID_COLOR);
;;;638                TEXT_SetTextColor(hItem, 0x00BFFFFF);
;;;639                
;;;640                hItem = WM_GetDialogItem(hWinsysinfo, ID_TEXT_104);
;;;641                TEXT_SetBkColor(hItem,0x00BFFFFF);
;;;642                TEXT_SetTextColor(hItem, GUI_BLACK);
;;;643                
;;;644                info_set = set_53;
;;;645                break;
;;;646            }
;;;647            case set_55:
;;;648            {
;;;649                hItem = WM_GetDialogItem(hWinsysinfo, ID_TEXT_106);
;;;650                TEXT_SetBkColor(hItem,GUI_INVALID_COLOR);
;;;651                TEXT_SetTextColor(hItem, 0x00BFFFFF);
;;;652                
;;;653                hItem = WM_GetDialogItem(hWinsysinfo, ID_TEXT_105);
;;;654                TEXT_SetBkColor(hItem,0x00BFFFFF);
;;;655                TEXT_SetTextColor(hItem, GUI_BLACK);
;;;656                
;;;657                info_set = set_54;
;;;658                break;
;;;659            }
;;;660            case set_62:
;;;661            {
;;;662                hItem = WM_GetDialogItem(hWinsysinfo, ID_TEXT_113);
;;;663                TEXT_SetBkColor(hItem,GUI_INVALID_COLOR);
;;;664                TEXT_SetTextColor(hItem, 0x00BFFFFF);
;;;665                
;;;666                hItem = WM_GetDialogItem(hWinsysinfo, ID_TEXT_112);
;;;667                TEXT_SetBkColor(hItem,0x00BFFFFF);
;;;668                TEXT_SetTextColor(hItem, GUI_BLACK);
;;;669                
;;;670                info_set = set_61;
;;;671                break;
;;;672            }
;;;673            case set_63:
;;;674            {
;;;675                hItem = WM_GetDialogItem(hWinsysinfo, ID_TEXT_114);
;;;676                TEXT_SetBkColor(hItem,GUI_INVALID_COLOR);
;;;677                TEXT_SetTextColor(hItem, 0x00BFFFFF);
;;;678                
;;;679                hItem = WM_GetDialogItem(hWinsysinfo, ID_TEXT_113);
;;;680                TEXT_SetBkColor(hItem,0x00BFFFFF);
;;;681                TEXT_SetTextColor(hItem, GUI_BLACK);
;;;682                
;;;683                info_set = set_62;
;;;684                break;
;;;685            }
;;;686            case set_56:
;;;687            {
;;;688                hItem = WM_GetDialogItem(hWinsysinfo, ID_TEXT_107);
;;;689                TEXT_SetBkColor(hItem,GUI_INVALID_COLOR);
;;;690                TEXT_SetTextColor(hItem, 0x00BFFFFF);
;;;691                
;;;692                hItem = WM_GetDialogItem(hWinsysinfo, ID_TEXT_114);
;;;693                TEXT_SetBkColor(hItem,0x00BFFFFF);
;;;694                TEXT_SetTextColor(hItem, GUI_BLACK);
;;;695                
;;;696                info_set = set_63;
;;;697                break;
;;;698            }
;;;699            case set_57:
;;;700            {
;;;701                hItem = WM_GetDialogItem(hWinsysinfo, ID_TEXT_108);
;;;702                TEXT_SetBkColor(hItem,GUI_INVALID_COLOR);
;;;703                TEXT_SetTextColor(hItem, 0x00BFFFFF);
;;;704                
;;;705                hItem = WM_GetDialogItem(hWinsysinfo, ID_TEXT_107);
;;;706                TEXT_SetBkColor(hItem,0x00BFFFFF);
;;;707                TEXT_SetTextColor(hItem, GUI_BLACK);
;;;708                
;;;709                info_set = set_56;
;;;710                break;
;;;711            }
;;;712            case set_58:
;;;713            {
;;;714                hItem = WM_GetDialogItem(hWinsysinfo, ID_TEXT_109);
;;;715                TEXT_SetBkColor(hItem,GUI_INVALID_COLOR);
;;;716                TEXT_SetTextColor(hItem, 0x00BFFFFF);
;;;717                
;;;718                hItem = WM_GetDialogItem(hWinsysinfo, ID_TEXT_108);
;;;719                TEXT_SetBkColor(hItem,0x00BFFFFF);
;;;720                TEXT_SetTextColor(hItem, GUI_BLACK);
;;;721                
;;;722                info_set = set_57;
;;;723                break;
;;;724            }
;;;725            case set_59:
;;;726            {
;;;727                hItem = WM_GetDialogItem(hWinsysinfo, ID_TEXT_110);
;;;728                TEXT_SetBkColor(hItem,GUI_INVALID_COLOR);
;;;729                TEXT_SetTextColor(hItem, 0x00BFFFFF);
;;;730                
;;;731                hItem = WM_GetDialogItem(hWinsysinfo, ID_TEXT_109);
;;;732                TEXT_SetBkColor(hItem,0x00BFFFFF);
;;;733                TEXT_SetTextColor(hItem, GUI_BLACK);
;;;734                
;;;735                info_set = set_58;
;;;736                break;
;;;737            }
;;;738            case set_60:
;;;739            {
;;;740                hItem = WM_GetDialogItem(hWinsysinfo, ID_TEXT_111);
;;;741                TEXT_SetBkColor(hItem,GUI_INVALID_COLOR);
;;;742                TEXT_SetTextColor(hItem, 0x00BFFFFF);
;;;743                
;;;744                hItem = WM_GetDialogItem(hWinsysinfo, ID_TEXT_110);
;;;745                TEXT_SetBkColor(hItem,0x00BFFFFF);
;;;746                TEXT_SetTextColor(hItem, GUI_BLACK);
;;;747                
;;;748                info_set = set_59;
;;;749                break;
;;;750            }
;;;751            case set_61:
;;;752            {
;;;753                hItem = WM_GetDialogItem(hWinsysinfo, ID_TEXT_112);
;;;754                TEXT_SetBkColor(hItem,GUI_INVALID_COLOR);
;;;755                TEXT_SetTextColor(hItem, 0x00BFFFFF);
;;;756                
;;;757                hItem = WM_GetDialogItem(hWinsysinfo, ID_TEXT_111);
;;;758                TEXT_SetBkColor(hItem,0x00BFFFFF);
;;;759                TEXT_SetTextColor(hItem, GUI_BLACK);
;;;760                
;;;761                info_set = set_60;
;;;762                break;
;;;763            }
;;;764        }
;;;765        
;;;766    }
00011a  e8bd9ff0          POP      {r4-r12,pc}
00011e  4649              MOV      r1,r9                 ;610
000120  4eae              LDR      r6,|L5.988|
000122  f7fffffe          BL       WM_GetDialogItem
000126  4604              MOV      r4,r0                 ;610
000128  f06f4170          MVN      r1,#0xf0000000        ;611
00012c  f7fffffe          BL       TEXT_SetBkColor
000130  4629              MOV      r1,r5                 ;612
000132  4620              MOV      r0,r4                 ;612
000134  f7fffffe          BL       TEXT_SetTextColor
000138  4641              MOV      r1,r8                 ;614
00013a  69b0              LDR      r0,[r6,#0x18]         ;614  ; hWinsysinfo
00013c  f7fffffe          BL       WM_GetDialogItem
000140  4604              MOV      r4,r0                 ;614
000142  4629              MOV      r1,r5                 ;615
000144  f7fffffe          BL       TEXT_SetBkColor
000148  2100              MOVS     r1,#0                 ;616
00014a  4620              MOV      r0,r4                 ;616
00014c  f7fffffe          BL       TEXT_SetTextColor
000150  2032              MOVS     r0,#0x32              ;618
000152  e140              B        |L5.982|
000154  4651              MOV      r1,r10                ;623
000156  4ea1              LDR      r6,|L5.988|
000158  f7fffffe          BL       WM_GetDialogItem
00015c  4604              MOV      r4,r0                 ;623
00015e  f06f4170          MVN      r1,#0xf0000000        ;624
000162  f7fffffe          BL       TEXT_SetBkColor
000166  4629              MOV      r1,r5                 ;625
000168  4620              MOV      r0,r4                 ;625
00016a  f7fffffe          BL       TEXT_SetTextColor
00016e  4649              MOV      r1,r9                 ;627
000170  69b0              LDR      r0,[r6,#0x18]         ;627  ; hWinsysinfo
000172  f7fffffe          BL       WM_GetDialogItem
000176  4604              MOV      r4,r0                 ;627
000178  4629              MOV      r1,r5                 ;628
00017a  f7fffffe          BL       TEXT_SetBkColor
00017e  2100              MOVS     r1,#0                 ;629
000180  4620              MOV      r0,r4                 ;629
000182  f7fffffe          BL       TEXT_SetTextColor
000186  2033              MOVS     r0,#0x33              ;631
000188  e125              B        |L5.982|
00018a  4659              MOV      r1,r11                ;636
00018c  4e93              LDR      r6,|L5.988|
00018e  f7fffffe          BL       WM_GetDialogItem
000192  4604              MOV      r4,r0                 ;636
000194  f06f4170          MVN      r1,#0xf0000000        ;637
000198  f7fffffe          BL       TEXT_SetBkColor
00019c  4629              MOV      r1,r5                 ;638
00019e  4620              MOV      r0,r4                 ;638
0001a0  f7fffffe          BL       TEXT_SetTextColor
0001a4  4651              MOV      r1,r10                ;640
0001a6  69b0              LDR      r0,[r6,#0x18]         ;640  ; hWinsysinfo
0001a8  f7fffffe          BL       WM_GetDialogItem
0001ac  4604              MOV      r4,r0                 ;640
0001ae  4629              MOV      r1,r5                 ;641
0001b0  f7fffffe          BL       TEXT_SetBkColor
0001b4  2100              MOVS     r1,#0                 ;642
0001b6  4620              MOV      r0,r4                 ;642
0001b8  f7fffffe          BL       TEXT_SetTextColor
0001bc  2034              MOVS     r0,#0x34              ;644
0001be  e10a              B        |L5.982|
0001c0  f6401116          MOV      r1,#0x916             ;649
0001c4  4e85              LDR      r6,|L5.988|
0001c6  f7fffffe          BL       WM_GetDialogItem
0001ca  4604              MOV      r4,r0                 ;649
0001cc  f06f4170          MVN      r1,#0xf0000000        ;650
0001d0  f7fffffe          BL       TEXT_SetBkColor
0001d4  4629              MOV      r1,r5                 ;651
0001d6  4620              MOV      r0,r4                 ;651
0001d8  f7fffffe          BL       TEXT_SetTextColor
0001dc  4659              MOV      r1,r11                ;653
0001de  69b0              LDR      r0,[r6,#0x18]         ;653  ; hWinsysinfo
0001e0  f7fffffe          BL       WM_GetDialogItem
0001e4  4604              MOV      r4,r0                 ;653
0001e6  4629              MOV      r1,r5                 ;654
0001e8  f7fffffe          BL       TEXT_SetBkColor
0001ec  2100              MOVS     r1,#0                 ;655
0001ee  4620              MOV      r0,r4                 ;655
0001f0  f7fffffe          BL       TEXT_SetTextColor
0001f4  2035              MOVS     r0,#0x35              ;657
0001f6  e0ee              B        |L5.982|
0001f8  f640111d          MOV      r1,#0x91d             ;662
0001fc  4e77              LDR      r6,|L5.988|
0001fe  f7fffffe          BL       WM_GetDialogItem
000202  4604              MOV      r4,r0                 ;662
000204  f06f4170          MVN      r1,#0xf0000000        ;663
000208  f7fffffe          BL       TEXT_SetBkColor
00020c  4629              MOV      r1,r5                 ;664
00020e  4620              MOV      r0,r4                 ;664
000210  f7fffffe          BL       TEXT_SetTextColor
000214  f640111c          MOV      r1,#0x91c             ;666
000218  69b0              LDR      r0,[r6,#0x18]         ;666  ; hWinsysinfo
00021a  e006              B        |L5.554|
00021c  e011              B        |L5.578|
00021e  e0be              B        |L5.926|
000220  e0a0              B        |L5.868|
000222  e082              B        |L5.810|
000224  e064              B        |L5.752|
000226  e046              B        |L5.694|
000228  e028              B        |L5.636|
                  |L5.554|
00022a  f7fffffe          BL       WM_GetDialogItem
00022e  4604              MOV      r4,r0                 ;666
000230  4629              MOV      r1,r5                 ;667
000232  f7fffffe          BL       TEXT_SetBkColor
000236  2100              MOVS     r1,#0                 ;668
000238  4620              MOV      r0,r4                 ;668
00023a  f7fffffe          BL       TEXT_SetTextColor
00023e  203c              MOVS     r0,#0x3c              ;670
000240  e0c9              B        |L5.982|
                  |L5.578|
000242  f640111e          MOV      r1,#0x91e             ;675
000246  4e65              LDR      r6,|L5.988|
000248  f7fffffe          BL       WM_GetDialogItem
00024c  4604              MOV      r4,r0                 ;675
00024e  f06f4170          MVN      r1,#0xf0000000        ;676
000252  f7fffffe          BL       TEXT_SetBkColor
000256  4629              MOV      r1,r5                 ;677
000258  4620              MOV      r0,r4                 ;677
00025a  f7fffffe          BL       TEXT_SetTextColor
00025e  f640111d          MOV      r1,#0x91d             ;679
000262  69b0              LDR      r0,[r6,#0x18]         ;679  ; hWinsysinfo
000264  f7fffffe          BL       WM_GetDialogItem
000268  4604              MOV      r4,r0                 ;679
00026a  4629              MOV      r1,r5                 ;680
00026c  f7fffffe          BL       TEXT_SetBkColor
000270  2100              MOVS     r1,#0                 ;681
000272  4620              MOV      r0,r4                 ;681
000274  f7fffffe          BL       TEXT_SetTextColor
000278  203d              MOVS     r0,#0x3d              ;683
00027a  e0ac              B        |L5.982|
                  |L5.636|
00027c  f6401117          MOV      r1,#0x917             ;688
000280  4e56              LDR      r6,|L5.988|
000282  f7fffffe          BL       WM_GetDialogItem
000286  4604              MOV      r4,r0                 ;688
000288  f06f4170          MVN      r1,#0xf0000000        ;689
00028c  f7fffffe          BL       TEXT_SetBkColor
000290  4629              MOV      r1,r5                 ;690
000292  4620              MOV      r0,r4                 ;690
000294  f7fffffe          BL       TEXT_SetTextColor
000298  f640111e          MOV      r1,#0x91e             ;692
00029c  69b0              LDR      r0,[r6,#0x18]         ;692  ; hWinsysinfo
00029e  f7fffffe          BL       WM_GetDialogItem
0002a2  4604              MOV      r4,r0                 ;692
0002a4  4629              MOV      r1,r5                 ;693
0002a6  f7fffffe          BL       TEXT_SetBkColor
0002aa  2100              MOVS     r1,#0                 ;694
0002ac  4620              MOV      r0,r4                 ;694
0002ae  f7fffffe          BL       TEXT_SetTextColor
0002b2  203e              MOVS     r0,#0x3e              ;696
0002b4  e08f              B        |L5.982|
                  |L5.694|
0002b6  f6401118          MOV      r1,#0x918             ;701
0002ba  4e48              LDR      r6,|L5.988|
0002bc  f7fffffe          BL       WM_GetDialogItem
0002c0  4604              MOV      r4,r0                 ;701
0002c2  f06f4170          MVN      r1,#0xf0000000        ;702
0002c6  f7fffffe          BL       TEXT_SetBkColor
0002ca  4629              MOV      r1,r5                 ;703
0002cc  4620              MOV      r0,r4                 ;703
0002ce  f7fffffe          BL       TEXT_SetTextColor
0002d2  f6401117          MOV      r1,#0x917             ;705
0002d6  69b0              LDR      r0,[r6,#0x18]         ;705  ; hWinsysinfo
0002d8  f7fffffe          BL       WM_GetDialogItem
0002dc  4604              MOV      r4,r0                 ;705
0002de  4629              MOV      r1,r5                 ;706
0002e0  f7fffffe          BL       TEXT_SetBkColor
0002e4  2100              MOVS     r1,#0                 ;707
0002e6  4620              MOV      r0,r4                 ;707
0002e8  f7fffffe          BL       TEXT_SetTextColor
0002ec  2037              MOVS     r0,#0x37              ;709
0002ee  e072              B        |L5.982|
                  |L5.752|
0002f0  f6401119          MOV      r1,#0x919             ;714
0002f4  4e39              LDR      r6,|L5.988|
0002f6  f7fffffe          BL       WM_GetDialogItem
0002fa  4604              MOV      r4,r0                 ;714
0002fc  f06f4170          MVN      r1,#0xf0000000        ;715
000300  f7fffffe          BL       TEXT_SetBkColor
000304  4629              MOV      r1,r5                 ;716
000306  4620              MOV      r0,r4                 ;716
000308  f7fffffe          BL       TEXT_SetTextColor
00030c  f6401118          MOV      r1,#0x918             ;718
000310  69b0              LDR      r0,[r6,#0x18]         ;718  ; hWinsysinfo
000312  f7fffffe          BL       WM_GetDialogItem
000316  4604              MOV      r4,r0                 ;718
000318  4629              MOV      r1,r5                 ;719
00031a  f7fffffe          BL       TEXT_SetBkColor
00031e  2100              MOVS     r1,#0                 ;720
000320  4620              MOV      r0,r4                 ;720
000322  f7fffffe          BL       TEXT_SetTextColor
000326  2038              MOVS     r0,#0x38              ;722
000328  e055              B        |L5.982|
                  |L5.810|
00032a  f640111a          MOV      r1,#0x91a             ;727
00032e  4e2b              LDR      r6,|L5.988|
000330  f7fffffe          BL       WM_GetDialogItem
000334  4604              MOV      r4,r0                 ;727
000336  f06f4170          MVN      r1,#0xf0000000        ;728
00033a  f7fffffe          BL       TEXT_SetBkColor
00033e  4629              MOV      r1,r5                 ;729
000340  4620              MOV      r0,r4                 ;729
000342  f7fffffe          BL       TEXT_SetTextColor
000346  f6401119          MOV      r1,#0x919             ;731
00034a  69b0              LDR      r0,[r6,#0x18]         ;731  ; hWinsysinfo
00034c  f7fffffe          BL       WM_GetDialogItem
000350  4604              MOV      r4,r0                 ;731
000352  4629              MOV      r1,r5                 ;732
000354  f7fffffe          BL       TEXT_SetBkColor
000358  2100              MOVS     r1,#0                 ;733
00035a  4620              MOV      r0,r4                 ;733
00035c  f7fffffe          BL       TEXT_SetTextColor
000360  2039              MOVS     r0,#0x39              ;735
000362  e038              B        |L5.982|
                  |L5.868|
000364  f640111b          MOV      r1,#0x91b             ;740
000368  4e1c              LDR      r6,|L5.988|
00036a  f7fffffe          BL       WM_GetDialogItem
00036e  4604              MOV      r4,r0                 ;740
000370  f06f4170          MVN      r1,#0xf0000000        ;741
000374  f7fffffe          BL       TEXT_SetBkColor
000378  4629              MOV      r1,r5                 ;742
00037a  4620              MOV      r0,r4                 ;742
00037c  f7fffffe          BL       TEXT_SetTextColor
000380  f640111a          MOV      r1,#0x91a             ;744
000384  69b0              LDR      r0,[r6,#0x18]         ;744  ; hWinsysinfo
000386  f7fffffe          BL       WM_GetDialogItem
00038a  4604              MOV      r4,r0                 ;744
00038c  4629              MOV      r1,r5                 ;745
00038e  f7fffffe          BL       TEXT_SetBkColor
000392  2100              MOVS     r1,#0                 ;746
000394  4620              MOV      r0,r4                 ;746
000396  f7fffffe          BL       TEXT_SetTextColor
00039a  203a              MOVS     r0,#0x3a              ;748
00039c  e01b              B        |L5.982|
                  |L5.926|
00039e  f640111c          MOV      r1,#0x91c             ;753
0003a2  4e0e              LDR      r6,|L5.988|
0003a4  f7fffffe          BL       WM_GetDialogItem
0003a8  4604              MOV      r4,r0                 ;753
0003aa  f06f4170          MVN      r1,#0xf0000000        ;754
0003ae  f7fffffe          BL       TEXT_SetBkColor
0003b2  4629              MOV      r1,r5                 ;755
0003b4  4620              MOV      r0,r4                 ;755
0003b6  f7fffffe          BL       TEXT_SetTextColor
0003ba  f640111b          MOV      r1,#0x91b             ;757
0003be  69b0              LDR      r0,[r6,#0x18]         ;757  ; hWinsysinfo
0003c0  f7fffffe          BL       WM_GetDialogItem
0003c4  4604              MOV      r4,r0                 ;757
0003c6  4629              MOV      r1,r5                 ;758
0003c8  f7fffffe          BL       TEXT_SetBkColor
0003cc  2100              MOVS     r1,#0                 ;759
0003ce  4620              MOV      r0,r4                 ;759
0003d0  f7fffffe          BL       TEXT_SetTextColor
0003d4  203b              MOVS     r0,#0x3b              ;761
                  |L5.982|
0003d6  7030              STRB     r0,[r6,#0]            ;761
0003d8  e69f              B        |L5.282|
;;;767    
                          ENDP

0003da  0000              DCW      0x0000
                  |L5.988|
                          DCD      ||.data||
                  |L5.992|
                          DCD      0x00bfffff

                          AREA ||i.SYS_INFO_RIGHT||, CODE, READONLY, ALIGN=2

                  SYS_INFO_RIGHT PROC
;;;331    
;;;332    void SYS_INFO_RIGHT(void)
000000  e92d5ff0          PUSH     {r4-r12,lr}
;;;333    {
;;;334        WM_HWIN hItem;
;;;335        switch(info_set)
000004  48f6              LDR      r0,|L6.992|
000006  7801              LDRB     r1,[r0,#0]  ; info_set
;;;336        {
;;;337            case set_48:
;;;338            {
;;;339                hItem = WM_GetDialogItem(hWinsysinfo, ID_TEXT_99);
000008  f6400499          MOV      r4,#0x899
00000c  392f              SUBS     r1,r1,#0x2f           ;335
;;;340                TEXT_SetBkColor(hItem,GUI_INVALID_COLOR);
;;;341                TEXT_SetTextColor(hItem, 0x00BFFFFF);
00000e  4df5              LDR      r5,|L6.996|
;;;342                
;;;343                hItem = WM_GetDialogItem(hWinsysinfo, ID_TEXT_100);
000010  1c67              ADDS     r7,r4,#1
000012  6980              LDR      r0,[r0,#0x18]         ;339
;;;344                TEXT_SetBkColor(hItem,0x00BFFFFF);
;;;345                TEXT_SetTextColor(hItem, GUI_BLACK);
;;;346                
;;;347                info_set = set_49;
;;;348                break;
;;;349            }
;;;350            case set_49:
;;;351            {
;;;352                hItem = WM_GetDialogItem(hWinsysinfo, ID_TEXT_100);
;;;353                TEXT_SetBkColor(hItem,GUI_INVALID_COLOR);
;;;354                TEXT_SetTextColor(hItem, 0x00BFFFFF);
;;;355                
;;;356                hItem = WM_GetDialogItem(hWinsysinfo, ID_TEXT_101);
000014  f640089b          MOV      r8,#0x89b
;;;357                TEXT_SetBkColor(hItem,0x00BFFFFF);
;;;358                TEXT_SetTextColor(hItem, GUI_BLACK);
;;;359                
;;;360                info_set = set_50;
;;;361                break;
;;;362            }
;;;363            case set_50:
;;;364            {
;;;365                hItem = WM_GetDialogItem(hWinsysinfo, ID_TEXT_101);
;;;366                TEXT_SetBkColor(hItem,GUI_INVALID_COLOR);
;;;367                TEXT_SetTextColor(hItem, 0x00BFFFFF);
;;;368                
;;;369                hItem = WM_GetDialogItem(hWinsysinfo, ID_TEXT_102);
000018  f640099c          MOV      r9,#0x89c
;;;370                TEXT_SetBkColor(hItem,0x00BFFFFF);
;;;371                TEXT_SetTextColor(hItem, GUI_BLACK);
;;;372                
;;;373                info_set = set_51;
;;;374                break;
;;;375            }
;;;376            case set_51:
;;;377            {
;;;378                hItem = WM_GetDialogItem(hWinsysinfo, ID_TEXT_102);
;;;379                TEXT_SetBkColor(hItem,GUI_INVALID_COLOR);
;;;380                TEXT_SetTextColor(hItem, 0x00BFFFFF);
;;;381                
;;;382                hItem = WM_GetDialogItem(hWinsysinfo, ID_TEXT_103);
00001c  f6400a9d          MOV      r10,#0x89d
;;;383                TEXT_SetBkColor(hItem,0x00BFFFFF);
;;;384                TEXT_SetTextColor(hItem, GUI_BLACK);
;;;385                
;;;386                info_set = set_52;
;;;387                break;
;;;388            }
;;;389            case set_52:
;;;390            {
;;;391                hItem = WM_GetDialogItem(hWinsysinfo, ID_TEXT_103);
;;;392                TEXT_SetBkColor(hItem,GUI_INVALID_COLOR);
;;;393                TEXT_SetTextColor(hItem, 0x00BFFFFF);
;;;394                
;;;395                hItem = WM_GetDialogItem(hWinsysinfo, ID_TEXT_104);
000020  f6400b9e          MOV      r11,#0x89e
;;;396                TEXT_SetBkColor(hItem,0x00BFFFFF);
;;;397                TEXT_SetTextColor(hItem, GUI_BLACK);
;;;398                
;;;399                info_set = set_53;
;;;400                break;
;;;401            }
;;;402            case set_53:
;;;403            {
;;;404                hItem = WM_GetDialogItem(hWinsysinfo, ID_TEXT_104);
;;;405                TEXT_SetBkColor(hItem,GUI_INVALID_COLOR);
;;;406                TEXT_SetTextColor(hItem, 0x00BFFFFF);
;;;407                
;;;408                hItem = WM_GetDialogItem(hWinsysinfo, ID_TEXT_105);
;;;409                TEXT_SetBkColor(hItem,0x00BFFFFF);
;;;410                TEXT_SetTextColor(hItem, GUI_BLACK);
;;;411                
;;;412                info_set = set_54;
;;;413                break;
;;;414            }
;;;415            case set_54:
;;;416            {
;;;417                hItem = WM_GetDialogItem(hWinsysinfo, ID_TEXT_105);
;;;418                TEXT_SetBkColor(hItem,GUI_INVALID_COLOR);
;;;419                TEXT_SetTextColor(hItem, 0x00BFFFFF);
;;;420                
;;;421                hItem = WM_GetDialogItem(hWinsysinfo, ID_TEXT_106);
;;;422                TEXT_SetBkColor(hItem,0x00BFFFFF);
;;;423                TEXT_SetTextColor(hItem, GUI_BLACK);
;;;424                
;;;425                info_set = set_55;
;;;426                break;
;;;427            }
;;;428            case set_55:
;;;429            {
;;;430                hItem = WM_GetDialogItem(hWinsysinfo, ID_TEXT_106);
;;;431                TEXT_SetBkColor(hItem,GUI_INVALID_COLOR);
;;;432                TEXT_SetTextColor(hItem, 0x00BFFFFF);
;;;433                
;;;434                hItem = WM_GetDialogItem(hWinsysinfo, ID_TEXT_99);
;;;435                TEXT_SetBkColor(hItem,0x00BFFFFF);
;;;436                TEXT_SetTextColor(hItem, GUI_BLACK);
;;;437                
;;;438                info_set = set_48;
;;;439                break;
;;;440            }
;;;441            case set_62:
;;;442            {
;;;443                hItem = WM_GetDialogItem(hWinsysinfo, ID_TEXT_113);
000024  f640161d          MOV      r6,#0x91d
000028  2910              CMP      r1,#0x10              ;335
00002a  d275              BCS      |L6.280|
00002c  e8dff001          TBB      [pc,r1]               ;335
000030  08233e59          DCB      0x08,0x23,0x3e,0x59
000034  7590acc9          DCB      0x75,0x90,0xac,0xc9
000038  fefdfcfb          DCB      0xfe,0xfd,0xfc,0xfb
00003c  faf9e5f8          DCB      0xfa,0xf9,0xe5,0xf8
000040  4621              MOV      r1,r4                 ;339
000042  4ee7              LDR      r6,|L6.992|
000044  f7fffffe          BL       WM_GetDialogItem
000048  4604              MOV      r4,r0                 ;339
00004a  f06f4170          MVN      r1,#0xf0000000        ;340
00004e  f7fffffe          BL       TEXT_SetBkColor
000052  4629              MOV      r1,r5                 ;341
000054  4620              MOV      r0,r4                 ;341
000056  f7fffffe          BL       TEXT_SetTextColor
00005a  4639              MOV      r1,r7                 ;343
00005c  69b0              LDR      r0,[r6,#0x18]         ;343  ; hWinsysinfo
00005e  f7fffffe          BL       WM_GetDialogItem
000062  4604              MOV      r4,r0                 ;343
000064  4629              MOV      r1,r5                 ;344
000066  f7fffffe          BL       TEXT_SetBkColor
00006a  2100              MOVS     r1,#0                 ;345
00006c  4620              MOV      r0,r4                 ;345
00006e  f7fffffe          BL       TEXT_SetTextColor
000072  2030              MOVS     r0,#0x30              ;347
000074  e192              B        |L6.924|
000076  4639              MOV      r1,r7                 ;352
000078  4ed9              LDR      r6,|L6.992|
00007a  f7fffffe          BL       WM_GetDialogItem
00007e  4604              MOV      r4,r0                 ;352
000080  f06f4170          MVN      r1,#0xf0000000        ;353
000084  f7fffffe          BL       TEXT_SetBkColor
000088  4629              MOV      r1,r5                 ;354
00008a  4620              MOV      r0,r4                 ;354
00008c  f7fffffe          BL       TEXT_SetTextColor
000090  4641              MOV      r1,r8                 ;356
000092  69b0              LDR      r0,[r6,#0x18]         ;356  ; hWinsysinfo
000094  f7fffffe          BL       WM_GetDialogItem
000098  4604              MOV      r4,r0                 ;356
00009a  4629              MOV      r1,r5                 ;357
00009c  f7fffffe          BL       TEXT_SetBkColor
0000a0  2100              MOVS     r1,#0                 ;358
0000a2  4620              MOV      r0,r4                 ;358
0000a4  f7fffffe          BL       TEXT_SetTextColor
0000a8  2031              MOVS     r0,#0x31              ;360
0000aa  e177              B        |L6.924|
0000ac  4641              MOV      r1,r8                 ;365
0000ae  4ecc              LDR      r6,|L6.992|
0000b0  f7fffffe          BL       WM_GetDialogItem
0000b4  4604              MOV      r4,r0                 ;365
0000b6  f06f4170          MVN      r1,#0xf0000000        ;366
0000ba  f7fffffe          BL       TEXT_SetBkColor
0000be  4629              MOV      r1,r5                 ;367
0000c0  4620              MOV      r0,r4                 ;367
0000c2  f7fffffe          BL       TEXT_SetTextColor
0000c6  4649              MOV      r1,r9                 ;369
0000c8  69b0              LDR      r0,[r6,#0x18]         ;369  ; hWinsysinfo
0000ca  f7fffffe          BL       WM_GetDialogItem
0000ce  4604              MOV      r4,r0                 ;369
0000d0  4629              MOV      r1,r5                 ;370
0000d2  f7fffffe          BL       TEXT_SetBkColor
0000d6  2100              MOVS     r1,#0                 ;371
0000d8  4620              MOV      r0,r4                 ;371
0000da  f7fffffe          BL       TEXT_SetTextColor
0000de  2032              MOVS     r0,#0x32              ;373
0000e0  e15c              B        |L6.924|
0000e2  4649              MOV      r1,r9                 ;378
0000e4  4ebe              LDR      r6,|L6.992|
0000e6  f7fffffe          BL       WM_GetDialogItem
0000ea  4604              MOV      r4,r0                 ;378
0000ec  f06f4170          MVN      r1,#0xf0000000        ;379
0000f0  f7fffffe          BL       TEXT_SetBkColor
0000f4  4629              MOV      r1,r5                 ;380
0000f6  4620              MOV      r0,r4                 ;380
0000f8  f7fffffe          BL       TEXT_SetTextColor
0000fc  4651              MOV      r1,r10                ;382
0000fe  69b0              LDR      r0,[r6,#0x18]         ;382  ; hWinsysinfo
000100  f7fffffe          BL       WM_GetDialogItem
000104  4604              MOV      r4,r0                 ;382
000106  4629              MOV      r1,r5                 ;383
000108  f7fffffe          BL       TEXT_SetBkColor
00010c  2100              MOVS     r1,#0                 ;384
00010e  4620              MOV      r0,r4                 ;384
000110  f7fffffe          BL       TEXT_SetTextColor
000114  2033              MOVS     r0,#0x33              ;386
000116  e141              B        |L6.924|
                  |L6.280|
000118  e141              B        |L6.926|
00011a  4651              MOV      r1,r10                ;391
00011c  4eb0              LDR      r6,|L6.992|
00011e  f7fffffe          BL       WM_GetDialogItem
000122  4604              MOV      r4,r0                 ;391
000124  f06f4170          MVN      r1,#0xf0000000        ;392
000128  f7fffffe          BL       TEXT_SetBkColor
00012c  4629              MOV      r1,r5                 ;393
00012e  4620              MOV      r0,r4                 ;393
000130  f7fffffe          BL       TEXT_SetTextColor
000134  4659              MOV      r1,r11                ;395
000136  69b0              LDR      r0,[r6,#0x18]         ;395  ; hWinsysinfo
000138  f7fffffe          BL       WM_GetDialogItem
00013c  4604              MOV      r4,r0                 ;395
00013e  4629              MOV      r1,r5                 ;396
000140  f7fffffe          BL       TEXT_SetBkColor
000144  2100              MOVS     r1,#0                 ;397
000146  4620              MOV      r0,r4                 ;397
000148  f7fffffe          BL       TEXT_SetTextColor
00014c  2034              MOVS     r0,#0x34              ;399
00014e  e125              B        |L6.924|
000150  4659              MOV      r1,r11                ;404
000152  4ea3              LDR      r6,|L6.992|
000154  f7fffffe          BL       WM_GetDialogItem
000158  4604              MOV      r4,r0                 ;404
00015a  f06f4170          MVN      r1,#0xf0000000        ;405
00015e  f7fffffe          BL       TEXT_SetBkColor
000162  4629              MOV      r1,r5                 ;406
000164  4620              MOV      r0,r4                 ;406
000166  f7fffffe          BL       TEXT_SetTextColor
00016a  f6401115          MOV      r1,#0x915             ;408
00016e  69b0              LDR      r0,[r6,#0x18]         ;408  ; hWinsysinfo
000170  f7fffffe          BL       WM_GetDialogItem
000174  4604              MOV      r4,r0                 ;408
000176  4629              MOV      r1,r5                 ;409
000178  f7fffffe          BL       TEXT_SetBkColor
00017c  2100              MOVS     r1,#0                 ;410
00017e  4620              MOV      r0,r4                 ;410
000180  f7fffffe          BL       TEXT_SetTextColor
000184  2035              MOVS     r0,#0x35              ;412
000186  e109              B        |L6.924|
000188  f6401115          MOV      r1,#0x915             ;417
00018c  4e94              LDR      r6,|L6.992|
00018e  f7fffffe          BL       WM_GetDialogItem
000192  4604              MOV      r4,r0                 ;417
000194  f06f4170          MVN      r1,#0xf0000000        ;418
000198  f7fffffe          BL       TEXT_SetBkColor
00019c  4629              MOV      r1,r5                 ;419
00019e  4620              MOV      r0,r4                 ;419
0001a0  f7fffffe          BL       TEXT_SetTextColor
0001a4  f6401116          MOV      r1,#0x916             ;421
0001a8  69b0              LDR      r0,[r6,#0x18]         ;421  ; hWinsysinfo
0001aa  f7fffffe          BL       WM_GetDialogItem
0001ae  4604              MOV      r4,r0                 ;421
0001b0  4629              MOV      r1,r5                 ;422
0001b2  f7fffffe          BL       TEXT_SetBkColor
0001b6  2100              MOVS     r1,#0                 ;423
0001b8  4620              MOV      r0,r4                 ;423
0001ba  f7fffffe          BL       TEXT_SetTextColor
0001be  2036              MOVS     r0,#0x36              ;425
0001c0  e0ec              B        |L6.924|
0001c2  f6401116          MOV      r1,#0x916             ;430
0001c6  4e86              LDR      r6,|L6.992|
0001c8  f7fffffe          BL       WM_GetDialogItem
0001cc  4607              MOV      r7,r0                 ;430
0001ce  f06f4170          MVN      r1,#0xf0000000        ;431
0001d2  f7fffffe          BL       TEXT_SetBkColor
0001d6  4629              MOV      r1,r5                 ;432
0001d8  4638              MOV      r0,r7                 ;432
0001da  f7fffffe          BL       TEXT_SetTextColor
0001de  4621              MOV      r1,r4                 ;434
0001e0  69b0              LDR      r0,[r6,#0x18]         ;434  ; hWinsysinfo
0001e2  f7fffffe          BL       WM_GetDialogItem
0001e6  4604              MOV      r4,r0                 ;434
0001e8  4629              MOV      r1,r5                 ;435
0001ea  f7fffffe          BL       TEXT_SetBkColor
0001ee  2100              MOVS     r1,#0                 ;436
0001f0  4620              MOV      r0,r4                 ;436
0001f2  f7fffffe          BL       TEXT_SetTextColor
0001f6  202f              MOVS     r0,#0x2f              ;438
0001f8  e0d0              B        |L6.924|
0001fa  4631              MOV      r1,r6
0001fc  4e78              LDR      r6,|L6.992|
0001fe  f7fffffe          BL       WM_GetDialogItem
000202  4604              MOV      r4,r0
;;;444                TEXT_SetBkColor(hItem,GUI_INVALID_COLOR);
000204  f06f4170          MVN      r1,#0xf0000000
000208  f7fffffe          BL       TEXT_SetBkColor
;;;445                TEXT_SetTextColor(hItem, 0x00BFFFFF);
00020c  4629              MOV      r1,r5
00020e  4620              MOV      r0,r4
000210  f7fffffe          BL       TEXT_SetTextColor
;;;446                
;;;447                hItem = WM_GetDialogItem(hWinsysinfo, ID_TEXT_114);
000214  f640111e          MOV      r1,#0x91e
000218  69b0              LDR      r0,[r6,#0x18]  ; hWinsysinfo
00021a  f7fffffe          BL       WM_GetDialogItem
00021e  e006              B        |L6.558|
000220  e00f              B        |L6.578|
000222  e0be              B        |L6.930|
000224  e09e              B        |L6.868|
000226  e080              B        |L6.810|
000228  e062              B        |L6.752|
00022a  e044              B        |L6.694|
00022c  e026              B        |L6.636|
                  |L6.558|
00022e  4604              MOV      r4,r0
;;;448                TEXT_SetBkColor(hItem,0x00BFFFFF);
000230  4629              MOV      r1,r5
000232  f7fffffe          BL       TEXT_SetBkColor
;;;449                TEXT_SetTextColor(hItem, GUI_BLACK);
000236  2100              MOVS     r1,#0
000238  4620              MOV      r0,r4
00023a  f7fffffe          BL       TEXT_SetTextColor
;;;450                
;;;451                info_set = set_63;
00023e  203e              MOVS     r0,#0x3e
;;;452                break;
000240  e0ac              B        |L6.924|
                  |L6.578|
;;;453            }
;;;454            case set_63:
;;;455            {
;;;456                hItem = WM_GetDialogItem(hWinsysinfo, ID_TEXT_114);
000242  f640111e          MOV      r1,#0x91e
000246  4e66              LDR      r6,|L6.992|
000248  f7fffffe          BL       WM_GetDialogItem
00024c  4604              MOV      r4,r0
;;;457                TEXT_SetBkColor(hItem,GUI_INVALID_COLOR);
00024e  f06f4170          MVN      r1,#0xf0000000
000252  f7fffffe          BL       TEXT_SetBkColor
;;;458                TEXT_SetTextColor(hItem, 0x00BFFFFF);
000256  4629              MOV      r1,r5
000258  4620              MOV      r0,r4
00025a  f7fffffe          BL       TEXT_SetTextColor
;;;459                
;;;460                hItem = WM_GetDialogItem(hWinsysinfo, ID_TEXT_107);
00025e  f6401117          MOV      r1,#0x917
000262  69b0              LDR      r0,[r6,#0x18]  ; hWinsysinfo
000264  f7fffffe          BL       WM_GetDialogItem
000268  4604              MOV      r4,r0
;;;461                TEXT_SetBkColor(hItem,0x00BFFFFF);
00026a  4629              MOV      r1,r5
00026c  f7fffffe          BL       TEXT_SetBkColor
;;;462                TEXT_SetTextColor(hItem, GUI_BLACK);
000270  2100              MOVS     r1,#0
000272  4620              MOV      r0,r4
000274  f7fffffe          BL       TEXT_SetTextColor
;;;463                
;;;464                info_set = set_56;
000278  2037              MOVS     r0,#0x37
;;;465                break;
00027a  e08f              B        |L6.924|
                  |L6.636|
;;;466            }
;;;467            case set_56:
;;;468            {
;;;469                hItem = WM_GetDialogItem(hWinsysinfo, ID_TEXT_107);
00027c  f6401117          MOV      r1,#0x917
000280  4e57              LDR      r6,|L6.992|
000282  f7fffffe          BL       WM_GetDialogItem
000286  4604              MOV      r4,r0
;;;470                TEXT_SetBkColor(hItem,GUI_INVALID_COLOR);
000288  f06f4170          MVN      r1,#0xf0000000
00028c  f7fffffe          BL       TEXT_SetBkColor
;;;471                TEXT_SetTextColor(hItem, 0x00BFFFFF);
000290  4629              MOV      r1,r5
000292  4620              MOV      r0,r4
000294  f7fffffe          BL       TEXT_SetTextColor
;;;472                
;;;473                hItem = WM_GetDialogItem(hWinsysinfo, ID_TEXT_108);
000298  f6401118          MOV      r1,#0x918
00029c  69b0              LDR      r0,[r6,#0x18]  ; hWinsysinfo
00029e  f7fffffe          BL       WM_GetDialogItem
0002a2  4604              MOV      r4,r0
;;;474                TEXT_SetBkColor(hItem,0x00BFFFFF);
0002a4  4629              MOV      r1,r5
0002a6  f7fffffe          BL       TEXT_SetBkColor
;;;475                TEXT_SetTextColor(hItem, GUI_BLACK);
0002aa  2100              MOVS     r1,#0
0002ac  4620              MOV      r0,r4
0002ae  f7fffffe          BL       TEXT_SetTextColor
;;;476                
;;;477                info_set = set_57;
0002b2  2038              MOVS     r0,#0x38
;;;478                break;
0002b4  e072              B        |L6.924|
                  |L6.694|
;;;479            }
;;;480            case set_57:
;;;481            {
;;;482                hItem = WM_GetDialogItem(hWinsysinfo, ID_TEXT_108);
0002b6  f6401118          MOV      r1,#0x918
0002ba  4e49              LDR      r6,|L6.992|
0002bc  f7fffffe          BL       WM_GetDialogItem
0002c0  4604              MOV      r4,r0
;;;483                TEXT_SetBkColor(hItem,GUI_INVALID_COLOR);
0002c2  f06f4170          MVN      r1,#0xf0000000
0002c6  f7fffffe          BL       TEXT_SetBkColor
;;;484                TEXT_SetTextColor(hItem, 0x00BFFFFF);
0002ca  4629              MOV      r1,r5
0002cc  4620              MOV      r0,r4
0002ce  f7fffffe          BL       TEXT_SetTextColor
;;;485                
;;;486                hItem = WM_GetDialogItem(hWinsysinfo, ID_TEXT_109);
0002d2  f6401119          MOV      r1,#0x919
0002d6  69b0              LDR      r0,[r6,#0x18]  ; hWinsysinfo
0002d8  f7fffffe          BL       WM_GetDialogItem
0002dc  4604              MOV      r4,r0
;;;487                TEXT_SetBkColor(hItem,0x00BFFFFF);
0002de  4629              MOV      r1,r5
0002e0  f7fffffe          BL       TEXT_SetBkColor
;;;488                TEXT_SetTextColor(hItem, GUI_BLACK);
0002e4  2100              MOVS     r1,#0
0002e6  4620              MOV      r0,r4
0002e8  f7fffffe          BL       TEXT_SetTextColor
;;;489                
;;;490                info_set = set_58;
0002ec  2039              MOVS     r0,#0x39
;;;491                break;
0002ee  e055              B        |L6.924|
                  |L6.752|
;;;492            }
;;;493            case set_58:
;;;494            {
;;;495                hItem = WM_GetDialogItem(hWinsysinfo, ID_TEXT_109);
0002f0  f6401119          MOV      r1,#0x919
0002f4  4e3a              LDR      r6,|L6.992|
0002f6  f7fffffe          BL       WM_GetDialogItem
0002fa  4604              MOV      r4,r0
;;;496                TEXT_SetBkColor(hItem,GUI_INVALID_COLOR);
0002fc  f06f4170          MVN      r1,#0xf0000000
000300  f7fffffe          BL       TEXT_SetBkColor
;;;497                TEXT_SetTextColor(hItem, 0x00BFFFFF);
000304  4629              MOV      r1,r5
000306  4620              MOV      r0,r4
000308  f7fffffe          BL       TEXT_SetTextColor
;;;498                
;;;499                hItem = WM_GetDialogItem(hWinsysinfo, ID_TEXT_110);
00030c  f640111a          MOV      r1,#0x91a
000310  69b0              LDR      r0,[r6,#0x18]  ; hWinsysinfo
000312  f7fffffe          BL       WM_GetDialogItem
000316  4604              MOV      r4,r0
;;;500                TEXT_SetBkColor(hItem,0x00BFFFFF);
000318  4629              MOV      r1,r5
00031a  f7fffffe          BL       TEXT_SetBkColor
;;;501                TEXT_SetTextColor(hItem, GUI_BLACK);
00031e  2100              MOVS     r1,#0
000320  4620              MOV      r0,r4
000322  f7fffffe          BL       TEXT_SetTextColor
;;;502                
;;;503                info_set = set_59;
000326  203a              MOVS     r0,#0x3a
;;;504                break;
000328  e038              B        |L6.924|
                  |L6.810|
;;;505            }
;;;506            case set_59:
;;;507            {
;;;508                hItem = WM_GetDialogItem(hWinsysinfo, ID_TEXT_110);
00032a  f640111a          MOV      r1,#0x91a
00032e  4e2c              LDR      r6,|L6.992|
000330  f7fffffe          BL       WM_GetDialogItem
000334  4604              MOV      r4,r0
;;;509                TEXT_SetBkColor(hItem,GUI_INVALID_COLOR);
000336  f06f4170          MVN      r1,#0xf0000000
00033a  f7fffffe          BL       TEXT_SetBkColor
;;;510                TEXT_SetTextColor(hItem, 0x00BFFFFF);
00033e  4629              MOV      r1,r5
000340  4620              MOV      r0,r4
000342  f7fffffe          BL       TEXT_SetTextColor
;;;511                
;;;512                hItem = WM_GetDialogItem(hWinsysinfo, ID_TEXT_111);
000346  f640111b          MOV      r1,#0x91b
00034a  69b0              LDR      r0,[r6,#0x18]  ; hWinsysinfo
00034c  f7fffffe          BL       WM_GetDialogItem
000350  4604              MOV      r4,r0
;;;513                TEXT_SetBkColor(hItem,0x00BFFFFF);
000352  4629              MOV      r1,r5
000354  f7fffffe          BL       TEXT_SetBkColor
;;;514                TEXT_SetTextColor(hItem, GUI_BLACK);
000358  2100              MOVS     r1,#0
00035a  4620              MOV      r0,r4
00035c  f7fffffe          BL       TEXT_SetTextColor
;;;515                
;;;516                info_set = set_60;
000360  203b              MOVS     r0,#0x3b
;;;517                break;
000362  e01b              B        |L6.924|
                  |L6.868|
;;;518            }
;;;519            case set_60:
;;;520            {
;;;521                hItem = WM_GetDialogItem(hWinsysinfo, ID_TEXT_111);
000364  f640111b          MOV      r1,#0x91b
000368  4e1d              LDR      r6,|L6.992|
00036a  f7fffffe          BL       WM_GetDialogItem
00036e  4604              MOV      r4,r0
;;;522                TEXT_SetBkColor(hItem,GUI_INVALID_COLOR);
000370  f06f4170          MVN      r1,#0xf0000000
000374  f7fffffe          BL       TEXT_SetBkColor
;;;523                TEXT_SetTextColor(hItem, 0x00BFFFFF);
000378  4629              MOV      r1,r5
00037a  4620              MOV      r0,r4
00037c  f7fffffe          BL       TEXT_SetTextColor
;;;524                
;;;525                hItem = WM_GetDialogItem(hWinsysinfo, ID_TEXT_112);
000380  f640111c          MOV      r1,#0x91c
000384  69b0              LDR      r0,[r6,#0x18]  ; hWinsysinfo
000386  f7fffffe          BL       WM_GetDialogItem
00038a  4604              MOV      r4,r0
;;;526                TEXT_SetBkColor(hItem,0x00BFFFFF);
00038c  4629              MOV      r1,r5
00038e  f7fffffe          BL       TEXT_SetBkColor
;;;527                TEXT_SetTextColor(hItem, GUI_BLACK);
000392  2100              MOVS     r1,#0
000394  4620              MOV      r0,r4
000396  f7fffffe          BL       TEXT_SetTextColor
;;;528                
;;;529                info_set = set_61;
00039a  203c              MOVS     r0,#0x3c
                  |L6.924|
00039c  7030              STRB     r0,[r6,#0]
                  |L6.926|
;;;530                break;
;;;531            }
;;;532            case set_61:
;;;533            {
;;;534                hItem = WM_GetDialogItem(hWinsysinfo, ID_TEXT_112);
;;;535                TEXT_SetBkColor(hItem,GUI_INVALID_COLOR);
;;;536                TEXT_SetTextColor(hItem, 0x00BFFFFF);
;;;537                
;;;538                hItem = WM_GetDialogItem(hWinsysinfo, ID_TEXT_113);
;;;539                TEXT_SetBkColor(hItem,0x00BFFFFF);
;;;540                TEXT_SetTextColor(hItem, GUI_BLACK);
;;;541                
;;;542                info_set = set_62;
;;;543                break;
;;;544            }
;;;545        }
;;;546        
;;;547    }
00039e  e8bd9ff0          POP      {r4-r12,pc}
                  |L6.930|
0003a2  f640111c          MOV      r1,#0x91c             ;534
0003a6  4c0e              LDR      r4,|L6.992|
0003a8  f7fffffe          BL       WM_GetDialogItem
0003ac  4680              MOV      r8,r0                 ;534
0003ae  f06f4170          MVN      r1,#0xf0000000        ;535
0003b2  f7fffffe          BL       TEXT_SetBkColor
0003b6  462f              MOV      r7,r5                 ;536
0003b8  4629              MOV      r1,r5                 ;536
0003ba  4640              MOV      r0,r8                 ;536
0003bc  f7fffffe          BL       TEXT_SetTextColor
0003c0  4631              MOV      r1,r6                 ;538
0003c2  69a0              LDR      r0,[r4,#0x18]         ;538  ; hWinsysinfo
0003c4  f7fffffe          BL       WM_GetDialogItem
0003c8  4605              MOV      r5,r0                 ;538
0003ca  4639              MOV      r1,r7                 ;539
0003cc  f7fffffe          BL       TEXT_SetBkColor
0003d0  2100              MOVS     r1,#0                 ;540
0003d2  4628              MOV      r0,r5                 ;540
0003d4  f7fffffe          BL       TEXT_SetTextColor
0003d8  203d              MOVS     r0,#0x3d              ;542
0003da  7020              STRB     r0,[r4,#0]            ;542
0003dc  e7df              B        |L6.926|
;;;548    
                          ENDP

0003de  0000              DCW      0x0000
                  |L6.992|
                          DCD      ||.data||
                  |L6.996|
                          DCD      0x00bfffff

                          AREA ||i.SYS_INFO_UP||, CODE, READONLY, ALIGN=2

                  SYS_INFO_UP PROC
;;;769    
;;;770    void SYS_INFO_UP(void)
000000  e92d5ff0          PUSH     {r4-r12,lr}
;;;771    {
;;;772        WM_HWIN hItem;
;;;773        switch(info_set)
000004  4d46              LDR      r5,|L7.288|
000006  7829              LDRB     r1,[r5,#0]  ; info_set
000008  4628              MOV      r0,r5
00000a  392f              SUBS     r1,r1,#0x2f
;;;774        {
;;;775            case set_48:
;;;776            {
;;;777                hItem = WM_GetDialogItem(hWinsysinfo, ID_TEXT_99);
;;;778                TEXT_SetBkColor(hItem,GUI_INVALID_COLOR);
;;;779                TEXT_SetTextColor(hItem, 0x00BFFFFF);
00000c  4c45              LDR      r4,|L7.292|
;;;780                
;;;781                hItem = WM_GetDialogItem(hWinsysinfo, ID_TEXT_113);
;;;782                TEXT_SetBkColor(hItem,0x00BFFFFF);
;;;783                TEXT_SetTextColor(hItem, GUI_BLACK);
;;;784                
;;;785                info_set = set_62;
00000e  263d              MOVS     r6,#0x3d
;;;786                break;
;;;787            }
;;;788            case set_49:
;;;789            {
;;;790                hItem = WM_GetDialogItem(hWinsysinfo, ID_TEXT_100);
;;;791                TEXT_SetBkColor(hItem,GUI_INVALID_COLOR);
;;;792                TEXT_SetTextColor(hItem, 0x00BFFFFF);
;;;793                
;;;794                hItem = WM_GetDialogItem(hWinsysinfo, ID_TEXT_113);
;;;795                TEXT_SetBkColor(hItem,0x00BFFFFF);
;;;796                TEXT_SetTextColor(hItem, GUI_BLACK);
;;;797                
;;;798                info_set = set_62;
;;;799                break;
;;;800            }
;;;801            case set_50:
;;;802            {
;;;803                hItem = WM_GetDialogItem(hWinsysinfo, ID_TEXT_101);
;;;804                TEXT_SetBkColor(hItem,GUI_INVALID_COLOR);
;;;805                TEXT_SetTextColor(hItem, 0x00BFFFFF);
;;;806                
;;;807                hItem = WM_GetDialogItem(hWinsysinfo, ID_TEXT_113);
;;;808                TEXT_SetBkColor(hItem,0x00BFFFFF);
;;;809                TEXT_SetTextColor(hItem, GUI_BLACK);
;;;810                
;;;811                info_set = set_62;
;;;812                break;
;;;813            }
;;;814            case set_51:
;;;815            {
;;;816                hItem = WM_GetDialogItem(hWinsysinfo, ID_TEXT_102);
;;;817                TEXT_SetBkColor(hItem,GUI_INVALID_COLOR);
;;;818                TEXT_SetTextColor(hItem, 0x00BFFFFF);
;;;819                
;;;820                hItem = WM_GetDialogItem(hWinsysinfo, ID_TEXT_113);
;;;821                TEXT_SetBkColor(hItem,0x00BFFFFF);
;;;822                TEXT_SetTextColor(hItem, GUI_BLACK);
;;;823                
;;;824                info_set = set_62;
;;;825                break;
;;;826            }
;;;827            case set_52:
;;;828            {
;;;829                hItem = WM_GetDialogItem(hWinsysinfo, ID_TEXT_103);
;;;830                TEXT_SetBkColor(hItem,GUI_INVALID_COLOR);
;;;831                TEXT_SetTextColor(hItem, 0x00BFFFFF);
;;;832                
;;;833                hItem = WM_GetDialogItem(hWinsysinfo, ID_TEXT_113);
;;;834                TEXT_SetBkColor(hItem,0x00BFFFFF);
;;;835                TEXT_SetTextColor(hItem, GUI_BLACK);
;;;836                
;;;837                info_set = set_62;
;;;838                break;
;;;839            }
;;;840            case set_53:
;;;841            {
;;;842                hItem = WM_GetDialogItem(hWinsysinfo, ID_TEXT_104);
;;;843                TEXT_SetBkColor(hItem,GUI_INVALID_COLOR);
;;;844                TEXT_SetTextColor(hItem, 0x00BFFFFF);
;;;845                
;;;846                hItem = WM_GetDialogItem(hWinsysinfo, ID_TEXT_113);
;;;847                TEXT_SetBkColor(hItem,0x00BFFFFF);
;;;848                TEXT_SetTextColor(hItem, GUI_BLACK);
;;;849                
;;;850                info_set = set_62;
;;;851                break;
;;;852            }
;;;853            case set_54:
;;;854            {
;;;855                hItem = WM_GetDialogItem(hWinsysinfo, ID_TEXT_105);
;;;856                TEXT_SetBkColor(hItem,GUI_INVALID_COLOR);
;;;857                TEXT_SetTextColor(hItem, 0x00BFFFFF);
;;;858                
;;;859                hItem = WM_GetDialogItem(hWinsysinfo, ID_TEXT_113);
;;;860                TEXT_SetBkColor(hItem,0x00BFFFFF);
;;;861                TEXT_SetTextColor(hItem, GUI_BLACK);
;;;862                
;;;863                info_set = set_62;
;;;864                break;
;;;865            }
;;;866            case set_55:
;;;867            {
;;;868                hItem = WM_GetDialogItem(hWinsysinfo, ID_TEXT_106);
;;;869                TEXT_SetBkColor(hItem,GUI_INVALID_COLOR);
;;;870                TEXT_SetTextColor(hItem, 0x00BFFFFF);
;;;871                
;;;872                hItem = WM_GetDialogItem(hWinsysinfo, ID_TEXT_113);
;;;873                TEXT_SetBkColor(hItem,0x00BFFFFF);
;;;874                TEXT_SetTextColor(hItem, GUI_BLACK);
;;;875                
;;;876                info_set = set_62;
;;;877                break;
;;;878            }
;;;879            case set_56:
;;;880            {
;;;881                hItem = WM_GetDialogItem(hWinsysinfo, ID_TEXT_107);
;;;882                TEXT_SetBkColor(hItem,GUI_INVALID_COLOR);
;;;883                TEXT_SetTextColor(hItem, 0x00BFFFFF);
;;;884                
;;;885                hItem = WM_GetDialogItem(hWinsysinfo, ID_TEXT_99);
;;;886                TEXT_SetBkColor(hItem,0x00BFFFFF);
;;;887                TEXT_SetTextColor(hItem, GUI_BLACK);
;;;888                
;;;889                info_set = set_48;
000010  272f              MOVS     r7,#0x2f
000012  6980              LDR      r0,[r0,#0x18]         ;777
000014  f6400999          MOV      r9,#0x899             ;777
000018  f06f4b70          MVN      r11,#0xf0000000       ;778
00001c  f6401a1d          MOV      r10,#0x91d            ;781
000020  2910              CMP      r1,#0x10              ;773
000022  d237              BCS      |L7.148|
000024  e8dff001          TBB      [pc,r1]               ;773
000028  080a0d10          DCB      0x08,0x0a,0x0d,0x10
00002c  1316191c          DCB      0x13,0x16,0x19,0x1c
000030  3855585b          DCB      0x38,0x55,0x58,0x5b
000034  5e613b52          DCB      0x5e,0x61,0x3b,0x52
000038  4649              MOV      r1,r9                 ;777
00003a  e013              B        |L7.100|
00003c  f640019a          MOV      r1,#0x89a             ;790
000040  e010              B        |L7.100|
000042  f640019b          MOV      r1,#0x89b             ;803
000046  e00d              B        |L7.100|
000048  f640019c          MOV      r1,#0x89c             ;816
00004c  e00a              B        |L7.100|
00004e  f640019d          MOV      r1,#0x89d             ;829
000052  e007              B        |L7.100|
000054  f640019e          MOV      r1,#0x89e             ;842
000058  e004              B        |L7.100|
00005a  f6401115          MOV      r1,#0x915             ;855
00005e  e001              B        |L7.100|
000060  f6401116          MOV      r1,#0x916             ;868
                  |L7.100|
000064  f7fffffe          BL       WM_GetDialogItem
000068  4680              MOV      r8,r0                 ;868
00006a  4659              MOV      r1,r11                ;869
00006c  f7fffffe          BL       TEXT_SetBkColor
000070  4627              MOV      r7,r4                 ;870
000072  4621              MOV      r1,r4                 ;870
000074  4640              MOV      r0,r8                 ;870
000076  f7fffffe          BL       TEXT_SetTextColor
00007a  4651              MOV      r1,r10                ;872
00007c  69a8              LDR      r0,[r5,#0x18]         ;872  ; hWinsysinfo
00007e  f7fffffe          BL       WM_GetDialogItem
000082  4604              MOV      r4,r0                 ;872
000084  4639              MOV      r1,r7                 ;873
000086  f7fffffe          BL       TEXT_SetBkColor
00008a  2100              MOVS     r1,#0                 ;874
00008c  4620              MOV      r0,r4                 ;874
00008e  f7fffffe          BL       TEXT_SetTextColor
000092  702e              STRB     r6,[r5,#0]            ;876
                  |L7.148|
;;;890                break;
;;;891            }
;;;892            case set_62:
;;;893            {
;;;894                hItem = WM_GetDialogItem(hWinsysinfo, ID_TEXT_113);
;;;895                TEXT_SetBkColor(hItem,GUI_INVALID_COLOR);
;;;896                TEXT_SetTextColor(hItem, 0x00BFFFFF);
;;;897                
;;;898                hItem = WM_GetDialogItem(hWinsysinfo, ID_TEXT_99);
;;;899                TEXT_SetBkColor(hItem,0x00BFFFFF);
;;;900                TEXT_SetTextColor(hItem, GUI_BLACK);
;;;901                
;;;902                info_set = set_48;
;;;903                break;
;;;904            }
;;;905            case set_63:
;;;906            {
;;;907                hItem = WM_GetDialogItem(hWinsysinfo, ID_TEXT_114);
;;;908                TEXT_SetBkColor(hItem,GUI_INVALID_COLOR);
;;;909                TEXT_SetTextColor(hItem, 0x00BFFFFF);
;;;910                
;;;911                hItem = WM_GetDialogItem(hWinsysinfo, ID_TEXT_99);
;;;912                TEXT_SetBkColor(hItem,0x00BFFFFF);
;;;913                TEXT_SetTextColor(hItem, GUI_BLACK);
;;;914                
;;;915                info_set = set_48;
;;;916                break;
;;;917            }
;;;918            case set_57:
;;;919            {
;;;920                hItem = WM_GetDialogItem(hWinsysinfo, ID_TEXT_108);
;;;921                TEXT_SetBkColor(hItem,GUI_INVALID_COLOR);
;;;922                TEXT_SetTextColor(hItem, 0x00BFFFFF);
;;;923                
;;;924                hItem = WM_GetDialogItem(hWinsysinfo, ID_TEXT_99);
;;;925                TEXT_SetBkColor(hItem,0x00BFFFFF);
;;;926                TEXT_SetTextColor(hItem, GUI_BLACK);
;;;927                
;;;928                info_set = set_48;
;;;929                break;
;;;930            }
;;;931            case set_58:
;;;932            {
;;;933                hItem = WM_GetDialogItem(hWinsysinfo, ID_TEXT_109);
;;;934                TEXT_SetBkColor(hItem,GUI_INVALID_COLOR);
;;;935                TEXT_SetTextColor(hItem, 0x00BFFFFF);
;;;936                
;;;937                hItem = WM_GetDialogItem(hWinsysinfo, ID_TEXT_99);
;;;938                TEXT_SetBkColor(hItem,0x00BFFFFF);
;;;939                TEXT_SetTextColor(hItem, GUI_BLACK);
;;;940                
;;;941                info_set = set_48;
;;;942                break;
;;;943            }
;;;944            case set_59:
;;;945            {
;;;946                hItem = WM_GetDialogItem(hWinsysinfo, ID_TEXT_110);
;;;947                TEXT_SetBkColor(hItem,GUI_INVALID_COLOR);
;;;948                TEXT_SetTextColor(hItem, 0x00BFFFFF);
;;;949                
;;;950                hItem = WM_GetDialogItem(hWinsysinfo, ID_TEXT_99);
;;;951                TEXT_SetBkColor(hItem,0x00BFFFFF);
;;;952                TEXT_SetTextColor(hItem, GUI_BLACK);
;;;953                
;;;954                info_set = set_48;
;;;955                break;
;;;956            }
;;;957            case set_60:
;;;958            {
;;;959                hItem = WM_GetDialogItem(hWinsysinfo, ID_TEXT_111);
;;;960                TEXT_SetBkColor(hItem,GUI_INVALID_COLOR);
;;;961                TEXT_SetTextColor(hItem, 0x00BFFFFF);
;;;962                
;;;963                hItem = WM_GetDialogItem(hWinsysinfo, ID_TEXT_99);
;;;964                TEXT_SetBkColor(hItem,0x00BFFFFF);
;;;965                TEXT_SetTextColor(hItem, GUI_BLACK);
;;;966                
;;;967                info_set = set_48;
;;;968                break;
;;;969            }
;;;970            case set_61:
;;;971            {
;;;972                hItem = WM_GetDialogItem(hWinsysinfo, ID_TEXT_112);
;;;973                TEXT_SetBkColor(hItem,GUI_INVALID_COLOR);
;;;974                TEXT_SetTextColor(hItem, 0x00BFFFFF);
;;;975                
;;;976                hItem = WM_GetDialogItem(hWinsysinfo, ID_TEXT_99);
;;;977                TEXT_SetBkColor(hItem,0x00BFFFFF);
;;;978                TEXT_SetTextColor(hItem, GUI_BLACK);
;;;979                
;;;980                info_set = set_48;
;;;981                break;
;;;982            }
;;;983        }
;;;984        
;;;985    }
000094  e8bd9ff0          POP      {r4-r12,pc}
000098  f6401117          MOV      r1,#0x917             ;881
00009c  e000              B        |L7.160|
00009e  4651              MOV      r1,r10                ;894
                  |L7.160|
0000a0  f7fffffe          BL       WM_GetDialogItem
0000a4  4680              MOV      r8,r0                 ;881
0000a6  4659              MOV      r1,r11                ;882
0000a8  f7fffffe          BL       TEXT_SetBkColor
0000ac  4626              MOV      r6,r4                 ;883
0000ae  4621              MOV      r1,r4                 ;883
0000b0  4640              MOV      r0,r8                 ;883
0000b2  f7fffffe          BL       TEXT_SetTextColor
0000b6  4649              MOV      r1,r9                 ;885
0000b8  69a8              LDR      r0,[r5,#0x18]         ;885  ; hWinsysinfo
0000ba  f7fffffe          BL       WM_GetDialogItem
0000be  4604              MOV      r4,r0                 ;885
0000c0  4631              MOV      r1,r6                 ;886
0000c2  f7fffffe          BL       TEXT_SetBkColor
0000c6  2100              MOVS     r1,#0                 ;887
0000c8  4620              MOV      r0,r4                 ;887
0000ca  e024              B        |L7.278|
0000cc  f640111e          MOV      r1,#0x91e             ;907
0000d0  e7e6              B        |L7.160|
0000d2  f6401118          MOV      r1,#0x918             ;920
0000d6  e7e3              B        |L7.160|
0000d8  f6401119          MOV      r1,#0x919             ;933
0000dc  e7e0              B        |L7.160|
0000de  f640111a          MOV      r1,#0x91a             ;946
0000e2  e7dd              B        |L7.160|
0000e4  f640111b          MOV      r1,#0x91b             ;959
0000e8  e7da              B        |L7.160|
0000ea  f640111c          MOV      r1,#0x91c             ;972
0000ee  f7fffffe          BL       WM_GetDialogItem
0000f2  4606              MOV      r6,r0                 ;972
0000f4  4659              MOV      r1,r11                ;973
0000f6  f7fffffe          BL       TEXT_SetBkColor
0000fa  4621              MOV      r1,r4                 ;974
0000fc  4630              MOV      r0,r6                 ;974
0000fe  f7fffffe          BL       TEXT_SetTextColor
000102  4649              MOV      r1,r9                 ;976
000104  69a8              LDR      r0,[r5,#0x18]         ;976  ; hWinsysinfo
000106  f7fffffe          BL       WM_GetDialogItem
00010a  4606              MOV      r6,r0                 ;976
00010c  4621              MOV      r1,r4                 ;977
00010e  f7fffffe          BL       TEXT_SetBkColor
000112  2100              MOVS     r1,#0                 ;978
000114  4630              MOV      r0,r6                 ;978
                  |L7.278|
000116  f7fffffe          BL       TEXT_SetTextColor
00011a  702f              STRB     r7,[r5,#0]            ;980
00011c  e7ba              B        |L7.148|
;;;986    
                          ENDP

00011e  0000              DCW      0x0000
                  |L7.288|
                          DCD      ||.data||
                  |L7.292|
                          DCD      0x00bfffff

                          AREA ||i._cbDialog||, CODE, READONLY, ALIGN=2

                          REQUIRE _printf_percent
                          REQUIRE _printf_d
                          REQUIRE _printf_int_dec
                  _cbDialog PROC
;;;119    */
;;;120    static void _cbDialog(WM_MESSAGE * pMsg) {
000000  e92d41f0          PUSH     {r4-r8,lr}
000004  4604              MOV      r4,r0
;;;121        WM_HWIN hItem;
;;;122        static char buf[5];
;;;123    
;;;124    
;;;125        
;;;126      
;;;127      // USER START (Optionally insert additional variables)
;;;128      // USER END
;;;129    
;;;130      switch (pMsg->MsgId) {
000006  6800              LDR      r0,[r0,#0]
;;;131    		
;;;132    	case WM_PAINT:
;;;133            GUI_SetColor(GUI_WHITE);//
;;;134            GUI_FillRect(0,25,480,26);//
;;;135            GUI_SetColor(GUI_ORANGE);
;;;136            GUI_SetFont(&GUI_Fontsymbol);
;;;137            GUI_UC_SetEncodeUTF8();
;;;138            GUI_SetTextMode(GUI_TM_TRANS);//
;;;139            GUI_DispStringAt("Jinko", 5, 1);//SET
;;;140            GUI_SetColor(GUI_WHITE);
;;;141            GUI_SetFont(&GUI_FontHZ20S);
;;;142            GUI_UC_SetEncodeUTF8();
;;;143            GUI_SetTextMode(GUI_TM_TRANS);//
;;;144            GUI_DispStringAt("", 130, 3);//SET
;;;145            GUI_SetColor(GUI_LIGHTBLUE);
;;;146            GUI_SetFont(&GUI_Fontset_font);
;;;147            GUI_DispStringAt("", 30, 50);
;;;148            GUI_DispStringAt("", 30, 75);
;;;149            GUI_DispStringAt("", 30, 100);
;;;150            GUI_DispStringAt("", 30, 125);
;;;151            GUI_DispStringAt("", 30, 150);
;;;152            GUI_SetColor(0x00BFFFFF);
000008  4ffe              LDR      r7,|L8.1028|
00000a  280f              CMP      r0,#0xf               ;130
00000c  d00b              BEQ      |L8.38|
;;;153            GUI_SetFont(&GUI_Font24_1);
;;;154            GUI_DispStringAt("JK5530B", 140, 50);
;;;155            GUI_DispStringAt("Ver:1.5", 140, 75);
;;;156           
;;;157            GUI_DispStringAt("Ver:1.2", 140, 100);
;;;158            GUI_DispStringAt("-", 191, 125);
;;;159            GUI_DispStringAt("-", 227, 125);
;;;160            GUI_DispStringAt("A", 164, 150);
;;;161    	break;
;;;162    	case WM_TIMER:
;;;163    	if(WM_GetTimerId(pMsg->Data.v) == ID_TimerTime7)
;;;164    	{
;;;165            if(pass == 14)
;;;166            {
;;;167                admin = 1;
00000e  4efe              LDR      r6,|L8.1032|
000010  281d              CMP      r0,#0x1d              ;130
000012  d07c              BEQ      |L8.270|
000014  f5a07080          SUB      r0,r0,#0x100          ;130
000018  3813              SUBS     r0,r0,#0x13           ;130
00001a  d076              BEQ      |L8.266|
;;;168            }else{
;;;169                admin = 0;
;;;170            }
;;;171    		WM_RestartTimer(pMsg->Data.v,500);//
;;;172            
;;;173            
;;;174    	}
;;;175    	break;
;;;176        
;;;177    		
;;;178      case WM_INIT_DIALOG:
;;;179          hItem = pMsg->hWin;
;;;180          WINDOW_SetBkColor(hItem, GUI_BLACK);
;;;181          WM_CreateTimer(hItem,ID_TimerTime7,20,0);
;;;182      
;;;183          hItem = WM_GetDialogItem(pMsg->hWin, ID_TEXT_99);
;;;184          GUI_UC_SetEncodeUTF8();
;;;185          sprintf(buf,"%d",year1);
;;;186          TEXT_SetText(hItem,buf);
;;;187          TEXT_SetTextColor(hItem, 0x00BFFFFF);
;;;188          TEXT_SetFont(hItem, &GUI_Font24_1);
;;;189    	
;;;190    	  hItem = WM_GetDialogItem(pMsg->hWin, ID_TEXT_100);
;;;191          GUI_UC_SetEncodeUTF8();
;;;192          sprintf(buf,"%d",year2);
;;;193          TEXT_SetText(hItem,buf);
;;;194          TEXT_SetTextColor(hItem, 0x00BFFFFF);
;;;195          TEXT_SetFont(hItem, &GUI_Font24_1);
;;;196    		
;;;197    	  hItem = WM_GetDialogItem(pMsg->hWin, ID_TEXT_101);
;;;198          GUI_UC_SetEncodeUTF8();
;;;199          sprintf(buf,"%d",year3);
;;;200          TEXT_SetText(hItem,buf);
;;;201          TEXT_SetTextColor(hItem, 0x00BFFFFF);
;;;202          TEXT_SetFont(hItem, &GUI_Font24_1);
;;;203    		
;;;204    	  hItem = WM_GetDialogItem(pMsg->hWin, ID_TEXT_102);
;;;205          GUI_UC_SetEncodeUTF8();
;;;206          sprintf(buf,"%d",year4);
;;;207          TEXT_SetText(hItem,buf);
;;;208          TEXT_SetTextColor(hItem, 0x00BFFFFF);
;;;209          TEXT_SetFont(hItem, &GUI_Font24_1);
;;;210          
;;;211          hItem = WM_GetDialogItem(pMsg->hWin, ID_TEXT_103);
;;;212          GUI_UC_SetEncodeUTF8();
;;;213          sprintf(buf,"%d",month1);
;;;214          TEXT_SetText(hItem,buf);
;;;215          TEXT_SetTextColor(hItem, 0x00BFFFFF);
;;;216          TEXT_SetFont(hItem, &GUI_Font24_1);
;;;217    	
;;;218    	  hItem = WM_GetDialogItem(pMsg->hWin, ID_TEXT_104);
;;;219          GUI_UC_SetEncodeUTF8();
;;;220          sprintf(buf,"%d",month2);
;;;221          TEXT_SetText(hItem,buf);
;;;222          TEXT_SetTextColor(hItem, 0x00BFFFFF);
;;;223          TEXT_SetFont(hItem, &GUI_Font24_1);
;;;224    		
;;;225    	  hItem = WM_GetDialogItem(pMsg->hWin, ID_TEXT_105);
;;;226          GUI_UC_SetEncodeUTF8();
;;;227          sprintf(buf,"%d",day1);
;;;228          TEXT_SetText(hItem,buf);
;;;229          TEXT_SetTextColor(hItem, 0x00BFFFFF);
;;;230          TEXT_SetFont(hItem, &GUI_Font24_1);
;;;231    		
;;;232    	  hItem = WM_GetDialogItem(pMsg->hWin, ID_TEXT_106);
;;;233          GUI_UC_SetEncodeUTF8();
;;;234          sprintf(buf,"%d",day2);
;;;235          TEXT_SetText(hItem,buf);
;;;236          TEXT_SetTextColor(hItem, 0x00BFFFFF);
;;;237          TEXT_SetFont(hItem, &GUI_Font24_1);
;;;238    	
;;;239          hItem = WM_GetDialogItem(pMsg->hWin, ID_TEXT_107);
;;;240          GUI_UC_SetEncodeUTF8();
;;;241          sprintf(buf,"%d",code3);
;;;242          TEXT_SetText(hItem,buf);
;;;243          TEXT_SetTextColor(hItem, 0x00BFFFFF);
;;;244          TEXT_SetFont(hItem, &GUI_Font24_1);
;;;245    		
;;;246    	  hItem = WM_GetDialogItem(pMsg->hWin, ID_TEXT_108);
;;;247          GUI_UC_SetEncodeUTF8();
;;;248          sprintf(buf,"%d",code4);
;;;249          TEXT_SetText(hItem,buf);
;;;250          TEXT_SetTextColor(hItem, 0x00BFFFFF);
;;;251          TEXT_SetFont(hItem, &GUI_Font24_1);
;;;252          
;;;253          hItem = WM_GetDialogItem(pMsg->hWin, ID_TEXT_109);
;;;254          GUI_UC_SetEncodeUTF8();
;;;255          sprintf(buf,"%d",code5);
;;;256          TEXT_SetText(hItem,buf);
;;;257          TEXT_SetTextColor(hItem, 0x00BFFFFF);
;;;258          TEXT_SetFont(hItem, &GUI_Font24_1);
;;;259    		
;;;260    	  hItem = WM_GetDialogItem(pMsg->hWin, ID_TEXT_110);
;;;261          GUI_UC_SetEncodeUTF8();
;;;262          sprintf(buf,"%d",code6);
;;;263          TEXT_SetText(hItem,buf);
;;;264          TEXT_SetTextColor(hItem, 0x00BFFFFF);
;;;265          TEXT_SetFont(hItem, &GUI_Font24_1);
;;;266          
;;;267          hItem = WM_GetDialogItem(pMsg->hWin, ID_TEXT_111);
;;;268          GUI_UC_SetEncodeUTF8();
;;;269          sprintf(buf,"%d",code7);
;;;270          TEXT_SetText(hItem,buf);
;;;271          TEXT_SetTextColor(hItem, 0x00BFFFFF);
;;;272          TEXT_SetFont(hItem, &GUI_Font24_1);
;;;273    		
;;;274    	  hItem = WM_GetDialogItem(pMsg->hWin, ID_TEXT_112);
;;;275          GUI_UC_SetEncodeUTF8();
;;;276          sprintf(buf,"%d",code8);
;;;277          TEXT_SetText(hItem,buf);
;;;278          TEXT_SetTextColor(hItem, 0x00BFFFFF);
;;;279          TEXT_SetFont(hItem, &GUI_Font24_1);
;;;280          
;;;281          hItem = WM_GetDialogItem(pMsg->hWin, ID_TEXT_113);
;;;282          GUI_UC_SetEncodeUTF8();
;;;283          sprintf(buf,"%d",code1);
;;;284          TEXT_SetText(hItem,buf);
;;;285          TEXT_SetTextColor(hItem, 0x00BFFFFF);
;;;286          TEXT_SetFont(hItem, &GUI_Font24_1);
;;;287    		
;;;288    	  hItem = WM_GetDialogItem(pMsg->hWin, ID_TEXT_114);
;;;289          GUI_UC_SetEncodeUTF8();
;;;290          sprintf(buf,"%d",code2);
;;;291          TEXT_SetText(hItem,buf);
;;;292          TEXT_SetTextColor(hItem, 0x00BFFFFF);
;;;293          TEXT_SetFont(hItem, &GUI_Font24_1);
;;;294          
;;;295    
;;;296    
;;;297        // USER START (Optionally insert additional code for further widget initialization)
;;;298        // USER END
;;;299            break;
;;;300      // USER START (Optionally insert additional message handling)
;;;301      // USER END
;;;302        default:
;;;303            WM_DefaultProc(pMsg);
00001c  4620              MOV      r0,r4
00001e  e8bd41f0          POP      {r4-r8,lr}
000022  f7ffbffe          B.W      WM_DefaultProc
                  |L8.38|
000026  f06f447f          MVN      r4,#0xff000000        ;133
00002a  4620              MOV      r0,r4                 ;133
00002c  f7fffffe          BL       GUI_SetColor
000030  231a              MOVS     r3,#0x1a              ;134
000032  f44f72f0          MOV      r2,#0x1e0             ;134
000036  2119              MOVS     r1,#0x19              ;134
000038  2000              MOVS     r0,#0                 ;134
00003a  f7fffffe          BL       GUI_FillRect
00003e  f24a50ff          MOV      r0,#0xa5ff            ;135
000042  f7fffffe          BL       GUI_SetColor
000046  48f1              LDR      r0,|L8.1036|
000048  f7fffffe          BL       GUI_SetFont
00004c  f7fffffe          BL       GUI_UC_SetEncodeUTF8
000050  2002              MOVS     r0,#2                 ;138
000052  f7fffffe          BL       GUI_SetTextMode
000056  2201              MOVS     r2,#1                 ;139
000058  2105              MOVS     r1,#5                 ;139
00005a  a0ed              ADR      r0,|L8.1040|
00005c  f7fffffe          BL       GUI_DispStringAt
000060  4620              MOV      r0,r4                 ;140
000062  f7fffffe          BL       GUI_SetColor
000066  48ec              LDR      r0,|L8.1048|
000068  f7fffffe          BL       GUI_SetFont
00006c  f7fffffe          BL       GUI_UC_SetEncodeUTF8
000070  2002              MOVS     r0,#2                 ;143
000072  f7fffffe          BL       GUI_SetTextMode
000076  2203              MOVS     r2,#3                 ;144
000078  2182              MOVS     r1,#0x82              ;144
00007a  a0e8              ADR      r0,|L8.1052|
00007c  f7fffffe          BL       GUI_DispStringAt
000080  48ea              LDR      r0,|L8.1068|
000082  f7fffffe          BL       GUI_SetColor
000086  48ea              LDR      r0,|L8.1072|
000088  f7fffffe          BL       GUI_SetFont
00008c  2232              MOVS     r2,#0x32              ;147
00008e  211e              MOVS     r1,#0x1e              ;147
000090  a0e8              ADR      r0,|L8.1076|
000092  f7fffffe          BL       GUI_DispStringAt
000096  224b              MOVS     r2,#0x4b              ;148
000098  211e              MOVS     r1,#0x1e              ;148
00009a  a0ea              ADR      r0,|L8.1092|
00009c  f7fffffe          BL       GUI_DispStringAt
0000a0  2264              MOVS     r2,#0x64              ;149
0000a2  211e              MOVS     r1,#0x1e              ;149
0000a4  a0eb              ADR      r0,|L8.1108|
0000a6  f7fffffe          BL       GUI_DispStringAt
0000aa  227d              MOVS     r2,#0x7d              ;150
0000ac  211e              MOVS     r1,#0x1e              ;150
0000ae  a0ed              ADR      r0,|L8.1124|
0000b0  f7fffffe          BL       GUI_DispStringAt
0000b4  2296              MOVS     r2,#0x96              ;151
0000b6  211e              MOVS     r1,#0x1e              ;151
0000b8  a0ee              ADR      r0,|L8.1140|
0000ba  f7fffffe          BL       GUI_DispStringAt
0000be  4638              MOV      r0,r7                 ;152
0000c0  f7fffffe          BL       GUI_SetColor
0000c4  48ef              LDR      r0,|L8.1156|
0000c6  f7fffffe          BL       GUI_SetFont
0000ca  2232              MOVS     r2,#0x32              ;154
0000cc  218c              MOVS     r1,#0x8c              ;154
0000ce  a0ee              ADR      r0,|L8.1160|
0000d0  f7fffffe          BL       GUI_DispStringAt
0000d4  224b              MOVS     r2,#0x4b              ;155
0000d6  218c              MOVS     r1,#0x8c              ;155
0000d8  a0ed              ADR      r0,|L8.1168|
0000da  f7fffffe          BL       GUI_DispStringAt
0000de  2264              MOVS     r2,#0x64              ;157
0000e0  218c              MOVS     r1,#0x8c              ;157
0000e2  a0ed              ADR      r0,|L8.1176|
0000e4  f7fffffe          BL       GUI_DispStringAt
0000e8  227d              MOVS     r2,#0x7d              ;158
0000ea  21bf              MOVS     r1,#0xbf              ;158
0000ec  a0ec              ADR      r0,|L8.1184|
0000ee  f7fffffe          BL       GUI_DispStringAt
0000f2  227d              MOVS     r2,#0x7d              ;159
0000f4  21e3              MOVS     r1,#0xe3              ;159
0000f6  a0ea              ADR      r0,|L8.1184|
0000f8  f7fffffe          BL       GUI_DispStringAt
0000fc  e8bd41f0          POP      {r4-r8,lr}            ;160
000100  2296              MOVS     r2,#0x96              ;160
000102  21a4              MOVS     r1,#0xa4              ;160
000104  a0e7              ADR      r0,|L8.1188|
000106  f7ffbffe          B.W      GUI_DispStringAt
                  |L8.266|
00010a  68e0              LDR      r0,[r4,#0xc]          ;163
00010c  e000              B        |L8.272|
                  |L8.270|
00010e  e012              B        |L8.310|
                  |L8.272|
000110  f7fffffe          BL       WM_GetTimerId
000114  2808              CMP      r0,#8                 ;163
000116  d17d              BNE      |L8.532|
000118  48e3              LDR      r0,|L8.1192|
00011a  7800              LDRB     r0,[r0,#0]            ;165  ; pass
00011c  280e              CMP      r0,#0xe               ;165
00011e  d008              BEQ      |L8.306|
000120  2000              MOVS     r0,#0                 ;169
                  |L8.290|
000122  7170              STRB     r0,[r6,#5]            ;169
000124  68e0              LDR      r0,[r4,#0xc]          ;171
000126  e8bd41f0          POP      {r4-r8,lr}            ;171
00012a  f44f71fa          MOV      r1,#0x1f4             ;171
00012e  f7ffbffe          B.W      WM_RestartTimer
                  |L8.306|
000132  2001              MOVS     r0,#1                 ;167
000134  e7f5              B        |L8.290|
                  |L8.310|
000136  6865              LDR      r5,[r4,#4]            ;180
000138  2100              MOVS     r1,#0                 ;180
00013a  4628              MOV      r0,r5                 ;180
00013c  f7fffffe          BL       WINDOW_SetBkColor
000140  2300              MOVS     r3,#0                 ;181
000142  2214              MOVS     r2,#0x14              ;181
000144  2108              MOVS     r1,#8                 ;181
000146  4628              MOV      r0,r5                 ;181
000148  f7fffffe          BL       WM_CreateTimer
00014c  f6400199          MOV      r1,#0x899             ;183
000150  6860              LDR      r0,[r4,#4]            ;183
000152  f7fffffe          BL       WM_GetDialogItem
000156  4680              MOV      r8,r0                 ;183
000158  f7fffffe          BL       GUI_UC_SetEncodeUTF8
00015c  89f2              LDRH     r2,[r6,#0xe]          ;185  ; year1
00015e  48aa              LDR      r0,|L8.1032|
000160  a1d2              ADR      r1,|L8.1196|
000162  301c              ADDS     r0,r0,#0x1c           ;185
000164  f7fffffe          BL       __2sprintf
000168  49a7              LDR      r1,|L8.1032|
00016a  4640              MOV      r0,r8                 ;186
00016c  311c              ADDS     r1,r1,#0x1c           ;186
00016e  f7fffffe          BL       TEXT_SetText
000172  463d              MOV      r5,r7                 ;187
000174  4639              MOV      r1,r7                 ;187
000176  4640              MOV      r0,r8                 ;187
000178  f7fffffe          BL       TEXT_SetTextColor
00017c  49c1              LDR      r1,|L8.1156|
00017e  4640              MOV      r0,r8                 ;188
000180  f7fffffe          BL       TEXT_SetFont
000184  f640019a          MOV      r1,#0x89a             ;190
000188  6860              LDR      r0,[r4,#4]            ;190
00018a  f7fffffe          BL       WM_GetDialogItem
00018e  4607              MOV      r7,r0                 ;190
000190  f7fffffe          BL       GUI_UC_SetEncodeUTF8
000194  8a32              LDRH     r2,[r6,#0x10]         ;192  ; year2
000196  489c              LDR      r0,|L8.1032|
000198  a1c4              ADR      r1,|L8.1196|
00019a  301c              ADDS     r0,r0,#0x1c           ;192
00019c  f7fffffe          BL       __2sprintf
0001a0  4999              LDR      r1,|L8.1032|
0001a2  4638              MOV      r0,r7                 ;193
0001a4  311c              ADDS     r1,r1,#0x1c           ;193
0001a6  f7fffffe          BL       TEXT_SetText
0001aa  4629              MOV      r1,r5                 ;194
0001ac  4638              MOV      r0,r7                 ;194
0001ae  f7fffffe          BL       TEXT_SetTextColor
0001b2  49b4              LDR      r1,|L8.1156|
0001b4  4638              MOV      r0,r7                 ;195
0001b6  f7fffffe          BL       TEXT_SetFont
0001ba  f640019b          MOV      r1,#0x89b             ;197
0001be  6860              LDR      r0,[r4,#4]            ;197
0001c0  f7fffffe          BL       WM_GetDialogItem
0001c4  4607              MOV      r7,r0                 ;197
0001c6  f7fffffe          BL       GUI_UC_SetEncodeUTF8
0001ca  8a72              LDRH     r2,[r6,#0x12]         ;199  ; year3
0001cc  488e              LDR      r0,|L8.1032|
0001ce  a1b7              ADR      r1,|L8.1196|
0001d0  301c              ADDS     r0,r0,#0x1c           ;199
0001d2  f7fffffe          BL       __2sprintf
0001d6  498c              LDR      r1,|L8.1032|
0001d8  4638              MOV      r0,r7                 ;200
0001da  311c              ADDS     r1,r1,#0x1c           ;200
0001dc  f7fffffe          BL       TEXT_SetText
0001e0  4629              MOV      r1,r5                 ;201
0001e2  4638              MOV      r0,r7                 ;201
0001e4  f7fffffe          BL       TEXT_SetTextColor
0001e8  49a6              LDR      r1,|L8.1156|
0001ea  4638              MOV      r0,r7                 ;202
0001ec  f7fffffe          BL       TEXT_SetFont
0001f0  f640019c          MOV      r1,#0x89c             ;204
0001f4  6860              LDR      r0,[r4,#4]            ;204
0001f6  f7fffffe          BL       WM_GetDialogItem
0001fa  4607              MOV      r7,r0                 ;204
0001fc  f7fffffe          BL       GUI_UC_SetEncodeUTF8
000200  8ab2              LDRH     r2,[r6,#0x14]         ;206  ; year4
000202  4881              LDR      r0,|L8.1032|
000204  a1a9              ADR      r1,|L8.1196|
000206  301c              ADDS     r0,r0,#0x1c           ;206
000208  f7fffffe          BL       __2sprintf
00020c  497e              LDR      r1,|L8.1032|
00020e  4638              MOV      r0,r7                 ;207
000210  311c              ADDS     r1,r1,#0x1c           ;207
000212  e000              B        |L8.534|
                  |L8.532|
000214  e1a3              B        |L8.1374|
                  |L8.534|
000216  f7fffffe          BL       TEXT_SetText
00021a  4629              MOV      r1,r5                 ;208
00021c  4638              MOV      r0,r7                 ;208
00021e  f7fffffe          BL       TEXT_SetTextColor
000222  4998              LDR      r1,|L8.1156|
000224  4638              MOV      r0,r7                 ;209
000226  f7fffffe          BL       TEXT_SetFont
00022a  f640019d          MOV      r1,#0x89d             ;211
00022e  6860              LDR      r0,[r4,#4]            ;211
000230  f7fffffe          BL       WM_GetDialogItem
000234  4607              MOV      r7,r0                 ;211
000236  f7fffffe          BL       GUI_UC_SetEncodeUTF8
00023a  7872              LDRB     r2,[r6,#1]            ;213  ; month1
00023c  4872              LDR      r0,|L8.1032|
00023e  a19b              ADR      r1,|L8.1196|
000240  301c              ADDS     r0,r0,#0x1c           ;213
000242  f7fffffe          BL       __2sprintf
000246  4970              LDR      r1,|L8.1032|
000248  4638              MOV      r0,r7                 ;214
00024a  311c              ADDS     r1,r1,#0x1c           ;214
00024c  f7fffffe          BL       TEXT_SetText
000250  4629              MOV      r1,r5                 ;215
000252  4638              MOV      r0,r7                 ;215
000254  f7fffffe          BL       TEXT_SetTextColor
000258  498a              LDR      r1,|L8.1156|
00025a  4638              MOV      r0,r7                 ;216
00025c  f7fffffe          BL       TEXT_SetFont
000260  f640019e          MOV      r1,#0x89e             ;218
000264  6860              LDR      r0,[r4,#4]            ;218
000266  f7fffffe          BL       WM_GetDialogItem
00026a  4607              MOV      r7,r0                 ;218
00026c  f7fffffe          BL       GUI_UC_SetEncodeUTF8
000270  78b2              LDRB     r2,[r6,#2]            ;220  ; month2
000272  4865              LDR      r0,|L8.1032|
000274  a18d              ADR      r1,|L8.1196|
000276  301c              ADDS     r0,r0,#0x1c           ;220
000278  f7fffffe          BL       __2sprintf
00027c  4962              LDR      r1,|L8.1032|
00027e  4638              MOV      r0,r7                 ;221
000280  311c              ADDS     r1,r1,#0x1c           ;221
000282  f7fffffe          BL       TEXT_SetText
000286  4629              MOV      r1,r5                 ;222
000288  4638              MOV      r0,r7                 ;222
00028a  f7fffffe          BL       TEXT_SetTextColor
00028e  497d              LDR      r1,|L8.1156|
000290  4638              MOV      r0,r7                 ;223
000292  f7fffffe          BL       TEXT_SetFont
000296  f6401115          MOV      r1,#0x915             ;225
00029a  6860              LDR      r0,[r4,#4]            ;225
00029c  f7fffffe          BL       WM_GetDialogItem
0002a0  4607              MOV      r7,r0                 ;225
0002a2  f7fffffe          BL       GUI_UC_SetEncodeUTF8
0002a6  78f2              LDRB     r2,[r6,#3]            ;227  ; day1
0002a8  4857              LDR      r0,|L8.1032|
0002aa  a180              ADR      r1,|L8.1196|
0002ac  301c              ADDS     r0,r0,#0x1c           ;227
0002ae  f7fffffe          BL       __2sprintf
0002b2  4955              LDR      r1,|L8.1032|
0002b4  4638              MOV      r0,r7                 ;228
0002b6  311c              ADDS     r1,r1,#0x1c           ;228
0002b8  f7fffffe          BL       TEXT_SetText
0002bc  4629              MOV      r1,r5                 ;229
0002be  4638              MOV      r0,r7                 ;229
0002c0  f7fffffe          BL       TEXT_SetTextColor
0002c4  496f              LDR      r1,|L8.1156|
0002c6  4638              MOV      r0,r7                 ;230
0002c8  f7fffffe          BL       TEXT_SetFont
0002cc  f6401116          MOV      r1,#0x916             ;232
0002d0  6860              LDR      r0,[r4,#4]            ;232
0002d2  f7fffffe          BL       WM_GetDialogItem
0002d6  4607              MOV      r7,r0                 ;232
0002d8  f7fffffe          BL       GUI_UC_SetEncodeUTF8
0002dc  7932              LDRB     r2,[r6,#4]            ;234  ; day2
0002de  484a              LDR      r0,|L8.1032|
0002e0  a172              ADR      r1,|L8.1196|
0002e2  301c              ADDS     r0,r0,#0x1c           ;234
0002e4  f7fffffe          BL       __2sprintf
0002e8  4947              LDR      r1,|L8.1032|
0002ea  4638              MOV      r0,r7                 ;235
0002ec  311c              ADDS     r1,r1,#0x1c           ;235
0002ee  f7fffffe          BL       TEXT_SetText
0002f2  4629              MOV      r1,r5                 ;236
0002f4  4638              MOV      r0,r7                 ;236
0002f6  f7fffffe          BL       TEXT_SetTextColor
0002fa  4962              LDR      r1,|L8.1156|
0002fc  4638              MOV      r0,r7                 ;237
0002fe  f7fffffe          BL       TEXT_SetFont
000302  f6401117          MOV      r1,#0x917             ;239
000306  6860              LDR      r0,[r4,#4]            ;239
000308  f7fffffe          BL       WM_GetDialogItem
00030c  4607              MOV      r7,r0                 ;239
00030e  f7fffffe          BL       GUI_UC_SetEncodeUTF8
000312  7a32              LDRB     r2,[r6,#8]            ;241  ; code3
000314  483c              LDR      r0,|L8.1032|
000316  a165              ADR      r1,|L8.1196|
000318  301c              ADDS     r0,r0,#0x1c           ;241
00031a  f7fffffe          BL       __2sprintf
00031e  493a              LDR      r1,|L8.1032|
000320  4638              MOV      r0,r7                 ;242
000322  311c              ADDS     r1,r1,#0x1c           ;242
000324  f7fffffe          BL       TEXT_SetText
000328  4629              MOV      r1,r5                 ;243
00032a  4638              MOV      r0,r7                 ;243
00032c  f7fffffe          BL       TEXT_SetTextColor
000330  4954              LDR      r1,|L8.1156|
000332  4638              MOV      r0,r7                 ;244
000334  f7fffffe          BL       TEXT_SetFont
000338  f6401118          MOV      r1,#0x918             ;246
00033c  6860              LDR      r0,[r4,#4]            ;246
00033e  f7fffffe          BL       WM_GetDialogItem
000342  4607              MOV      r7,r0                 ;246
000344  f7fffffe          BL       GUI_UC_SetEncodeUTF8
000348  7a72              LDRB     r2,[r6,#9]            ;248  ; code4
00034a  482f              LDR      r0,|L8.1032|
00034c  a157              ADR      r1,|L8.1196|
00034e  301c              ADDS     r0,r0,#0x1c           ;248
000350  f7fffffe          BL       __2sprintf
000354  492c              LDR      r1,|L8.1032|
000356  4638              MOV      r0,r7                 ;249
000358  311c              ADDS     r1,r1,#0x1c           ;249
00035a  f7fffffe          BL       TEXT_SetText
00035e  4629              MOV      r1,r5                 ;250
000360  4638              MOV      r0,r7                 ;250
000362  f7fffffe          BL       TEXT_SetTextColor
000366  4947              LDR      r1,|L8.1156|
000368  4638              MOV      r0,r7                 ;251
00036a  f7fffffe          BL       TEXT_SetFont
00036e  f6401119          MOV      r1,#0x919             ;253
000372  6860              LDR      r0,[r4,#4]            ;253
000374  f7fffffe          BL       WM_GetDialogItem
000378  4607              MOV      r7,r0                 ;253
00037a  f7fffffe          BL       GUI_UC_SetEncodeUTF8
00037e  7ab2              LDRB     r2,[r6,#0xa]          ;255  ; code5
000380  4821              LDR      r0,|L8.1032|
000382  a14a              ADR      r1,|L8.1196|
000384  301c              ADDS     r0,r0,#0x1c           ;255
000386  f7fffffe          BL       __2sprintf
00038a  491f              LDR      r1,|L8.1032|
00038c  4638              MOV      r0,r7                 ;256
00038e  311c              ADDS     r1,r1,#0x1c           ;256
000390  f7fffffe          BL       TEXT_SetText
000394  4629              MOV      r1,r5                 ;257
000396  4638              MOV      r0,r7                 ;257
000398  f7fffffe          BL       TEXT_SetTextColor
00039c  4939              LDR      r1,|L8.1156|
00039e  4638              MOV      r0,r7                 ;258
0003a0  f7fffffe          BL       TEXT_SetFont
0003a4  f640111a          MOV      r1,#0x91a             ;260
0003a8  6860              LDR      r0,[r4,#4]            ;260
0003aa  f7fffffe          BL       WM_GetDialogItem
0003ae  4607              MOV      r7,r0                 ;260
0003b0  f7fffffe          BL       GUI_UC_SetEncodeUTF8
0003b4  7af2              LDRB     r2,[r6,#0xb]          ;262  ; code6
0003b6  4814              LDR      r0,|L8.1032|
0003b8  a13c              ADR      r1,|L8.1196|
0003ba  301c              ADDS     r0,r0,#0x1c           ;262
0003bc  f7fffffe          BL       __2sprintf
0003c0  4911              LDR      r1,|L8.1032|
0003c2  4638              MOV      r0,r7                 ;263
0003c4  311c              ADDS     r1,r1,#0x1c           ;263
0003c6  f7fffffe          BL       TEXT_SetText
0003ca  4629              MOV      r1,r5                 ;264
0003cc  4638              MOV      r0,r7                 ;264
0003ce  f7fffffe          BL       TEXT_SetTextColor
0003d2  492c              LDR      r1,|L8.1156|
0003d4  4638              MOV      r0,r7                 ;265
0003d6  f7fffffe          BL       TEXT_SetFont
0003da  f640111b          MOV      r1,#0x91b             ;267
0003de  6860              LDR      r0,[r4,#4]            ;267
0003e0  f7fffffe          BL       WM_GetDialogItem
0003e4  4607              MOV      r7,r0                 ;267
0003e6  f7fffffe          BL       GUI_UC_SetEncodeUTF8
0003ea  7b32              LDRB     r2,[r6,#0xc]          ;269  ; code7
0003ec  4806              LDR      r0,|L8.1032|
0003ee  a12f              ADR      r1,|L8.1196|
0003f0  301c              ADDS     r0,r0,#0x1c           ;269
0003f2  f7fffffe          BL       __2sprintf
0003f6  4904              LDR      r1,|L8.1032|
0003f8  4638              MOV      r0,r7                 ;270
0003fa  311c              ADDS     r1,r1,#0x1c           ;270
0003fc  f7fffffe          BL       TEXT_SetText
000400  4629              MOV      r1,r5                 ;271
000402  e055              B        |L8.1200|
                  |L8.1028|
                          DCD      0x00bfffff
                  |L8.1032|
                          DCD      ||.data||
                  |L8.1036|
                          DCD      GUI_Fontsymbol
                  |L8.1040|
000410  4a696e6b          DCB      "Jinko",0
000414  6f00    
000416  00                DCB      0
000417  00                DCB      0
                  |L8.1048|
                          DCD      GUI_FontHZ20S
                  |L8.1052|
00041c  e7b3bbe7          DCB      231,179,187,231,187,159,228,191,161,230,129,175,0
000420  bb9fe4bf
000424  a1e681af
000428  00      
000429  00                DCB      0
00042a  00                DCB      0
00042b  00                DCB      0
                  |L8.1068|
                          DCD      0x00ff8080
                  |L8.1072|
                          DCD      GUI_Fontset_font
                  |L8.1076|
000434  e4bbaae5          DCB      228,187,170,229,153,168,229,158,139,229,143,183,0
000438  99a8e59e
00043c  8be58fb7
000440  00      
000441  00                DCB      0
000442  00                DCB      0
000443  00                DCB      0
                  |L8.1092|
000444  e8bdafe4          DCB      232,189,175,228,187,182,231,137,136,230,156,172,0
000448  bbb6e789
00044c  88e69cac
000450  00      
000451  00                DCB      0
000452  00                DCB      0
000453  00                DCB      0
                  |L8.1108|
000454  e7a1ace4          DCB      231,161,172,228,187,182,231,137,136,230,156,172,0
000458  bbb6e789
00045c  88e69cac
000460  00      
000461  00                DCB      0
000462  00                DCB      0
000463  00                DCB      0
                  |L8.1124|
000464  e7949fe4          DCB      231,148,159,228,186,167,230,151,165,230,156,159,0
000468  baa7e697
00046c  a5e69c9f
000470  00      
000471  00                DCB      0
000472  00                DCB      0
000473  00                DCB      0
                  |L8.1140|
000474  e4bbaae5          DCB      228,187,170,229,153,168,231,188,150,229,143,183,0
000478  99a8e7bc
00047c  96e58fb7
000480  00      
000481  00                DCB      0
000482  00                DCB      0
000483  00                DCB      0
                  |L8.1156|
                          DCD      GUI_Font24_1
                  |L8.1160|
000488  4a4b3535          DCB      "JK5530B",0
00048c  33304200
                  |L8.1168|
000490  5665723a          DCB      "Ver:1.5",0
000494  312e3500
                  |L8.1176|
000498  5665723a          DCB      "Ver:1.2",0
00049c  312e3200
                  |L8.1184|
0004a0  2d00              DCB      "-",0
0004a2  00                DCB      0
0004a3  00                DCB      0
                  |L8.1188|
0004a4  4100              DCB      "A",0
0004a6  00                DCB      0
0004a7  00                DCB      0
                  |L8.1192|
                          DCD      pass
                  |L8.1196|
0004ac  256400            DCB      "%d",0
0004af  00                DCB      0
                  |L8.1200|
0004b0  4638              MOV      r0,r7                 ;271
0004b2  f7fffffe          BL       TEXT_SetTextColor
0004b6  492b              LDR      r1,|L8.1380|
0004b8  4638              MOV      r0,r7                 ;272
0004ba  f7fffffe          BL       TEXT_SetFont
0004be  f640111c          MOV      r1,#0x91c             ;274
0004c2  6860              LDR      r0,[r4,#4]            ;274
0004c4  f7fffffe          BL       WM_GetDialogItem
0004c8  4607              MOV      r7,r0                 ;274
0004ca  f7fffffe          BL       GUI_UC_SetEncodeUTF8
0004ce  7b72              LDRB     r2,[r6,#0xd]          ;276  ; code8
0004d0  f2af0128          ADR      r1,|L8.1196|
0004d4  4824              LDR      r0,|L8.1384|
0004d6  f7fffffe          BL       __2sprintf
0004da  4923              LDR      r1,|L8.1384|
0004dc  4638              MOV      r0,r7                 ;277
0004de  f7fffffe          BL       TEXT_SetText
0004e2  4629              MOV      r1,r5                 ;278
0004e4  4638              MOV      r0,r7                 ;278
0004e6  f7fffffe          BL       TEXT_SetTextColor
0004ea  491e              LDR      r1,|L8.1380|
0004ec  4638              MOV      r0,r7                 ;279
0004ee  f7fffffe          BL       TEXT_SetFont
0004f2  f640111d          MOV      r1,#0x91d             ;281
0004f6  6860              LDR      r0,[r4,#4]            ;281
0004f8  f7fffffe          BL       WM_GetDialogItem
0004fc  4607              MOV      r7,r0                 ;281
0004fe  f7fffffe          BL       GUI_UC_SetEncodeUTF8
000502  79b2              LDRB     r2,[r6,#6]            ;283  ; code1
000504  f2af015c          ADR      r1,|L8.1196|
000508  4817              LDR      r0,|L8.1384|
00050a  f7fffffe          BL       __2sprintf
00050e  4916              LDR      r1,|L8.1384|
000510  4638              MOV      r0,r7                 ;284
000512  f7fffffe          BL       TEXT_SetText
000516  4629              MOV      r1,r5                 ;285
000518  4638              MOV      r0,r7                 ;285
00051a  f7fffffe          BL       TEXT_SetTextColor
00051e  4911              LDR      r1,|L8.1380|
000520  4638              MOV      r0,r7                 ;286
000522  f7fffffe          BL       TEXT_SetFont
000526  f640111e          MOV      r1,#0x91e             ;288
00052a  6860              LDR      r0,[r4,#4]            ;288
00052c  f7fffffe          BL       WM_GetDialogItem
000530  4604              MOV      r4,r0                 ;288
000532  f7fffffe          BL       GUI_UC_SetEncodeUTF8
000536  79f2              LDRB     r2,[r6,#7]            ;290  ; code2
000538  f2af0190          ADR      r1,|L8.1196|
00053c  480a              LDR      r0,|L8.1384|
00053e  f7fffffe          BL       __2sprintf
000542  4909              LDR      r1,|L8.1384|
000544  4620              MOV      r0,r4                 ;291
000546  f7fffffe          BL       TEXT_SetText
00054a  4629              MOV      r1,r5                 ;292
00054c  4620              MOV      r0,r4                 ;292
00054e  f7fffffe          BL       TEXT_SetTextColor
000552  4620              MOV      r0,r4                 ;293
000554  e8bd41f0          POP      {r4-r8,lr}            ;293
000558  4902              LDR      r1,|L8.1380|
00055a  f7ffbffe          B.W      TEXT_SetFont
                  |L8.1374|
;;;304            break;
;;;305      }
;;;306    }
00055e  e8bd81f0          POP      {r4-r8,pc}
;;;307    
                          ENDP

000562  0000              DCW      0x0000
                  |L8.1380|
                          DCD      GUI_Font24_1
                  |L8.1384|
                          DCD      ||.data||+0x1c

                          AREA ||.constdata||, DATA, READONLY, ALIGN=2

                  _aDialogCreate7
                          DCD      WINDOW_CreateIndirect
                          DCD      ||.conststring||
000008  08980000          DCW      0x0898,0x0000
00000c  000001e0          DCW      0x0000,0x01e0
000010  01100000          DCW      0x0110,0x0000
                          DCD      0x00000000
                          DCD      0x00000000
                          DCD      TEXT_CreateIndirect
                          DCD      ||.conststring||+0x8
000024  0899008c          DCW      0x0899,0x008c
000028  007d000c          DCW      0x007d,0x000c
00002c  00140000          DCW      0x0014,0x0000
                          DCD      0x00000000
                          DCD      0x00000000
                          DCD      TEXT_CreateIndirect
                          DCD      ||.conststring||+0x8
000040  089a0098          DCW      0x089a,0x0098
000044  007d000c          DCW      0x007d,0x000c
000048  00140000          DCW      0x0014,0x0000
                          DCD      0x00000000
                          DCD      0x00000000
                          DCD      TEXT_CreateIndirect
                          DCD      ||.conststring||+0x8
00005c  089b00a4          DCW      0x089b,0x00a4
000060  007d000c          DCW      0x007d,0x000c
000064  00140000          DCW      0x0014,0x0000
                          DCD      0x00000000
                          DCD      0x00000000
                          DCD      TEXT_CreateIndirect
                          DCD      ||.conststring||+0x8
000078  089c00b0          DCW      0x089c,0x00b0
00007c  007d000c          DCW      0x007d,0x000c
000080  00140000          DCW      0x0014,0x0000
                          DCD      0x00000000
                          DCD      0x00000000
                          DCD      TEXT_CreateIndirect
                          DCD      ||.conststring||+0x8
000094  089d00c8          DCW      0x089d,0x00c8
000098  007d000c          DCW      0x007d,0x000c
00009c  00140000          DCW      0x0014,0x0000
                          DCD      0x00000000
                          DCD      0x00000000
                          DCD      TEXT_CreateIndirect
                          DCD      ||.conststring||+0x8
0000b0  089e00d4          DCW      0x089e,0x00d4
0000b4  007d000c          DCW      0x007d,0x000c
0000b8  00140000          DCW      0x0014,0x0000
                          DCD      0x00000000
                          DCD      0x00000000
                          DCD      TEXT_CreateIndirect
                          DCD      ||.conststring||+0x8
0000cc  091500ec          DCW      0x0915,0x00ec
0000d0  007d000c          DCW      0x007d,0x000c
0000d4  00140000          DCW      0x0014,0x0000
                          DCD      0x00000000
                          DCD      0x00000000
                          DCD      TEXT_CreateIndirect
                          DCD      ||.conststring||+0x8
0000e8  091600f8          DCW      0x0916,0x00f8
0000ec  007d000c          DCW      0x007d,0x000c
0000f0  00140000          DCW      0x0014,0x0000
                          DCD      0x00000000
                          DCD      0x00000000
                          DCD      TEXT_CreateIndirect
                          DCD      ||.conststring||+0x8
000104  091700b0          DCW      0x0917,0x00b0
000108  0096000c          DCW      0x0096,0x000c
00010c  00140000          DCW      0x0014,0x0000
                          DCD      0x00000000
                          DCD      0x00000000
                          DCD      TEXT_CreateIndirect
                          DCD      ||.conststring||+0x8
000120  091800bc          DCW      0x0918,0x00bc
000124  0096000c          DCW      0x0096,0x000c
000128  00140000          DCW      0x0014,0x0000
                          DCD      0x00000000
                          DCD      0x00000000
                          DCD      TEXT_CreateIndirect
                          DCD      ||.conststring||+0x8
00013c  091900c8          DCW      0x0919,0x00c8
000140  0096000c          DCW      0x0096,0x000c
000144  00140000          DCW      0x0014,0x0000
                          DCD      0x00000000
                          DCD      0x00000000
                          DCD      TEXT_CreateIndirect
                          DCD      ||.conststring||+0x8
000158  091a00d4          DCW      0x091a,0x00d4
00015c  0096000c          DCW      0x0096,0x000c
000160  00140000          DCW      0x0014,0x0000
                          DCD      0x00000000
                          DCD      0x00000000
                          DCD      TEXT_CreateIndirect
                          DCD      ||.conststring||+0x8
000174  091b00e0          DCW      0x091b,0x00e0
000178  0096000c          DCW      0x0096,0x000c
00017c  00140000          DCW      0x0014,0x0000
                          DCD      0x00000000
                          DCD      0x00000000
                          DCD      TEXT_CreateIndirect
                          DCD      ||.conststring||+0x8
000190  091c00ec          DCW      0x091c,0x00ec
000194  0096000c          DCW      0x0096,0x000c
000198  00140000          DCW      0x0014,0x0000
                          DCD      0x00000000
                          DCD      0x00000000
                          DCD      TEXT_CreateIndirect
                          DCD      ||.conststring||+0x8
0001ac  091d008c          DCW      0x091d,0x008c
0001b0  0096000c          DCW      0x0096,0x000c
0001b4  00140000          DCW      0x0014,0x0000
                          DCD      0x00000000
                          DCD      0x00000000
                          DCD      TEXT_CreateIndirect
                          DCD      ||.conststring||+0x8
0001c8  091e0098          DCW      0x091e,0x0098
0001cc  0096000c          DCW      0x0096,0x000c
0001d0  00140000          DCW      0x0014,0x0000
                          DCD      0x00000000
                          DCD      0x00000000

                          AREA ||.conststring||, DATA, READONLY, MERGE=1, STRINGS, ALIGN=0

000000  53595349          DCB      "SYSINFO",0
000004  4e464f00
000008  54657874          DCB      "Text",0
00000c  00      

                          AREA ||.data||, DATA, ALIGN=2

                  info_set
000000  2f                DCB      0x2f
                  month1
000001  00                DCB      0x00
                  month2
000002  00                DCB      0x00
                  day1
000003  00                DCB      0x00
                  day2
000004  00                DCB      0x00
                  admin
000005  00                DCB      0x00
                  code1
000006  00                DCB      0x00
                  code2
000007  00                DCB      0x00
                  code3
000008  00                DCB      0x00
                  code4
000009  00                DCB      0x00
                  code5
00000a  00                DCB      0x00
                  code6
00000b  00                DCB      0x00
                  code7
00000c  00                DCB      0x00
                  code8
00000d  00                DCB      0x00
                  year1
00000e  0000              DCW      0x0000
                  year2
000010  0000              DCW      0x0000
                  year3
000012  0000              DCW      0x0000
                  year4
000014  0000              DCW      0x0000
000016  0000              DCB      0x00,0x00
                  hWinsysinfo
                          DCD      0x00000000
                  buf
                          DCD      0x00000000
000020  00                DCB      0x00
                  |symbol_number.44|
000021  000000            DCB      0x00,0x00,0x00
000024  0000              DCB      0x00,0x00

;*** Start embedded assembler ***

#line 1 "..\\APP\\sysinfo.c"
	AREA ||.rev16_text||, CODE, READONLY
	THUMB
	EXPORT |__asm___9_sysinfo_c_info_set____REV16|
#line 114 "D:\\Keil\\ARM\\CMSIS\\Include\\core_cmInstr.h"
|__asm___9_sysinfo_c_info_set____REV16| PROC
#line 115

 rev16 r0, r0
 bx lr
	ENDP
	AREA ||.revsh_text||, CODE, READONLY
	THUMB
	EXPORT |__asm___9_sysinfo_c_info_set____REVSH|
#line 128
|__asm___9_sysinfo_c_info_set____REVSH| PROC
#line 129

 revsh r0, r0
 bx lr
	ENDP

;*** End   embedded assembler ***
